GAS LISTING /tmp/ccJvCpdX.s 			page 1


   1              		.file	"GPIO.cpp"
   2              		.option nopic
   3              		.attribute arch, "rv32e1p9_c2p0_zicsr"
   4              		.attribute unaligned_access, 0
   5              		.attribute stack_align, 4
   6              		.text
   7              	.Ltext0:
   8              		.file 0 "/home/ignat/projects/AutoWatering" "src/GPIO.cpp"
   9              		.section	.text._Z6led_onv,"ax",@progbits
  10              		.align	1
  11              		.globl	_Z6led_onv
  13              	_Z6led_onv:
  14              	.LFB15:
  15              		.file 1 "src/GPIO.cpp"
   1:src/GPIO.cpp  **** #include "GPIO.h"
   2:src/GPIO.cpp  **** 
   3:src/GPIO.cpp  **** 
   4:src/GPIO.cpp  **** void led_on(){
  16              		.loc 1 4 14
  17              		.cfi_startproc
   5:src/GPIO.cpp  ****     LED_PORT->BCR = 1 << led_pin;
  18              		.loc 1 5 5
  19              		.loc 1 5 19 is_stmt 0
  20 0000 B7170140 		li	a5,1073811456
  21 0004 0947     		li	a4,2
  22 0006 D8CB     		sw	a4,20(a5)
   6:src/GPIO.cpp  **** }
  23              		.loc 1 6 1
  24 0008 8280     		ret
  25              		.cfi_endproc
  26              	.LFE15:
  28              		.section	.text._Z7led_offv,"ax",@progbits
  29              		.align	1
  30              		.globl	_Z7led_offv
  32              	_Z7led_offv:
  33              	.LFB16:
   7:src/GPIO.cpp  **** void led_off(){
  34              		.loc 1 7 15 is_stmt 1
  35              		.cfi_startproc
   8:src/GPIO.cpp  ****     LED_PORT->BSHR = 1 << led_pin;
  36              		.loc 1 8 5
  37              		.loc 1 8 20 is_stmt 0
  38 0000 B7170140 		li	a5,1073811456
  39 0004 0947     		li	a4,2
  40 0006 98CB     		sw	a4,16(a5)
   9:src/GPIO.cpp  **** }
  41              		.loc 1 9 1
  42 0008 8280     		ret
  43              		.cfi_endproc
  44              	.LFE16:
  46              		.section	.text._Z7pump_onv,"ax",@progbits
  47              		.align	1
  48              		.globl	_Z7pump_onv
  50              	_Z7pump_onv:
  51              	.LFB17:
  10:src/GPIO.cpp  **** void pump_on(){
  52              		.loc 1 10 15 is_stmt 1
GAS LISTING /tmp/ccJvCpdX.s 			page 2


  53              		.cfi_startproc
  11:src/GPIO.cpp  ****     PUMP_PORT->BSHR = 1 << pump_pin;
  54              		.loc 1 11 5
  55              		.loc 1 11 21 is_stmt 0
  56 0000 B7170140 		li	a5,1073811456
  57 0004 1147     		li	a4,4
  58 0006 98CB     		sw	a4,16(a5)
  12:src/GPIO.cpp  **** }
  59              		.loc 1 12 1
  60 0008 8280     		ret
  61              		.cfi_endproc
  62              	.LFE17:
  64              		.section	.text._Z8pump_offv,"ax",@progbits
  65              		.align	1
  66              		.globl	_Z8pump_offv
  68              	_Z8pump_offv:
  69              	.LFB18:
  13:src/GPIO.cpp  **** void pump_off(){
  70              		.loc 1 13 16 is_stmt 1
  71              		.cfi_startproc
  14:src/GPIO.cpp  ****     PUMP_PORT->BCR = 1 << pump_pin;
  72              		.loc 1 14 5
  73              		.loc 1 14 20 is_stmt 0
  74 0000 B7170140 		li	a5,1073811456
  75 0004 1147     		li	a4,4
  76 0006 D8CB     		sw	a4,20(a5)
  15:src/GPIO.cpp  **** }
  77              		.loc 1 15 1
  78 0008 8280     		ret
  79              		.cfi_endproc
  80              	.LFE18:
  82              		.section	.text._Z9btn_statev,"ax",@progbits
  83              		.align	1
  84              		.globl	_Z9btn_statev
  86              	_Z9btn_statev:
  87              	.LFB19:
  16:src/GPIO.cpp  **** uint8_t btn_state() { // 1 - pressed, 0 - not
  88              		.loc 1 16 21 is_stmt 1
  89              		.cfi_startproc
  17:src/GPIO.cpp  ****     if(BTN_PORT->INDR & (1 << btn_pin)) {
  90              		.loc 1 17 5
  91              		.loc 1 17 18 is_stmt 0
  92 0000 B7170140 		li	a5,1073811456
  93 0004 8847     		lw	a0,8(a5)
  94              		.loc 1 17 5
  95 0006 1181     		srli	a0,a0,4
  96 0008 13451500 		xori	a0,a0,1
  18:src/GPIO.cpp  ****         return 0;
  19:src/GPIO.cpp  ****     }
  20:src/GPIO.cpp  ****     return 1;
  21:src/GPIO.cpp  **** }
  97              		.loc 1 21 1
  98 000c 0589     		andi	a0,a0,1
  99 000e 8280     		ret
 100              		.cfi_endproc
 101              	.LFE19:
 103              		.section	.text._Z8sens_getv,"ax",@progbits
GAS LISTING /tmp/ccJvCpdX.s 			page 3


 104              		.align	1
 105              		.globl	_Z8sens_getv
 107              	_Z8sens_getv:
 108              	.LFB20:
  22:src/GPIO.cpp  **** 
  23:src/GPIO.cpp  **** uint16_t sens_get() {
 109              		.loc 1 23 21 is_stmt 1
 110              		.cfi_startproc
  24:src/GPIO.cpp  ****     if(!(ADC1->CTLR2 & ADC_ADON)) {
 111              		.loc 1 24 5
 112              		.loc 1 24 16 is_stmt 0
 113 0000 B7270140 		li	a5,1073815552
 114 0004 03A78740 		lw	a4,1032(a5)
 115 0008 93870740 		addi	a5,a5,1024
 116              		.loc 1 24 22
 117 000c 058B     		andi	a4,a4,1
 118              		.loc 1 24 5
 119 000e 09E7     		bne	a4,zero,.L8
  25:src/GPIO.cpp  ****         ADC1->CTLR2 |= ADC_ADON;
 120              		.loc 1 25 9 is_stmt 1
 121              		.loc 1 25 15 is_stmt 0
 122 0010 9847     		lw	a4,8(a5)
 123              		.loc 1 25 21
 124 0012 13671700 		ori	a4,a4,1
 125 0016 98C7     		sw	a4,8(a5)
 126              	.L8:
  26:src/GPIO.cpp  ****     }
  27:src/GPIO.cpp  ****     ADC1->CTLR2 |= ADC_ADON;
 127              		.loc 1 27 5 is_stmt 1
 128              		.loc 1 27 11 is_stmt 0
 129 0018 B7270140 		li	a5,1073815552
 130 001c 83A68740 		lw	a3,1032(a5)
  28:src/GPIO.cpp  ****     while(!(ADC1->STATR & ADC_EOC)) {;}
 131              		.loc 1 28 19
 132 0020 37270140 		li	a4,1073815552
  27:src/GPIO.cpp  ****     while(!(ADC1->STATR & ADC_EOC)) {;}
 133              		.loc 1 27 17
 134 0024 93E61600 		ori	a3,a3,1
 135 0028 23A4D740 		sw	a3,1032(a5)
 136              		.loc 1 28 5 is_stmt 1
 137              	.L9:
 138              		.loc 1 28 11 discriminator 1
 139              		.loc 1 28 19 is_stmt 0 discriminator 1
 140 002c 83270740 		lw	a5,1024(a4)
 141              		.loc 1 28 25 discriminator 1
 142 0030 898B     		andi	a5,a5,2
 143              		.loc 1 28 11 discriminator 1
 144 0032 EDDF     		beq	a5,zero,.L9
  29:src/GPIO.cpp  **** 
  30:src/GPIO.cpp  ****     return ADC1->RDATAR >> 8;
 145              		.loc 1 30 5 is_stmt 1
 146              		.loc 1 30 18 is_stmt 0
 147 0034 0325C744 		lw	a0,1100(a4)
 148              		.loc 1 30 25
 149 0038 2181     		srli	a0,a0,8
  31:src/GPIO.cpp  **** }...
 150              		.loc 1 31 1
GAS LISTING /tmp/ccJvCpdX.s 			page 4


 151 003a 4205     		slli	a0,a0,16
 152 003c 4181     		srli	a0,a0,16
 153 003e 8280     		ret
 154              		.cfi_endproc
 155              	.LFE20:
 157              		.text
 158              	.Letext0:
 159              		.file 2 "/opt/MRS_toolchain/riscv-wch-elf/include/machine/_default_types.h"
 160              		.file 3 "/opt/MRS_toolchain/riscv-wch-elf/include/sys/_stdint.h"
 161              		.file 4 "src/core/ch32v00x.h"
 162              		.file 5 "src/GPIO.h"
GAS LISTING /tmp/ccJvCpdX.s 			page 5


DEFINED SYMBOLS
                            *ABS*:0000000000000000 GPIO.cpp
     /tmp/ccJvCpdX.s:13     .text._Z6led_onv:0000000000000000 _Z6led_onv
     /tmp/ccJvCpdX.s:17     .text._Z6led_onv:0000000000000000 .L0 
     /tmp/ccJvCpdX.s:18     .text._Z6led_onv:0000000000000000 .L0 
     /tmp/ccJvCpdX.s:19     .text._Z6led_onv:0000000000000000 .L0 
     /tmp/ccJvCpdX.s:20     .text._Z6led_onv:0000000000000000 $x
     /tmp/ccJvCpdX.s:20     .text._Z6led_onv:0000000000000000 .L0 
     /tmp/ccJvCpdX.s:24     .text._Z6led_onv:0000000000000008 .L0 
     /tmp/ccJvCpdX.s:25     .text._Z6led_onv:000000000000000a .L0 
     /tmp/ccJvCpdX.s:32     .text._Z7led_offv:0000000000000000 _Z7led_offv
     /tmp/ccJvCpdX.s:35     .text._Z7led_offv:0000000000000000 .L0 
     /tmp/ccJvCpdX.s:36     .text._Z7led_offv:0000000000000000 .L0 
     /tmp/ccJvCpdX.s:37     .text._Z7led_offv:0000000000000000 .L0 
     /tmp/ccJvCpdX.s:38     .text._Z7led_offv:0000000000000000 $x
     /tmp/ccJvCpdX.s:38     .text._Z7led_offv:0000000000000000 .L0 
     /tmp/ccJvCpdX.s:42     .text._Z7led_offv:0000000000000008 .L0 
     /tmp/ccJvCpdX.s:43     .text._Z7led_offv:000000000000000a .L0 
     /tmp/ccJvCpdX.s:50     .text._Z7pump_onv:0000000000000000 _Z7pump_onv
     /tmp/ccJvCpdX.s:53     .text._Z7pump_onv:0000000000000000 .L0 
     /tmp/ccJvCpdX.s:54     .text._Z7pump_onv:0000000000000000 .L0 
     /tmp/ccJvCpdX.s:55     .text._Z7pump_onv:0000000000000000 .L0 
     /tmp/ccJvCpdX.s:56     .text._Z7pump_onv:0000000000000000 $x
     /tmp/ccJvCpdX.s:56     .text._Z7pump_onv:0000000000000000 .L0 
     /tmp/ccJvCpdX.s:60     .text._Z7pump_onv:0000000000000008 .L0 
     /tmp/ccJvCpdX.s:61     .text._Z7pump_onv:000000000000000a .L0 
     /tmp/ccJvCpdX.s:68     .text._Z8pump_offv:0000000000000000 _Z8pump_offv
     /tmp/ccJvCpdX.s:71     .text._Z8pump_offv:0000000000000000 .L0 
     /tmp/ccJvCpdX.s:72     .text._Z8pump_offv:0000000000000000 .L0 
     /tmp/ccJvCpdX.s:73     .text._Z8pump_offv:0000000000000000 .L0 
     /tmp/ccJvCpdX.s:74     .text._Z8pump_offv:0000000000000000 $x
     /tmp/ccJvCpdX.s:74     .text._Z8pump_offv:0000000000000000 .L0 
     /tmp/ccJvCpdX.s:78     .text._Z8pump_offv:0000000000000008 .L0 
     /tmp/ccJvCpdX.s:79     .text._Z8pump_offv:000000000000000a .L0 
     /tmp/ccJvCpdX.s:86     .text._Z9btn_statev:0000000000000000 _Z9btn_statev
     /tmp/ccJvCpdX.s:89     .text._Z9btn_statev:0000000000000000 .L0 
     /tmp/ccJvCpdX.s:90     .text._Z9btn_statev:0000000000000000 .L0 
     /tmp/ccJvCpdX.s:91     .text._Z9btn_statev:0000000000000000 .L0 
     /tmp/ccJvCpdX.s:92     .text._Z9btn_statev:0000000000000000 $x
     /tmp/ccJvCpdX.s:92     .text._Z9btn_statev:0000000000000000 .L0 
     /tmp/ccJvCpdX.s:95     .text._Z9btn_statev:0000000000000006 .L0 
     /tmp/ccJvCpdX.s:98     .text._Z9btn_statev:000000000000000c .L0 
     /tmp/ccJvCpdX.s:100    .text._Z9btn_statev:0000000000000010 .L0 
     /tmp/ccJvCpdX.s:107    .text._Z8sens_getv:0000000000000000 _Z8sens_getv
     /tmp/ccJvCpdX.s:110    .text._Z8sens_getv:0000000000000000 .L0 
     /tmp/ccJvCpdX.s:111    .text._Z8sens_getv:0000000000000000 .L0 
     /tmp/ccJvCpdX.s:112    .text._Z8sens_getv:0000000000000000 .L0 
     /tmp/ccJvCpdX.s:113    .text._Z8sens_getv:0000000000000000 $x
     /tmp/ccJvCpdX.s:113    .text._Z8sens_getv:0000000000000000 .L0 
     /tmp/ccJvCpdX.s:117    .text._Z8sens_getv:000000000000000c .L0 
     /tmp/ccJvCpdX.s:119    .text._Z8sens_getv:000000000000000e .L0 
     /tmp/ccJvCpdX.s:121    .text._Z8sens_getv:0000000000000010 .L0 
     /tmp/ccJvCpdX.s:122    .text._Z8sens_getv:0000000000000010 .L0 
     /tmp/ccJvCpdX.s:124    .text._Z8sens_getv:0000000000000012 .L0 
     /tmp/ccJvCpdX.s:128    .text._Z8sens_getv:0000000000000018 .L0 
     /tmp/ccJvCpdX.s:129    .text._Z8sens_getv:0000000000000018 .L0 
     /tmp/ccJvCpdX.s:132    .text._Z8sens_getv:0000000000000020 .L0 
GAS LISTING /tmp/ccJvCpdX.s 			page 6


     /tmp/ccJvCpdX.s:134    .text._Z8sens_getv:0000000000000024 .L0 
     /tmp/ccJvCpdX.s:138    .text._Z8sens_getv:000000000000002c .L0 
     /tmp/ccJvCpdX.s:139    .text._Z8sens_getv:000000000000002c .L0 
     /tmp/ccJvCpdX.s:140    .text._Z8sens_getv:000000000000002c .L0 
     /tmp/ccJvCpdX.s:142    .text._Z8sens_getv:0000000000000030 .L0 
     /tmp/ccJvCpdX.s:144    .text._Z8sens_getv:0000000000000032 .L0 
     /tmp/ccJvCpdX.s:146    .text._Z8sens_getv:0000000000000034 .L0 
     /tmp/ccJvCpdX.s:147    .text._Z8sens_getv:0000000000000034 .L0 
     /tmp/ccJvCpdX.s:149    .text._Z8sens_getv:0000000000000038 .L0 
     /tmp/ccJvCpdX.s:151    .text._Z8sens_getv:000000000000003a .L0 
     /tmp/ccJvCpdX.s:154    .text._Z8sens_getv:0000000000000040 .L0 
     /tmp/ccJvCpdX.s:890    .debug_line_str:000000000000002f .L0 
     /tmp/ccJvCpdX.s:890    .debug_line_str:0000000000000051 .L0 
     /tmp/ccJvCpdX.s:890    .debug_line_str:0000000000000055 .L0 
     /tmp/ccJvCpdX.s:890    .debug_line_str:0000000000000086 .L0 
     /tmp/ccJvCpdX.s:890    .debug_line_str:00000000000000b3 .L0 
     /tmp/ccJvCpdX.s:890    .debug_line_str:00000000000000bc .L0 
     /tmp/ccJvCpdX.s:890    .debug_line_str:00000000000000c5 .L0 
     /tmp/ccJvCpdX.s:890    .debug_line_str:00000000000000ce .L0 
     /tmp/ccJvCpdX.s:890    .debug_line_str:00000000000000df .L0 
     /tmp/ccJvCpdX.s:890    .debug_line_str:00000000000000e9 .L0 
     /tmp/ccJvCpdX.s:890    .debug_line_str:00000000000000f4 .L0 
     /tmp/ccJvCpdX.s:28     .text._Z6led_onv:000000000000000a .L0 
     /tmp/ccJvCpdX.s:46     .text._Z7led_offv:000000000000000a .L0 
     /tmp/ccJvCpdX.s:64     .text._Z7pump_onv:000000000000000a .L0 
     /tmp/ccJvCpdX.s:82     .text._Z8pump_offv:000000000000000a .L0 
     /tmp/ccJvCpdX.s:103    .text._Z9btn_statev:0000000000000010 .L0 
     /tmp/ccJvCpdX.s:157    .text._Z8sens_getv:0000000000000040 .L0 
     /tmp/ccJvCpdX.s:126    .text._Z8sens_getv:0000000000000018 .L8
     /tmp/ccJvCpdX.s:137    .text._Z8sens_getv:000000000000002c .L9
     /tmp/ccJvCpdX.s:500    .debug_abbrev:0000000000000000 .Ldebug_abbrev0
     /tmp/ccJvCpdX.s:849    .debug_str:00000000000001a9 .LASF63
     /tmp/ccJvCpdX.s:888    .debug_line_str:0000000000000022 .LASF0
     /tmp/ccJvCpdX.s:886    .debug_line_str:0000000000000000 .LASF1
     /tmp/ccJvCpdX.s:737    .debug_rnglists:000000000000000c .LLRL0
     /tmp/ccJvCpdX.s:759    .debug_line:0000000000000000 .Ldebug_line0
     /tmp/ccJvCpdX.s:811    .debug_str:00000000000000e3 .LASF2
     /tmp/ccJvCpdX.s:781    .debug_str:000000000000005d .LASF3
     /tmp/ccJvCpdX.s:765    .debug_str:000000000000000c .LASF6
     /tmp/ccJvCpdX.s:841    .debug_str:0000000000000184 .LASF4
     /tmp/ccJvCpdX.s:847    .debug_str:000000000000019f .LASF5
     /tmp/ccJvCpdX.s:857    .debug_str:0000000000000246 .LASF7
     /tmp/ccJvCpdX.s:821    .debug_str:0000000000000123 .LASF8
     /tmp/ccJvCpdX.s:789    .debug_str:0000000000000085 .LASF9
     /tmp/ccJvCpdX.s:805    .debug_str:00000000000000c8 .LASF10
     /tmp/ccJvCpdX.s:813    .debug_str:00000000000000f0 .LASF11
     /tmp/ccJvCpdX.s:779    .debug_str:000000000000004f .LASF12
     /tmp/ccJvCpdX.s:773    .debug_str:000000000000002d .LASF13
     /tmp/ccJvCpdX.s:879    .debug_str:000000000000029b .LASF14
     /tmp/ccJvCpdX.s:791    .debug_str:000000000000008e .LASF15
     /tmp/ccJvCpdX.s:853    .debug_str:0000000000000234 .LASF16
     /tmp/ccJvCpdX.s:883    .debug_str:00000000000002a9 .LASF39
     /tmp/ccJvCpdX.s:859    .debug_str:0000000000000251 .LASF17
     /tmp/ccJvCpdX.s:825    .debug_str:000000000000013b .LASF18
     /tmp/ccJvCpdX.s:827    .debug_str:0000000000000141 .LASF19
     /tmp/ccJvCpdX.s:807    .debug_str:00000000000000d3 .LASF20
     /tmp/ccJvCpdX.s:809    .debug_str:00000000000000db .LASF21
GAS LISTING /tmp/ccJvCpdX.s 			page 7


     /tmp/ccJvCpdX.s:867    .debug_str:000000000000026a .LASF22
     /tmp/ccJvCpdX.s:869    .debug_str:0000000000000270 .LASF23
     /tmp/ccJvCpdX.s:871    .debug_str:0000000000000276 .LASF24
     /tmp/ccJvCpdX.s:873    .debug_str:000000000000027c .LASF25
     /tmp/ccJvCpdX.s:863    .debug_str:000000000000025c .LASF26
     /tmp/ccJvCpdX.s:775    .debug_str:0000000000000044 .LASF27
     /tmp/ccJvCpdX.s:769    .debug_str:0000000000000021 .LASF28
     /tmp/ccJvCpdX.s:771    .debug_str:0000000000000027 .LASF29
     /tmp/ccJvCpdX.s:881    .debug_str:00000000000002a3 .LASF30
     /tmp/ccJvCpdX.s:795    .debug_str:00000000000000a3 .LASF31
     /tmp/ccJvCpdX.s:797    .debug_str:00000000000000a8 .LASF32
     /tmp/ccJvCpdX.s:799    .debug_str:00000000000000b0 .LASF33
     /tmp/ccJvCpdX.s:801    .debug_str:00000000000000b8 .LASF34
     /tmp/ccJvCpdX.s:803    .debug_str:00000000000000c0 .LASF35
     /tmp/ccJvCpdX.s:763    .debug_str:0000000000000005 .LASF36
     /tmp/ccJvCpdX.s:777    .debug_str:000000000000004a .LASF37
     /tmp/ccJvCpdX.s:793    .debug_str:0000000000000097 .LASF38
     /tmp/ccJvCpdX.s:833    .debug_str:000000000000015a .LASF40
     /tmp/ccJvCpdX.s:785    .debug_str:0000000000000071 .LASF41
     /tmp/ccJvCpdX.s:839    .debug_str:000000000000017e .LASF42
     /tmp/ccJvCpdX.s:823    .debug_str:0000000000000136 .LASF43
     /tmp/ccJvCpdX.s:845    .debug_str:0000000000000199 .LASF44
     /tmp/ccJvCpdX.s:861    .debug_str:0000000000000257 .LASF45
     /tmp/ccJvCpdX.s:761    .debug_str:0000000000000000 .LASF46
     /tmp/ccJvCpdX.s:815    .debug_str:0000000000000102 .LASF47
     /tmp/ccJvCpdX.s:819    .debug_str:000000000000011b .LASF48
     /tmp/ccJvCpdX.s:855    .debug_str:000000000000023d .LASF49
     /tmp/ccJvCpdX.s:837    .debug_str:0000000000000176 .LASF50
     /tmp/ccJvCpdX.s:851    .debug_str:000000000000022b .LASF51
     /tmp/ccJvCpdX.s:877    .debug_str:000000000000028e .LASF53
     /tmp/ccJvCpdX.s:108    .text._Z8sens_getv:0000000000000000 .LFB20
     /tmp/ccJvCpdX.s:155    .text._Z8sens_getv:0000000000000040 .LFE20
     /tmp/ccJvCpdX.s:829    .debug_str:0000000000000147 .LASF52
     /tmp/ccJvCpdX.s:787    .debug_str:0000000000000077 .LASF54
     /tmp/ccJvCpdX.s:87     .text._Z9btn_statev:0000000000000000 .LFB19
     /tmp/ccJvCpdX.s:101    .text._Z9btn_statev:0000000000000010 .LFE19
     /tmp/ccJvCpdX.s:831    .debug_str:0000000000000151 .LASF55
     /tmp/ccJvCpdX.s:835    .debug_str:0000000000000169 .LASF57
     /tmp/ccJvCpdX.s:69     .text._Z8pump_offv:0000000000000000 .LFB18
     /tmp/ccJvCpdX.s:80     .text._Z8pump_offv:000000000000000a .LFE18
     /tmp/ccJvCpdX.s:865    .debug_str:0000000000000262 .LASF56
     /tmp/ccJvCpdX.s:875    .debug_str:0000000000000282 .LASF58
     /tmp/ccJvCpdX.s:51     .text._Z7pump_onv:0000000000000000 .LFB17
     /tmp/ccJvCpdX.s:62     .text._Z7pump_onv:000000000000000a .LFE17
     /tmp/ccJvCpdX.s:783    .debug_str:0000000000000069 .LASF59
     /tmp/ccJvCpdX.s:817    .debug_str:000000000000010f .LASF60
     /tmp/ccJvCpdX.s:33     .text._Z7led_offv:0000000000000000 .LFB16
     /tmp/ccJvCpdX.s:44     .text._Z7led_offv:000000000000000a .LFE16
     /tmp/ccJvCpdX.s:843    .debug_str:0000000000000192 .LASF61
     /tmp/ccJvCpdX.s:767    .debug_str:0000000000000016 .LASF62
     /tmp/ccJvCpdX.s:14     .text._Z6led_onv:0000000000000000 .LFB15
     /tmp/ccJvCpdX.s:26     .text._Z6led_onv:000000000000000a .LFE15
     /tmp/ccJvCpdX.s:164    .debug_info:0000000000000000 .Ldebug_info0

NO UNDEFINED SYMBOLS
