GAS LISTING /tmp/ccb6PqEo.s 			page 1


   1              		.file	"main.cpp"
   2              		.option nopic
   3              		.attribute arch, "rv32e1p9_c2p0_zicsr"
   4              		.attribute unaligned_access, 0
   5              		.attribute stack_align, 4
   6              		.text
   7              	.Ltext0:
   8              		.file 0 "/home/ignat/projects/AutoWatering" "src/main.cpp"
   9              		.section	.text._Z10hexToASCIIPKhhPh,"ax",@progbits
  10              		.align	1
  11              		.globl	_Z10hexToASCIIPKhhPh
  13              	_Z10hexToASCIIPKhhPh:
  14              	.LFB15:
  15              		.file 1 "src/ASCII_fun.h"
   1:src/ASCII_fun.h **** #ifndef ASCII_FUN_H_
   2:src/ASCII_fun.h **** #define ASCII_FUN_H_
   3:src/ASCII_fun.h **** 
   4:src/ASCII_fun.h **** #include <stdint.h>
   5:src/ASCII_fun.h **** 
   6:src/ASCII_fun.h **** 
   7:src/ASCII_fun.h **** void hexToASCII(const uint8_t *data, uint8_t size, uint8_t *str) {
  16              		.loc 1 7 66
  17              		.cfi_startproc
  18              	.LVL0:
   8:src/ASCII_fun.h ****     uint8_t chr;
  19              		.loc 1 8 5
   9:src/ASCII_fun.h ****     for(int i = 0; i < size; i ++) {
  20              		.loc 1 9 5
  21              	.LBB46:
  22              		.loc 1 9 22
  23 0000 0506     		addi	a2,a2,1
  24              	.LVL1:
  25 0002 3303B500 		add	t1,a0,a1
  10:src/ASCII_fun.h ****         chr = data[i] >> 4;
  11:src/ASCII_fun.h ****         if(chr < 10)
  26              		.loc 1 11 9 is_stmt 0
  27 0006 A546     		li	a3,9
   9:src/ASCII_fun.h ****     for(int i = 0; i < size; i ++) {
  28              		.loc 1 9 22
  29 0008 9DC9     		beq	a1,zero,.L1
  30              	.LVL2:
  31              	.L7:
  10:src/ASCII_fun.h ****         chr = data[i] >> 4;
  32              		.loc 1 10 9 is_stmt 1
  12:src/ASCII_fun.h ****             str[i * 2] = '0' + chr;  // 0 - 9
  33              		.loc 1 12 13
  13:src/ASCII_fun.h ****         else
  14:src/ASCII_fun.h ****             str[i * 2] = 'A' + chr - 10;  // A - F
  15:src/ASCII_fun.h ****         chr = data[i] & 0x0F;
  16:src/ASCII_fun.h ****         if(chr < 10)
  17:src/ASCII_fun.h ****             str[i * 2 + 1] = '0' + chr;
  34              		.loc 1 17 13
  10:src/ASCII_fun.h ****         if(chr < 10)
  35              		.loc 1 10 13 is_stmt 0
  36 000a 83470500 		lbu	a5,0(a0)
  37 000e 9183     		srli	a5,a5,4
  38              	.LVL3:
GAS LISTING /tmp/ccb6PqEo.s 			page 2


  11:src/ASCII_fun.h ****             str[i * 2] = '0' + chr;  // 0 - 9
  39              		.loc 1 11 9 is_stmt 1
  14:src/ASCII_fun.h ****         chr = data[i] & 0x0F;
  40              		.loc 1 14 36 is_stmt 0
  41 0010 13877703 		addi	a4,a5,55
  11:src/ASCII_fun.h ****             str[i * 2] = '0' + chr;  // 0 - 9
  42              		.loc 1 11 9
  43 0014 63E4F600 		bgtu	a5,a3,.L4
  12:src/ASCII_fun.h ****         else
  44              		.loc 1 12 30
  45 0018 13870703 		addi	a4,a5,48
  46              	.L4:
  12:src/ASCII_fun.h ****         else
  47              		.loc 1 12 24
  48 001c A30FE6FE 		sb	a4,-1(a2)
  15:src/ASCII_fun.h ****         if(chr < 10)
  49              		.loc 1 15 9 is_stmt 1
  15:src/ASCII_fun.h ****         if(chr < 10)
  50              		.loc 1 15 13 is_stmt 0
  51 0020 83470500 		lbu	a5,0(a0)
  52              	.LVL4:
   9:src/ASCII_fun.h ****         chr = data[i] >> 4;
  53              		.loc 1 9 22
  54 0024 0505     		addi	a0,a0,1
  55              	.LVL5:
  15:src/ASCII_fun.h ****         if(chr < 10)
  56              		.loc 1 15 13
  57 0026 BD8B     		andi	a5,a5,15
  58              	.LVL6:
  16:src/ASCII_fun.h ****             str[i * 2 + 1] = '0' + chr;
  59              		.loc 1 16 9 is_stmt 1
  18:src/ASCII_fun.h ****         else
  19:src/ASCII_fun.h ****             str[i * 2 + 1] = 'A' + chr - 10;
  60              		.loc 1 19 40 is_stmt 0
  61 0028 13877703 		addi	a4,a5,55
  16:src/ASCII_fun.h ****             str[i * 2 + 1] = '0' + chr;
  62              		.loc 1 16 9
  63 002c 63E4F600 		bgtu	a5,a3,.L6
  17:src/ASCII_fun.h ****         else
  64              		.loc 1 17 34
  65 0030 13870703 		addi	a4,a5,48
  66              	.L6:
  17:src/ASCII_fun.h ****         else
  67              		.loc 1 17 28
  68 0034 2300E600 		sb	a4,0(a2)
   9:src/ASCII_fun.h ****         chr = data[i] >> 4;
  69              		.loc 1 9 5 is_stmt 1
  70              	.LVL7:
   9:src/ASCII_fun.h ****         chr = data[i] >> 4;
  71              		.loc 1 9 22
  72 0038 0906     		addi	a2,a2,2
  73 003a E31865FC 		bne	a0,t1,.L7
  74              	.LVL8:
  75              	.L1:
  76              	.LBE46:
  20:src/ASCII_fun.h ****     }
  21:src/ASCII_fun.h ****     return;
GAS LISTING /tmp/ccb6PqEo.s 			page 3


  22:src/ASCII_fun.h **** }
  77              		.loc 1 22 1 is_stmt 0
  78 003e 8280     		ret
  79              		.cfi_endproc
  80              	.LFE15:
  82              		.globl	__umodsi3
  83              		.globl	__modsi3
  84              		.globl	__udivsi3
  85              		.globl	__divsi3
  86              		.section	.text._Z10intToASCIIiPhh,"ax",@progbits
  87              		.align	1
  88              		.globl	_Z10intToASCIIiPhh
  90              	_Z10intToASCIIiPhh:
  91              	.LFB16:
  23:src/ASCII_fun.h **** void intToASCII(int val, uint8_t *str, uint8_t len) {
  92              		.loc 1 23 53 is_stmt 1
  93              		.cfi_startproc
  94              	.LVL9:
  95 0000 3111     		addi	sp,sp,-20
  96              		.cfi_def_cfa_offset 20
  97 0002 06C8     		sw	ra,16(sp)
  98 0004 22C6     		sw	s0,12(sp)
  99 0006 26C4     		sw	s1,8(sp)
 100              		.cfi_offset 1, -4
 101              		.cfi_offset 8, -8
 102              		.cfi_offset 9, -12
 103              		.loc 1 23 53 is_stmt 0
 104 0008 2EC0     		sw	a1,0(sp)
 105 000a AA87     		mv	a5,a0
  24:src/ASCII_fun.h ****     int sign = 0;
 106              		.loc 1 24 5 is_stmt 1
 107              	.LVL10:
  25:src/ASCII_fun.h ****     int i = len - 1;
 108              		.loc 1 25 5
  26:src/ASCII_fun.h ****     if(val == 0) {
 109              		.loc 1 26 5
 110 000c 59E1     		bne	a0,zero,.L13
  27:src/ASCII_fun.h ****         str[len - 1] = '0';
 111              		.loc 1 27 9
 112              		.loc 1 27 22 is_stmt 0
 113 000e 93060003 		li	a3,48
 114 0012 3387C500 		add	a4,a1,a2
 115 0016 A30FD7FE 		sb	a3,-1(a4)
  28:src/ASCII_fun.h ****         i --;
 116              		.loc 1 28 9 is_stmt 1
  24:src/ASCII_fun.h ****     int i = len - 1;
 117              		.loc 1 24 9 is_stmt 0
 118 001a 8144     		li	s1,0
 119              		.loc 1 28 11
 120 001c 9306E6FF 		addi	a3,a2,-2
 121              	.LVL11:
  29:src/ASCII_fun.h ****     }
  30:src/ASCII_fun.h ****     if(val < 0) {
 122              		.loc 1 30 5 is_stmt 1
 123              	.L15:
  31:src/ASCII_fun.h ****         sign = 1;
  32:src/ASCII_fun.h ****         val *= -1;
GAS LISTING /tmp/ccb6PqEo.s 			page 4


  33:src/ASCII_fun.h ****     }
  34:src/ASCII_fun.h ****     for(; i >= 0; i --) {
 124              		.loc 1 34 13 discriminator 1
 125 0020 0247     		lw	a4,0(sp)
 126 0022 3304D700 		add	s0,a4,a3
 127 0026 63DF0602 		bge	a3,zero,.L19
 128 002a 99A8     		j	.L12
 129              	.LVL12:
 130              	.L26:
  35:src/ASCII_fun.h ****         if(val + sign > 0) {
  36:src/ASCII_fun.h ****             if(val == 0) {
  37:src/ASCII_fun.h ****                 str[i] = '-';
  38:src/ASCII_fun.h ****                 sign = 0;
  39:src/ASCII_fun.h ****             }
  40:src/ASCII_fun.h ****             else {
  41:src/ASCII_fun.h ****                 str[i] = '0' + (val % 10);
 131              		.loc 1 41 17
 132              		.loc 1 41 37 is_stmt 0
 133 002c A945     		li	a1,10
 134 002e 3E85     		mv	a0,a5
  36:src/ASCII_fun.h ****                 str[i] = '-';
 135              		.loc 1 36 13
 136 0030 A9CF     		beq	a5,zero,.L22
 137              	.LVL13:
 138 0032 3EC2     		sw	a5,4(sp)
 139              		.loc 1 41 37
 140 0034 97000000 		call	__modsi3
 140      E7800000 
 141              	.LVL14:
 142 003c 9247     		lw	a5,4(sp)
 143              		.loc 1 41 30
 144 003e 93060503 		addi	a3,a0,48
 145 0042 93F6F60F 		andi	a3,a3,0xff
 146              	.LVL15:
 147              	.L17:
  42:src/ASCII_fun.h ****             }
  43:src/ASCII_fun.h ****             val /= 10;
 148              		.loc 1 43 17
 149 0046 3E85     		mv	a0,a5
  37:src/ASCII_fun.h ****                 sign = 0;
 150              		.loc 1 37 24
 151 0048 2300D400 		sb	a3,0(s0)
 152              	.LVL16:
 153              		.loc 1 43 13 is_stmt 1
 154              		.loc 1 43 17 is_stmt 0
 155 004c A945     		li	a1,10
 156 004e 97000000 		call	__divsi3
 156      E7800000 
 157              	.LVL17:
  34:src/ASCII_fun.h ****         if(val + sign > 0) {
 158              		.loc 1 34 13
 159 0056 0247     		lw	a4,0(sp)
 160              		.loc 1 43 17
 161 0058 AA87     		mv	a5,a0
 162              	.LVL18:
  34:src/ASCII_fun.h ****         if(val + sign > 0) {
 163              		.loc 1 34 5 is_stmt 1
GAS LISTING /tmp/ccb6PqEo.s 			page 5


  34:src/ASCII_fun.h ****         if(val + sign > 0) {
 164              		.loc 1 34 13
 165 005a 9306F4FF 		addi	a3,s0,-1
 166 005e 63018702 		beq	a4,s0,.L12
 167              	.LVL19:
 168              	.L23:
 169 0062 3684     		mv	s0,a3
 170              	.L19:
 171              	.LVL20:
  35:src/ASCII_fun.h ****             if(val == 0) {
 172              		.loc 1 35 9
  36:src/ASCII_fun.h ****                 str[i] = '-';
 173              		.loc 1 36 13
  44:src/ASCII_fun.h ****         }
  45:src/ASCII_fun.h ****         else {
  46:src/ASCII_fun.h ****             str[i] = ' ';
 174              		.loc 1 46 13
  35:src/ASCII_fun.h ****             if(val == 0) {
 175              		.loc 1 35 16 is_stmt 0
 176 0064 B3869700 		add	a3,a5,s1
  35:src/ASCII_fun.h ****             if(val == 0) {
 177              		.loc 1 35 9
 178 0068 F1F2     		bne	a3,zero,.L26
  34:src/ASCII_fun.h ****         if(val + sign > 0) {
 179              		.loc 1 34 13
 180 006a 0247     		lw	a4,0(sp)
 181              		.loc 1 46 20
 182 006c 93070002 		li	a5,32
 183 0070 2300F400 		sb	a5,0(s0)
 184 0074 8144     		li	s1,0
 185 0076 8147     		li	a5,0
 186              	.LVL21:
  34:src/ASCII_fun.h ****         if(val + sign > 0) {
 187              		.loc 1 34 5 is_stmt 1
  34:src/ASCII_fun.h ****         if(val + sign > 0) {
 188              		.loc 1 34 13
 189 0078 9306F4FF 		addi	a3,s0,-1
 190 007c E31387FE 		bne	a4,s0,.L23
 191              	.LVL22:
 192              	.L12:
  47:src/ASCII_fun.h ****         }
  48:src/ASCII_fun.h ****     }
  49:src/ASCII_fun.h ****     return;
  50:src/ASCII_fun.h **** }
 193              		.loc 1 50 1 is_stmt 0
 194 0080 C240     		lw	ra,16(sp)
 195              		.cfi_remember_state
 196              		.cfi_restore 1
 197 0082 3244     		lw	s0,12(sp)
 198              		.cfi_restore 8
 199 0084 A244     		lw	s1,8(sp)
 200              		.cfi_restore 9
 201              	.LVL23:
 202 0086 5101     		addi	sp,sp,20
 203              		.cfi_def_cfa_offset 0
 204              	.LVL24:
 205 0088 8280     		jr	ra
GAS LISTING /tmp/ccb6PqEo.s 			page 6


 206              	.LVL25:
 207              	.L22:
 208              		.cfi_restore_state
  36:src/ASCII_fun.h ****                 str[i] = '-';
 209              		.loc 1 36 13
 210 008a 9306D002 		li	a3,45
  38:src/ASCII_fun.h ****             }
 211              		.loc 1 38 22
 212 008e 8144     		li	s1,0
 213              	.LVL26:
 214 0090 5DBF     		j	.L17
 215              	.LVL27:
 216              	.L13:
 217 0092 9306F6FF 		addi	a3,a2,-1
 218              	.LVL28:
  30:src/ASCII_fun.h ****         sign = 1;
 219              		.loc 1 30 5 is_stmt 1
  24:src/ASCII_fun.h ****     int i = len - 1;
 220              		.loc 1 24 9 is_stmt 0
 221 0096 8144     		li	s1,0
  30:src/ASCII_fun.h ****         sign = 1;
 222              		.loc 1 30 5
 223 0098 E35405F8 		bge	a0,zero,.L15
  31:src/ASCII_fun.h ****         val *= -1;
 224              		.loc 1 31 9 is_stmt 1
 225              	.LVL29:
  32:src/ASCII_fun.h ****     }
 226              		.loc 1 32 9
  32:src/ASCII_fun.h ****     }
 227              		.loc 1 32 13 is_stmt 0
 228 009c B307A040 		neg	a5,a0
 229              	.LVL30:
  31:src/ASCII_fun.h ****         val *= -1;
 230              		.loc 1 31 14
 231 00a0 8544     		li	s1,1
 232 00a2 BDBF     		j	.L15
 233              		.cfi_endproc
 234              	.LFE16:
 236              		.globl	__mulsi3
 237              		.section	.text._Z10ASCIIToIntPKhh,"ax",@progbits
 238              		.align	1
 239              		.globl	_Z10ASCIIToIntPKhh
 241              	_Z10ASCIIToIntPKhh:
 242              	.LFB17:
  51:src/ASCII_fun.h **** int ASCIIToInt(const uint8_t *str, uint8_t len) {
 243              		.loc 1 51 49 is_stmt 1
 244              		.cfi_startproc
 245              	.LVL31:
  52:src/ASCII_fun.h ****     int res = 0, sign = 1, tmp;
 246              		.loc 1 52 5
  53:src/ASCII_fun.h ****     for(int i = 0; i < len; i ++) {
 247              		.loc 1 53 5
 248              	.LBB47:
 249              		.loc 1 53 22
 250 0000 A5C9     		beq	a1,zero,.L33
 251              	.LBE47:
  51:src/ASCII_fun.h **** int ASCIIToInt(const uint8_t *str, uint8_t len) {
GAS LISTING /tmp/ccb6PqEo.s 			page 7


 252              		.loc 1 51 49 is_stmt 0
 253 0002 5111     		addi	sp,sp,-12
 254              		.cfi_def_cfa_offset 12
 255 0004 3306B500 		add	a2,a0,a1
 256 0008 2A87     		mv	a4,a0
 257 000a 06C4     		sw	ra,8(sp)
 258              		.cfi_offset 1, -4
  52:src/ASCII_fun.h ****     int res = 0, sign = 1, tmp;
 259              		.loc 1 52 18
 260 000c 0545     		li	a0,1
 261              	.LVL32:
  52:src/ASCII_fun.h ****     int res = 0, sign = 1, tmp;
 262              		.loc 1 52 9
 263 000e 8145     		li	a1,0
 264              	.LVL33:
 265              	.LBB48:
  54:src/ASCII_fun.h ****         if(str[i] == '-') {
 266              		.loc 1 54 9
 267 0010 1303D002 		li	t1,45
  55:src/ASCII_fun.h ****             sign = -1;
  56:src/ASCII_fun.h ****             tmp = 0;
  57:src/ASCII_fun.h ****         }
  58:src/ASCII_fun.h ****         else if(str[i] == ' ') {
 268              		.loc 1 58 14
 269 0014 93020002 		li	t0,32
  59:src/ASCII_fun.h ****             tmp = 0;
  60:src/ASCII_fun.h ****         }
  61:src/ASCII_fun.h ****         else if(str[i] < '0' || str[i] > '9') {
 270              		.loc 1 61 14
 271 0018 A543     		li	t2,9
 272 001a 39A8     		j	.L32
 273              	.LVL34:
 274              	.L42:
  58:src/ASCII_fun.h ****             tmp = 0;
 275              		.loc 1 58 14
 276 001c 63885604 		beq	a3,t0,.L35
 277              		.loc 1 61 14
 278 0020 63EF1302 		bgtu	ra,t2,.L41
  62:src/ASCII_fun.h ****             return res * sign;
  63:src/ASCII_fun.h ****         }
  64:src/ASCII_fun.h ****         else {
  65:src/ASCII_fun.h ****             tmp = str[i] - '0';
 279              		.loc 1 65 17
 280 0024 BE86     		mv	a3,a5
 281              	.LVL35:
 282              	.L29:
  66:src/ASCII_fun.h ****         }
  67:src/ASCII_fun.h ****         res = res * 10 + tmp;
 283              		.loc 1 67 9 is_stmt 1 discriminator 2
 284              		.loc 1 67 19 is_stmt 0 discriminator 2
 285 0026 93972500 		slli	a5,a1,2
 286 002a AE97     		add	a5,a5,a1
 287 002c 8607     		slli	a5,a5,1
  53:src/ASCII_fun.h ****         if(str[i] == '-') {
 288              		.loc 1 53 22 discriminator 2
 289 002e 0507     		addi	a4,a4,1
 290              	.LVL36:
GAS LISTING /tmp/ccb6PqEo.s 			page 8


 291              		.loc 1 67 13 discriminator 2
 292 0030 B385D700 		add	a1,a5,a3
 293              	.LVL37:
  53:src/ASCII_fun.h ****         if(str[i] == '-') {
 294              		.loc 1 53 5 is_stmt 1 discriminator 2
  53:src/ASCII_fun.h ****         if(str[i] == '-') {
 295              		.loc 1 53 22 discriminator 2
 296 0034 6305C702 		beq	a4,a2,.L41
 297              	.LVL38:
 298              	.L32:
  54:src/ASCII_fun.h ****             sign = -1;
 299              		.loc 1 54 9
  58:src/ASCII_fun.h ****             tmp = 0;
 300              		.loc 1 58 14
  61:src/ASCII_fun.h ****             return res * sign;
 301              		.loc 1 61 14
  65:src/ASCII_fun.h ****         }
 302              		.loc 1 65 13
  54:src/ASCII_fun.h ****             sign = -1;
 303              		.loc 1 54 17 is_stmt 0
 304 0038 83460700 		lbu	a3,0(a4)
  61:src/ASCII_fun.h ****             return res * sign;
 305              		.loc 1 61 30
 306 003c 938706FD 		addi	a5,a3,-48
  61:src/ASCII_fun.h ****             return res * sign;
 307              		.loc 1 61 14
 308 0040 93F0F70F 		andi	ra,a5,0xff
  54:src/ASCII_fun.h ****             sign = -1;
 309              		.loc 1 54 9
 310 0044 E39C66FC 		bne	a3,t1,.L42
 311              		.loc 1 67 19
 312 0048 93972500 		slli	a5,a1,2
 313 004c AE97     		add	a5,a5,a1
  56:src/ASCII_fun.h ****         }
 314              		.loc 1 56 17
 315 004e 8146     		li	a3,0
 316              		.loc 1 67 19
 317 0050 8607     		slli	a5,a5,1
  53:src/ASCII_fun.h ****         if(str[i] == '-') {
 318              		.loc 1 53 22
 319 0052 0507     		addi	a4,a4,1
 320              	.LVL39:
  55:src/ASCII_fun.h ****             tmp = 0;
 321              		.loc 1 55 18
 322 0054 7D55     		li	a0,-1
 323              	.LVL40:
 324              		.loc 1 67 9 is_stmt 1
 325              		.loc 1 67 13 is_stmt 0
 326 0056 B385D700 		add	a1,a5,a3
 327              	.LVL41:
  53:src/ASCII_fun.h ****         if(str[i] == '-') {
 328              		.loc 1 53 5 is_stmt 1
  53:src/ASCII_fun.h ****         if(str[i] == '-') {
 329              		.loc 1 53 22
 330 005a E31FC7FC 		bne	a4,a2,.L32
 331              	.LVL42:
 332              	.L41:
GAS LISTING /tmp/ccb6PqEo.s 			page 9


 333              	.LBE48:
  68:src/ASCII_fun.h ****     }
  69:src/ASCII_fun.h ****     return res * sign;
 334              		.loc 1 69 18 is_stmt 0
 335 005e 97000000 		call	__mulsi3
 335      E7800000 
 336              	.LVL43:
  70:src/ASCII_fun.h **** }
 337              		.loc 1 70 1
 338 0066 A240     		lw	ra,8(sp)
 339              		.cfi_remember_state
 340              		.cfi_restore 1
 341 0068 3101     		addi	sp,sp,12
 342              		.cfi_def_cfa_offset 0
 343 006a 8280     		jr	ra
 344              	.LVL44:
 345              	.L35:
 346              		.cfi_restore_state
 347              	.LBB49:
  59:src/ASCII_fun.h ****         }
 348              		.loc 1 59 17
 349 006c 8146     		li	a3,0
 350 006e 65BF     		j	.L29
 351              	.LVL45:
 352              	.L33:
 353              		.cfi_def_cfa_offset 0
 354              		.cfi_restore 1
  53:src/ASCII_fun.h ****         if(str[i] == '-') {
 355              		.loc 1 53 22
 356 0070 0145     		li	a0,0
 357              	.LVL46:
 358              	.LBE49:
  69:src/ASCII_fun.h **** }
 359              		.loc 1 69 5 is_stmt 1
 360              		.loc 1 70 1 is_stmt 0
 361 0072 8280     		ret
 362              		.cfi_endproc
 363              	.LFE17:
 365              		.section	.text._Z6str_eqPKhS0_h,"ax",@progbits
 366              		.align	1
 367              		.globl	_Z6str_eqPKhS0_h
 369              	_Z6str_eqPKhS0_h:
 370              	.LFB18:
  71:src/ASCII_fun.h **** 
  72:src/ASCII_fun.h **** bool str_eq(const uint8_t *str1, const uint8_t *str2, uint8_t len) {
 371              		.loc 1 72 68 is_stmt 1
 372              		.cfi_startproc
 373              	.LVL47:
  73:src/ASCII_fun.h ****     for(uint8_t i = 0; i < len; i ++) {
 374              		.loc 1 73 5
 375              	.LBB50:
 376              		.loc 1 73 26
 377 0000 19CE     		beq	a2,zero,.L46
 378 0002 2A96     		add	a2,a0,a2
 379              	.LVL48:
 380 0004 19A0     		j	.L45
 381              	.LVL49:
GAS LISTING /tmp/ccb6PqEo.s 			page 10


 382              	.L49:
 383              		.loc 1 73 26 is_stmt 0 discriminator 2
 384 0006 630CC500 		beq	a0,a2,.L46
 385              	.LVL50:
 386              	.L45:
  74:src/ASCII_fun.h ****         if(str1[i] != str2[i]) {
 387              		.loc 1 74 9 is_stmt 1
  73:src/ASCII_fun.h ****     for(uint8_t i = 0; i < len; i ++) {
 388              		.loc 1 73 5
  73:src/ASCII_fun.h ****     for(uint8_t i = 0; i < len; i ++) {
 389              		.loc 1 73 26
 390              		.loc 1 74 9 is_stmt 0
 391 000a 03470500 		lbu	a4,0(a0)
 392 000e 83C70500 		lbu	a5,0(a1)
  73:src/ASCII_fun.h ****     for(uint8_t i = 0; i < len; i ++) {
 393              		.loc 1 73 26
 394 0012 0505     		addi	a0,a0,1
 395              	.LVL51:
 396 0014 8505     		addi	a1,a1,1
 397              		.loc 1 74 9
 398 0016 E308F7FE 		beq	a4,a5,.L49
  75:src/ASCII_fun.h ****             return false;
 399              		.loc 1 75 20
 400 001a 0145     		li	a0,0
 401              	.LBE50:
  76:src/ASCII_fun.h ****         }
  77:src/ASCII_fun.h ****     }
  78:src/ASCII_fun.h ****     return true;
  79:src/ASCII_fun.h **** }
 402              		.loc 1 79 1
 403 001c 8280     		ret
 404              	.LVL52:
 405              	.L46:
  78:src/ASCII_fun.h **** }
 406              		.loc 1 78 12
 407 001e 0545     		li	a0,1
 408 0020 8280     		ret
 409              		.cfi_endproc
 410              	.LFE18:
 412              		.section	.text._Z6delayTm,"ax",@progbits
 413              		.align	1
 414              		.globl	_Z6delayTm
 416              	_Z6delayTm:
 417              	.LFB19:
 418              		.file 2 "src/main.cpp"
   1:src/main.cpp  **** /* configurations */
   2:src/main.cpp  **** #ifndef AWTR_UPDATE_TIME
   3:src/main.cpp  **** #define AWTR_UPDATE_TIME 12   // [1 - 40 hours]
   4:src/main.cpp  **** #endif
   5:src/main.cpp  **** #ifndef AWTR_WATERING_DUR
   6:src/main.cpp  **** #define AWTR_WATERING_DUR 2000   // [ms]
   7:src/main.cpp  **** #endif
   8:src/main.cpp  **** 
   9:src/main.cpp  **** /* clock preferences. Don't change thoughtlessly! */
  10:src/main.cpp  **** #define F_HBCLK 187500
  11:src/main.cpp  **** #define UART_BAUDRATE 4800
  12:src/main.cpp  **** 
GAS LISTING /tmp/ccb6PqEo.s 			page 11


  13:src/main.cpp  **** #define MS_TO_TICKS(ms) ((uint32_t)(ms) * (F_HBCLK / 8000))
  14:src/main.cpp  **** #define TIMER_UPDATE MS_TO_TICKS(AWTR_UPDATE_TIME * 3600 * 1000)
  15:src/main.cpp  **** 
  16:src/main.cpp  **** /* Includes */
  17:src/main.cpp  **** #include <ch32v00x.h>
  18:src/main.cpp  **** #include <uart.h>
  19:src/main.cpp  **** #include "GPIO.h"
  20:src/main.cpp  **** #include "ASCII_fun.h"
  21:src/main.cpp  **** 
  22:src/main.cpp  **** /* Global Variable */
  23:src/main.cpp  **** enum awtr_state_t {
  24:src/main.cpp  **** 	waiting,
  25:src/main.cpp  **** 	click,
  26:src/main.cpp  **** 	hold,
  27:src/main.cpp  **** 	long_hold,
  28:src/main.cpp  **** 	toSleep,
  29:src/main.cpp  **** };
  30:src/main.cpp  **** volatile awtr_state_t awtr_state;
  31:src/main.cpp  **** uint8_t sens_val = 0;
  32:src/main.cpp  **** uint8_t sens_val_border = 50;
  33:src/main.cpp  **** #define BORDER ((uint32_t*)0x08003FC0)
  34:src/main.cpp  **** 
  35:src/main.cpp  **** uart uart1(USART1, UART_BAUDRATE, F_HBCLK);
  36:src/main.cpp  **** uint8_t msg_click_dry[] = "Ground is dry: XXX\n";
  37:src/main.cpp  **** uint8_t msg_click_wet[] = "Ground is wet: XXX\n";
  38:src/main.cpp  **** uint8_t msg_hold[] = "(X) sens border: XXX\n";
  39:src/main.cpp  **** uint8_t msg_lhold[] = "Sensor value: XXX\n";
  40:src/main.cpp  **** 
  41:src/main.cpp  **** /* Program */
  42:src/main.cpp  **** void delayT(uint32_t val) {       // [val] ~= 0.042 sec
 419              		.loc 2 42 27 is_stmt 1
 420              		.cfi_startproc
 421              	.LVL53:
  43:src/main.cpp  **** 	uint32_t cnt_prev, cnt_cur;
 422              		.loc 2 43 2
  44:src/main.cpp  **** 	cnt_prev = SysTick->CNT;
 423              		.loc 2 44 2
 424              		.loc 2 44 11 is_stmt 0
 425 0000 37F700E0 		li	a4,-536809472
 426 0004 1C47     		lw	a5,8(a4)
 427              	.LVL54:
  45:src/main.cpp  **** 	cnt_cur = SysTick->CNT;
 428              		.loc 2 45 2 is_stmt 1
 429              		.loc 2 45 10 is_stmt 0
 430 0006 1847     		lw	a4,8(a4)
 431              	.LVL55:
  46:src/main.cpp  **** 	while(cnt_cur < cnt_prev + val) {
 432              		.loc 2 46 2 is_stmt 1
 433              		.loc 2 46 16
 434              		.loc 2 46 27 is_stmt 0
 435 0008 3E95     		add	a0,a5,a0
 436              	.LVL56:
 437              		.loc 2 46 16
 438 000a 6377A700 		bgeu	a4,a0,.L50
  47:src/main.cpp  **** 		cnt_cur = SysTick->CNT;
 439              		.loc 2 47 11
 440 000e 37F700E0 		li	a4,-536809472
GAS LISTING /tmp/ccb6PqEo.s 			page 12


 441              	.LVL57:
 442              	.L52:
 443              		.loc 2 47 3 is_stmt 1
 444              		.loc 2 47 11 is_stmt 0
 445 0012 1C47     		lw	a5,8(a4)
 446              	.LVL58:
  46:src/main.cpp  **** 	while(cnt_cur < cnt_prev + val) {
 447              		.loc 2 46 16 is_stmt 1
 448 0014 E3EFA7FE 		bltu	a5,a0,.L52
 449              	.LVL59:
 450              	.L50:
  48:src/main.cpp  **** 	}
  49:src/main.cpp  **** 	return;
  50:src/main.cpp  **** }
 451              		.loc 2 50 1 is_stmt 0
 452 0018 8280     		ret
 453              		.cfi_endproc
 454              	.LFE19:
 456              		.section	.text._Z9flash_getv,"ax",@progbits
 457              		.align	1
 458              		.globl	_Z9flash_getv
 460              	_Z9flash_getv:
 461              	.LFB20:
  51:src/main.cpp  **** 
  52:src/main.cpp  **** uint8_t flash_get() {
 462              		.loc 2 52 21 is_stmt 1
 463              		.cfi_startproc
  53:src/main.cpp  **** 	return *BORDER;
 464              		.loc 2 53 2
 465              		.loc 2 53 9 is_stmt 0
 466 0000 B7470008 		li	a5,134234112
  54:src/main.cpp  **** }
 467              		.loc 2 54 1
 468 0004 03C507FC 		lbu	a0,-64(a5)
 469 0008 8280     		ret
 470              		.cfi_endproc
 471              	.LFE20:
 473              		.section	.text._Z10flash_saveh,"ax",@progbits
 474              		.align	1
 475              		.globl	_Z10flash_saveh
 477              	_Z10flash_saveh:
 478              	.LFB21:
  55:src/main.cpp  **** uint8_t flash_save(uint8_t data) {
 479              		.loc 2 55 34 is_stmt 1
 480              		.cfi_startproc
 481              	.LVL60:
  56:src/main.cpp  **** 	__disable_irq();
 482              		.loc 2 56 2
 483              	.LBB51:
 484              	.LBB52:
 485              		.file 3 "src/core/core_riscv.h"
   1:src/core/core_riscv.h **** /********************************** (C) COPYRIGHT  *******************************
   2:src/core/core_riscv.h ****  * File Name          : ch32v00x.h
   3:src/core/core_riscv.h ****  * Author             : Shaperon
   4:src/core/core_riscv.h ****  * Version            : V1.0
   5:src/core/core_riscv.h ****  * Date               : 14/06/2026
   6:src/core/core_riscv.h ****  * Description        : CH32V00x Modified file
GAS LISTING /tmp/ccb6PqEo.s 			page 13


   7:src/core/core_riscv.h ****  *********************************************************************************
   8:src/core/core_riscv.h ****  * The original file was most likely copied from another chip somewhere 
   9:src/core/core_riscv.h ****  * does not match the datasheet, so I redid it.
  10:src/core/core_riscv.h ****  * P.S. I also cleaned up a bit of the junk, so this
  11:src/core/core_riscv.h ****  * **NOT INTERCHANGEABLE with the official SDK and SPL**
  12:src/core/core_riscv.h ****  * 
  13:src/core/core_riscv.h ****  * Оригинальный файл скорее всего скопипащен с другого
  14:src/core/core_riscv.h ****  * несоответствует даташиту, поэтому я его переделал.
  15:src/core/core_riscv.h ****  * p.s. Я в целом еще немного мусора почистил, так что это 
  16:src/core/core_riscv.h ****  * **НЕ ВЗАИМОЗАМЕНЯЕМО с оф. SDK и SPL** 
  17:src/core/core_riscv.h ****  *******************************************************************************/
  18:src/core/core_riscv.h **** #ifndef __CORE_RISCV_H__
  19:src/core/core_riscv.h **** #define __CORE_RISCV_H__
  20:src/core/core_riscv.h **** 
  21:src/core/core_riscv.h **** #ifdef __cplusplus
  22:src/core/core_riscv.h ****  extern "C" {
  23:src/core/core_riscv.h **** #endif
  24:src/core/core_riscv.h **** 
  25:src/core/core_riscv.h **** /* IO definitions */
  26:src/core/core_riscv.h **** #ifdef __cplusplus
  27:src/core/core_riscv.h ****   #define     __I     volatile                /*!< defines 'read only' permissions      */
  28:src/core/core_riscv.h **** #else
  29:src/core/core_riscv.h ****   #define     __I     volatile const          /*!< defines 'read only' permissions     */
  30:src/core/core_riscv.h **** #endif
  31:src/core/core_riscv.h **** #define     __O     volatile                  /*!< defines 'write only' permissions     */
  32:src/core/core_riscv.h **** #define     __IO    volatile                  /*!< defines 'read / write' permissions   */
  33:src/core/core_riscv.h **** 
  34:src/core/core_riscv.h **** /* Standard Peripheral Library old types (maintained for legacy purpose) */
  35:src/core/core_riscv.h **** typedef __I uint32_t vuc32;  /* Read Only */
  36:src/core/core_riscv.h **** typedef __I uint16_t vuc16;  /* Read Only */
  37:src/core/core_riscv.h **** typedef __I uint8_t vuc8;   /* Read Only */
  38:src/core/core_riscv.h **** 
  39:src/core/core_riscv.h **** typedef const uint32_t uc32;  /* Read Only */
  40:src/core/core_riscv.h **** typedef const uint16_t uc16;  /* Read Only */
  41:src/core/core_riscv.h **** typedef const uint8_t uc8;   /* Read Only */
  42:src/core/core_riscv.h **** 
  43:src/core/core_riscv.h **** typedef __I int32_t vsc32;  /* Read Only */
  44:src/core/core_riscv.h **** typedef __I int16_t vsc16;  /* Read Only */
  45:src/core/core_riscv.h **** typedef __I int8_t vsc8;   /* Read Only */
  46:src/core/core_riscv.h **** 
  47:src/core/core_riscv.h **** typedef const int32_t sc32;  /* Read Only */
  48:src/core/core_riscv.h **** typedef const int16_t sc16;  /* Read Only */
  49:src/core/core_riscv.h **** typedef const int8_t sc8;   /* Read Only */
  50:src/core/core_riscv.h **** 
  51:src/core/core_riscv.h **** typedef __IO uint32_t  vu32;
  52:src/core/core_riscv.h **** typedef __IO uint16_t vu16;
  53:src/core/core_riscv.h **** typedef __IO uint8_t  vu8;
  54:src/core/core_riscv.h **** 
  55:src/core/core_riscv.h **** typedef uint32_t  u32;
  56:src/core/core_riscv.h **** typedef uint16_t u16;
  57:src/core/core_riscv.h **** typedef uint8_t  u8;
  58:src/core/core_riscv.h **** 
  59:src/core/core_riscv.h **** typedef __IO int32_t  vs32;
  60:src/core/core_riscv.h **** typedef __IO int16_t  vs16;
  61:src/core/core_riscv.h **** typedef __IO int8_t   vs8;
  62:src/core/core_riscv.h **** 
  63:src/core/core_riscv.h **** typedef int32_t  s32;
GAS LISTING /tmp/ccb6PqEo.s 			page 14


  64:src/core/core_riscv.h **** typedef int16_t s16;
  65:src/core/core_riscv.h **** typedef int8_t  s8;
  66:src/core/core_riscv.h **** 
  67:src/core/core_riscv.h **** typedef enum {NoREADY = 0, READY = !NoREADY} ErrorStatus;
  68:src/core/core_riscv.h **** 
  69:src/core/core_riscv.h **** typedef enum {DISABLE = 0, ENABLE = !DISABLE} FunctionalState;
  70:src/core/core_riscv.h **** 
  71:src/core/core_riscv.h **** typedef enum {RESET = 0, SET = !RESET} FlagStatus, ITStatus;
  72:src/core/core_riscv.h **** 
  73:src/core/core_riscv.h **** #define   RV_STATIC_INLINE  static  inline
  74:src/core/core_riscv.h **** 
  75:src/core/core_riscv.h **** /* memory mapped structure for Program Fast Interrupt Controller (PFIC) */
  76:src/core/core_riscv.h **** typedef struct{
  77:src/core/core_riscv.h ****     __I  uint32_t ISR[8];
  78:src/core/core_riscv.h ****     __I  uint32_t IPR[8];
  79:src/core/core_riscv.h ****     __IO uint32_t ITHRESDR;
  80:src/core/core_riscv.h ****     __IO uint32_t RESERVED;
  81:src/core/core_riscv.h ****     __IO uint32_t CFGR;
  82:src/core/core_riscv.h ****     __I  uint32_t GISR;
  83:src/core/core_riscv.h ****     __IO uint8_t VTFIDR[4];
  84:src/core/core_riscv.h ****     uint8_t RESERVED0[12];
  85:src/core/core_riscv.h ****     __IO uint32_t VTFADDR[4];
  86:src/core/core_riscv.h ****     uint8_t RESERVED1[0x90];
  87:src/core/core_riscv.h ****     __O  uint32_t IENR[8];
  88:src/core/core_riscv.h ****     uint8_t RESERVED2[0x60];
  89:src/core/core_riscv.h ****     __O  uint32_t IRER[8];
  90:src/core/core_riscv.h ****     uint8_t RESERVED3[0x60];
  91:src/core/core_riscv.h ****     __O  uint32_t IPSR[8];
  92:src/core/core_riscv.h ****     uint8_t RESERVED4[0x60];
  93:src/core/core_riscv.h ****     __O  uint32_t IPRR[8];
  94:src/core/core_riscv.h ****     uint8_t RESERVED5[0x60];
  95:src/core/core_riscv.h ****     __IO uint32_t IACTR[8];
  96:src/core/core_riscv.h ****     uint8_t RESERVED6[0xE0];
  97:src/core/core_riscv.h ****     __IO uint8_t IPRIOR[256];
  98:src/core/core_riscv.h ****     uint8_t RESERVED7[0x810];
  99:src/core/core_riscv.h ****     __IO uint32_t SCTLR;
 100:src/core/core_riscv.h **** }PFIC_Type;
 101:src/core/core_riscv.h **** 
 102:src/core/core_riscv.h **** /* memory mapped structure for SysTick */
 103:src/core/core_riscv.h **** typedef struct
 104:src/core/core_riscv.h **** {
 105:src/core/core_riscv.h ****     __IO uint32_t CTLR;
 106:src/core/core_riscv.h ****     __IO uint32_t SR;
 107:src/core/core_riscv.h ****     __IO uint32_t CNT;
 108:src/core/core_riscv.h ****     uint32_t RESERVED0;
 109:src/core/core_riscv.h ****     __IO uint32_t CMP;
 110:src/core/core_riscv.h ****     uint32_t RESERVED1;
 111:src/core/core_riscv.h **** }SysTick_Type;
 112:src/core/core_riscv.h **** 
 113:src/core/core_riscv.h **** 
 114:src/core/core_riscv.h **** #define PFIC            ((PFIC_Type *) 0xE000E000 )
 115:src/core/core_riscv.h **** #define NVIC            PFIC
 116:src/core/core_riscv.h **** #define NVIC_KEY1       ((uint32_t)0xFA050000)
 117:src/core/core_riscv.h **** #define	NVIC_KEY2	    ((uint32_t)0xBCAF0000)
 118:src/core/core_riscv.h **** #define	NVIC_KEY3		((uint32_t)0xBEEF0000)
 119:src/core/core_riscv.h **** 
 120:src/core/core_riscv.h **** #define SysTick         ((SysTick_Type *) 0xE000F000)
GAS LISTING /tmp/ccb6PqEo.s 			page 15


 121:src/core/core_riscv.h **** /******************* SysTick Control Register *******************/
 122:src/core/core_riscv.h **** #define STK_STE         (uint32_t)0x00000001   //SysTick enable
 123:src/core/core_riscv.h **** #define STK_STIE        (uint32_t)0x00000002   //interrupt enable
 124:src/core/core_riscv.h **** #define STK_STCLK       (uint32_t)0x00000004   //prescaller
 125:src/core/core_riscv.h ****                                                //0 - HBCLK/8; 1 - HBCLK
 126:src/core/core_riscv.h **** #define STK_STRE        (uint32_t)0x00000008   //Auto-reload enable
 127:src/core/core_riscv.h ****                                                //0 - without; 1 - with
 128:src/core/core_riscv.h **** #define STK_SWIE        (uint32_t)0x80000000   //Software interrupt trigger enable
 129:src/core/core_riscv.h **** /******************* SysTick Status Register *******************/
 130:src/core/core_riscv.h **** #define STK_CNTIF       (uint32_t)0x00000001   //Comparison flag
 131:src/core/core_riscv.h **** 
 132:src/core/core_riscv.h **** 
 133:src/core/core_riscv.h **** /*********************************************************************
 134:src/core/core_riscv.h ****  * @fn      __enable_irq
 135:src/core/core_riscv.h ****  *
 136:src/core/core_riscv.h ****  * @brief   Enable Global Interrupt
 137:src/core/core_riscv.h ****  *
 138:src/core/core_riscv.h ****  * @return  none
 139:src/core/core_riscv.h ****  */
 140:src/core/core_riscv.h **** RV_STATIC_INLINE void __enable_irq()
 141:src/core/core_riscv.h **** {
 142:src/core/core_riscv.h ****   uint32_t result;
 143:src/core/core_riscv.h **** 
 144:src/core/core_riscv.h ****   __asm volatile("csrr %0," "mstatus": "=r"(result));
 145:src/core/core_riscv.h ****   result |= 0x88;
 146:src/core/core_riscv.h ****   __asm volatile ("csrw mstatus, %0" : : "r" (result) );
 147:src/core/core_riscv.h **** }
 148:src/core/core_riscv.h **** 
 149:src/core/core_riscv.h **** /*********************************************************************
 150:src/core/core_riscv.h ****  * @fn      __disable_irq
 151:src/core/core_riscv.h ****  *
 152:src/core/core_riscv.h ****  * @brief   Disable Global Interrupt
 153:src/core/core_riscv.h ****  *
 154:src/core/core_riscv.h ****  * @return  none
 155:src/core/core_riscv.h ****  */
 156:src/core/core_riscv.h **** RV_STATIC_INLINE void __disable_irq()
 157:src/core/core_riscv.h **** {
 158:src/core/core_riscv.h ****   uint32_t result;
 486              		.loc 3 158 3
 159:src/core/core_riscv.h **** 
 160:src/core/core_riscv.h ****   __asm volatile("csrr %0," "mstatus": "=r"(result));
 487              		.loc 3 160 3
 488              	 #APP
 489              	# 160 "src/core/core_riscv.h" 1
 161              	  result &= ~0x88;
 490              		csrr a5,mstatus
 491              	# 0 "" 2
 492              	.LVL61:
 493              		.loc 3 161 3
 162:src/core/core_riscv.h ****   __asm volatile ("csrw mstatus, %0" : : "r" (result) );
 494              		.loc 3 162 3
 161:src/core/core_riscv.h ****   __asm volatile ("csrw mstatus, %0" : : "r" (result) );
 495              		.loc 3 161 10 is_stmt 0
 496              	 #NO_APP
 497 0004 93F777F7 		andi	a5,a5,-137
 498              	.LVL62:
 499              		.loc 3 162 3
GAS LISTING /tmp/ccb6PqEo.s 			page 16


 500              	 #APP
 501              	# 162 "src/core/core_riscv.h" 1
 163              	}
 502              		csrw mstatus, a5
 503              	# 0 "" 2
 504              	.LVL63:
 505              	 #NO_APP
 506              	.LBE52:
 507              	.LBE51:
  57:src/main.cpp  **** 	FLASH->KEYR = 0x45670123;
 508              		.loc 2 57 2 is_stmt 1
 509              		.loc 2 57 14 is_stmt 0
 510 000c B7066745 		li	a3,1164378112
 511 0010 B7270240 		li	a5,1073881088
 512 0014 93863612 		addi	a3,a3,291
  58:src/main.cpp  **** 	FLASH->KEYR = 0xCDEF89AB;
 513              		.loc 2 58 14
 514 0018 3797EFCD 		li	a4,-839938048
  57:src/main.cpp  **** 	FLASH->KEYR = 0x45670123;
 515              		.loc 2 57 14
 516 001c D4C3     		sw	a3,4(a5)
 517              		.loc 2 58 2 is_stmt 1
 518              		.loc 2 58 14 is_stmt 0
 519 001e 1307B79A 		addi	a4,a4,-1621
 520 0022 D8C3     		sw	a4,4(a5)
  59:src/main.cpp  **** 	if(FLASH->CTLR & FLASH_CTLR_LOCK) {
 521              		.loc 2 59 2 is_stmt 1
 522              		.loc 2 59 12 is_stmt 0
 523 0024 904B     		lw	a2,16(a5)
 524              		.loc 2 59 17
 525 0026 13760608 		andi	a2,a2,128
 526              		.loc 2 59 2
 527 002a 4DEE     		bne	a2,zero,.L58
  60:src/main.cpp  **** 		return 1;
  61:src/main.cpp  **** 	}
  62:src/main.cpp  **** 	FLASH->MODEKEYR = 0x45670123;
 528              		.loc 2 62 2 is_stmt 1
 529              		.loc 2 62 18 is_stmt 0
 530 002c D4D3     		sw	a3,36(a5)
  63:src/main.cpp  **** 	FLASH->MODEKEYR = 0xCDEF89AB;
 531              		.loc 2 63 2 is_stmt 1
 532              		.loc 2 63 18 is_stmt 0
 533 002e D8D3     		sw	a4,36(a5)
  64:src/main.cpp  **** 	if(FLASH->CTLR & FLASH_CTLR_FLOCK) {
 534              		.loc 2 64 2 is_stmt 1
 535              		.loc 2 64 12 is_stmt 0
 536 0030 984B     		lw	a4,16(a5)
 537              		.loc 2 64 17
 538 0032 A166     		li	a3,32768
 539 0034 758F     		and	a4,a4,a3
 540              		.loc 2 64 2
 541 0036 5DE7     		bne	a4,zero,.L58
  65:src/main.cpp  **** 		return 1;
  66:src/main.cpp  **** 	}
  67:src/main.cpp  **** 
  68:src/main.cpp  **** 	FLASH->CTLR |= FLASH_CTLR_PAGE_ER;
 542              		.loc 2 68 2 is_stmt 1
GAS LISTING /tmp/ccb6PqEo.s 			page 17


 543              		.loc 2 68 9 is_stmt 0
 544 0038 984B     		lw	a4,16(a5)
 545              		.loc 2 68 14
 546 003a B7060200 		li	a3,131072
 547 003e 558F     		or	a4,a4,a3
 548 0040 98CB     		sw	a4,16(a5)
  69:src/main.cpp  **** 	FLASH->ADDR = 0x08003FC0;
 549              		.loc 2 69 2 is_stmt 1
 550              		.loc 2 69 14 is_stmt 0
 551 0042 37470008 		li	a4,134234112
 552 0046 130707FC 		addi	a4,a4,-64
 553 004a D8CB     		sw	a4,20(a5)
  70:src/main.cpp  **** 	FLASH->CTLR |= FLASH_CTLR_STRT;
 554              		.loc 2 70 2 is_stmt 1
 555              		.loc 2 70 9 is_stmt 0
 556 004c 944B     		lw	a3,16(a5)
  71:src/main.cpp  **** 	while(FLASH->STATR & FLASH_STATR_BSY) {;}
 557              		.loc 2 71 15
 558 004e 37270240 		li	a4,1073881088
  70:src/main.cpp  **** 	FLASH->CTLR |= FLASH_CTLR_STRT;
 559              		.loc 2 70 14
 560 0052 93E60604 		ori	a3,a3,64
 561 0056 94CB     		sw	a3,16(a5)
 562              		.loc 2 71 2 is_stmt 1
 563              	.L59:
 564              		.loc 2 71 21 discriminator 1
 565              		.loc 2 71 15 is_stmt 0 discriminator 1
 566 0058 5C47     		lw	a5,12(a4)
 567              		.loc 2 71 21 discriminator 1
 568 005a 858B     		andi	a5,a5,1
 569 005c F5FF     		bne	a5,zero,.L59
  72:src/main.cpp  **** 	FLASH->CTLR &= ~(FLASH_CTLR_PAGE_ER);
 570              		.loc 2 72 2 is_stmt 1
 571              		.loc 2 72 9 is_stmt 0
 572 005e 1C4B     		lw	a5,16(a4)
 573              		.loc 2 72 14
 574 0060 8176     		li	a3,-131072
 575 0062 FD16     		addi	a3,a3,-1
 576 0064 F58F     		and	a5,a5,a3
 577 0066 1CCB     		sw	a5,16(a4)
  73:src/main.cpp  **** 
  74:src/main.cpp  **** 	FLASH->CTLR |= FLASH_CTLR_PAGE_PG;
 578              		.loc 2 74 2 is_stmt 1
 579              		.loc 2 74 9 is_stmt 0
 580 0068 1C4B     		lw	a5,16(a4)
 581              		.loc 2 74 14
 582 006a C166     		li	a3,65536
  75:src/main.cpp  **** 	FLASH->CTLR |= FLASH_CTLR_BUF_RST;
 583              		.loc 2 75 14
 584 006c 37060800 		li	a2,524288
  74:src/main.cpp  **** 	FLASH->CTLR |= FLASH_CTLR_BUF_RST;
 585              		.loc 2 74 14
 586 0070 D58F     		or	a5,a5,a3
 587 0072 1CCB     		sw	a5,16(a4)
 588              		.loc 2 75 2 is_stmt 1
 589              		.loc 2 75 9 is_stmt 0
 590 0074 1C4B     		lw	a5,16(a4)
GAS LISTING /tmp/ccb6PqEo.s 			page 18


  76:src/main.cpp  **** 	while(FLASH->STATR & FLASH_STATR_BSY) {;}
 591              		.loc 2 76 15
 592 0076 B7260240 		li	a3,1073881088
  75:src/main.cpp  **** 	FLASH->CTLR |= FLASH_CTLR_BUF_RST;
 593              		.loc 2 75 14
 594 007a D18F     		or	a5,a5,a2
 595 007c 1CCB     		sw	a5,16(a4)
 596              		.loc 2 76 2 is_stmt 1
 597              	.L60:
 598              		.loc 2 76 21 discriminator 1
 599              		.loc 2 76 15 is_stmt 0 discriminator 1
 600 007e DC46     		lw	a5,12(a3)
 601              		.loc 2 76 21 discriminator 1
 602 0080 858B     		andi	a5,a5,1
 603 0082 F5FF     		bne	a5,zero,.L60
  77:src/main.cpp  **** 	*BORDER = (uint32_t)data;
 604              		.loc 2 77 2 is_stmt 1
  78:src/main.cpp  **** 	FLASH->CTLR |= FLASH_CTLR_BUF_LOAD;
 605              		.loc 2 78 9 is_stmt 0
 606 0084 9C4A     		lw	a5,16(a3)
 607              		.loc 2 78 14
 608 0086 37070400 		li	a4,262144
 609 008a D98F     		or	a5,a5,a4
  77:src/main.cpp  **** 	*BORDER = (uint32_t)data;
 610              		.loc 2 77 12
 611 008c 37470008 		li	a4,134234112
 612 0090 2320A7FC 		sw	a0,-64(a4)
 613              		.loc 2 78 2 is_stmt 1
 614              		.loc 2 78 14 is_stmt 0
 615 0094 9CCA     		sw	a5,16(a3)
  79:src/main.cpp  **** 	while(FLASH->STATR & FLASH_STATR_BSY) {;}
 616              		.loc 2 79 2 is_stmt 1
 617              		.loc 2 79 15 is_stmt 0
 618 0096 B7260240 		li	a3,1073881088
 619              	.L61:
 620              		.loc 2 79 21 is_stmt 1 discriminator 1
 621              		.loc 2 79 15 is_stmt 0 discriminator 1
 622 009a DC46     		lw	a5,12(a3)
 623              		.loc 2 79 21 discriminator 1
 624 009c 858B     		andi	a5,a5,1
 625 009e F5FF     		bne	a5,zero,.L61
  80:src/main.cpp  **** 	FLASH->ADDR = 0x08003FC0;
 626              		.loc 2 80 2 is_stmt 1
 627              		.loc 2 80 14 is_stmt 0
 628 00a0 B7470008 		li	a5,134234112
 629 00a4 938707FC 		addi	a5,a5,-64
 630 00a8 DCCA     		sw	a5,20(a3)
  81:src/main.cpp  **** 	FLASH->CTLR |= FLASH_CTLR_STRT;
 631              		.loc 2 81 2 is_stmt 1
 632              		.loc 2 81 9 is_stmt 0
 633 00aa 9C4A     		lw	a5,16(a3)
  82:src/main.cpp  **** 	while(FLASH->STATR & FLASH_STATR_BSY) {;}
 634              		.loc 2 82 15
 635 00ac 37270240 		li	a4,1073881088
  81:src/main.cpp  **** 	FLASH->CTLR |= FLASH_CTLR_STRT;
 636              		.loc 2 81 14
 637 00b0 93E70704 		ori	a5,a5,64
GAS LISTING /tmp/ccb6PqEo.s 			page 19


 638 00b4 9CCA     		sw	a5,16(a3)
 639              		.loc 2 82 2 is_stmt 1
 640              	.L62:
 641              		.loc 2 82 21 discriminator 1
 642              		.loc 2 82 15 is_stmt 0 discriminator 1
 643 00b6 5C47     		lw	a5,12(a4)
 644              		.loc 2 82 21 discriminator 1
 645 00b8 858B     		andi	a5,a5,1
 646 00ba F5FF     		bne	a5,zero,.L62
  83:src/main.cpp  **** 	FLASH->CTLR &= ~(FLASH_CTLR_PAGE_PG);
 647              		.loc 2 83 2 is_stmt 1
 648              		.loc 2 83 9 is_stmt 0
 649 00bc 1C4B     		lw	a5,16(a4)
 650              		.loc 2 83 14
 651 00be C176     		li	a3,-65536
 652 00c0 FD16     		addi	a3,a3,-1
 653 00c2 F58F     		and	a5,a5,a3
 654 00c4 1CCB     		sw	a5,16(a4)
  84:src/main.cpp  **** 	FLASH->CTLR |= FLASH_CTLR_LOCK;
 655              		.loc 2 84 2 is_stmt 1
 656              		.loc 2 84 9 is_stmt 0
 657 00c6 1C4B     		lw	a5,16(a4)
 658              		.loc 2 84 14
 659 00c8 93E70708 		ori	a5,a5,128
 660 00cc 1CCB     		sw	a5,16(a4)
  85:src/main.cpp  **** 	if(FLASH->STATR & FLASH_STATR_WRPRTERR) {
 661              		.loc 2 85 2 is_stmt 1
 662              		.loc 2 85 12 is_stmt 0
 663 00ce 5C47     		lw	a5,12(a4)
 664              		.loc 2 85 18
 665 00d0 C18B     		andi	a5,a5,16
 666              		.loc 2 85 2
 667 00d2 89EB     		bne	a5,zero,.L58
  86:src/main.cpp  **** 		return 1;
  87:src/main.cpp  **** 	}
  88:src/main.cpp  **** 	__enable_irq();
 668              		.loc 2 88 2 is_stmt 1
 669              	.LBB53:
 670              	.LBB54:
 142:src/core/core_riscv.h **** 
 671              		.loc 3 142 3
 144:src/core/core_riscv.h ****   result |= 0x88;
 672              		.loc 3 144 3
 673              	 #APP
 674              	# 144 "src/core/core_riscv.h" 1
 675              		csrr a5,mstatus
 676              	# 0 "" 2
 677              	.LVL64:
 145:src/core/core_riscv.h ****   __asm volatile ("csrw mstatus, %0" : : "r" (result) );
 678              		.loc 3 145 3
 146:src/core/core_riscv.h **** }
 679              		.loc 3 146 3
 145:src/core/core_riscv.h ****   __asm volatile ("csrw mstatus, %0" : : "r" (result) );
 680              		.loc 3 145 10 is_stmt 0
 681              	 #NO_APP
 682 00d8 93E78708 		ori	a5,a5,136
 683              	.LVL65:
GAS LISTING /tmp/ccb6PqEo.s 			page 20


 146:src/core/core_riscv.h **** }
 684              		.loc 3 146 3
 685              	 #APP
 686              	# 146 "src/core/core_riscv.h" 1
 687              		csrw mstatus, a5
 688              	# 0 "" 2
 689              	.LVL66:
 690              	 #NO_APP
 691              	.LBE54:
 692              	.LBE53:
  89:src/main.cpp  **** 	return 0;
 693              		.loc 2 89 2 is_stmt 1
 694              		.loc 2 89 9 is_stmt 0
 695 00e0 0145     		li	a0,0
 696              	.LVL67:
  90:src/main.cpp  **** }
 697              		.loc 2 90 1
 698 00e2 8280     		ret
 699              	.LVL68:
 700              	.L58:
  60:src/main.cpp  **** 	}
 701              		.loc 2 60 10
 702 00e4 0545     		li	a0,1
 703              	.LVL69:
 704 00e6 8280     		ret
 705              		.cfi_endproc
 706              	.LFE21:
 708              		.section	.text.SystemInit,"ax",@progbits
 709              		.align	1
 710              		.globl	SystemInit
 712              	SystemInit:
 713              	.LFB22:
  91:src/main.cpp  **** 
  92:src/main.cpp  **** extern "C"{
  93:src/main.cpp  **** void SystemInit() {
 714              		.loc 2 93 19 is_stmt 1
 715              		.cfi_startproc
  94:src/main.cpp  **** 	/*RCC*/
  95:src/main.cpp  **** 	RCC->CFGR0 &= ~(RCC_HPRE | RCC_ADCPRE);
 716              		.loc 2 95 2
 717              		.loc 2 95 7 is_stmt 0
 718 0000 B7170240 		li	a5,1073876992
 719 0004 D843     		lw	a4,4(a5)
 720              		.loc 2 95 13
 721 0006 D176     		li	a3,-49152
  93:src/main.cpp  **** 	/*RCC*/
 722              		.loc 2 93 19
 723 0008 5111     		addi	sp,sp,-12
 724              		.cfi_def_cfa_offset 12
 725              		.loc 2 95 13
 726 000a 9386F6F0 		addi	a3,a3,-241
  93:src/main.cpp  **** 	/*RCC*/
 727              		.loc 2 93 19
 728 000e 22C2     		sw	s0,4(sp)
 729 0010 26C0     		sw	s1,0(sp)
 730 0012 06C4     		sw	ra,8(sp)
 731              		.cfi_offset 8, -8
GAS LISTING /tmp/ccb6PqEo.s 			page 21


 732              		.cfi_offset 9, -12
 733              		.cfi_offset 1, -4
 734              		.loc 2 95 13
 735 0014 758F     		and	a4,a4,a3
 736 0016 D8C3     		sw	a4,4(a5)
  96:src/main.cpp  **** 	RCC->CFGR0 |= RCC_HPRE_DIV16 | RCC_ADCPRE_DIV2; //HBCLK = 1.5 MHz
 737              		.loc 2 96 2 is_stmt 1
 738              		.loc 2 96 7 is_stmt 0
 739 0018 D843     		lw	a4,4(a5)
  97:src/main.cpp  **** 	RCC->APB2PCENR |= RCC_IOPAEN | RCC_IOPCEN | RCC_IOPDEN | 
 740              		.loc 2 97 17
 741 001a 9166     		li	a3,16384
 742 001c 93865623 		addi	a3,a3,565
  96:src/main.cpp  **** 	RCC->CFGR0 |= RCC_HPRE_DIV16 | RCC_ADCPRE_DIV2; //HBCLK = 1.5 MHz
 743              		.loc 2 96 13
 744 0020 1367070B 		ori	a4,a4,176
 745 0024 D8C3     		sw	a4,4(a5)
 746              		.loc 2 97 2 is_stmt 1
 747              		.loc 2 97 7 is_stmt 0
 748 0026 984F     		lw	a4,24(a5)
  98:src/main.cpp  **** 	                  RCC_ADC1EN | RCC_USART1EN | RCC_AFIOEN;
  99:src/main.cpp  **** 	
 100:src/main.cpp  **** 	/*Timer*/
 101:src/main.cpp  **** 	SysTick->CNT = 0;
 749              		.loc 2 101 15
 750 0028 B7F400E0 		li	s1,-536809472
 102:src/main.cpp  **** 	SysTick->CMP = 0xFFFFFFFF;
 103:src/main.cpp  **** 	SysTick->CTLR = STK_STIE | STK_STRE | STK_STE;
 104:src/main.cpp  **** 	
 105:src/main.cpp  **** 	/*GPIO*/
 106:src/main.cpp  **** 	LED_PORT->CFGLR &= ~(IO_MASK << LED_GPIN);
 751              		.loc 2 106 12
 752 002c 37140140 		li	s0,1073811456
  97:src/main.cpp  **** 	                  RCC_ADC1EN | RCC_USART1EN | RCC_AFIOEN;
 753              		.loc 2 97 17
 754 0030 558F     		or	a4,a4,a3
 755 0032 98CF     		sw	a4,24(a5)
 101:src/main.cpp  **** 	SysTick->CMP = 0xFFFFFFFF;
 756              		.loc 2 101 2 is_stmt 1
 101:src/main.cpp  **** 	SysTick->CMP = 0xFFFFFFFF;
 757              		.loc 2 101 15 is_stmt 0
 758 0034 23A40400 		sw	zero,8(s1)
 102:src/main.cpp  **** 	SysTick->CMP = 0xFFFFFFFF;
 759              		.loc 2 102 2 is_stmt 1
 102:src/main.cpp  **** 	SysTick->CMP = 0xFFFFFFFF;
 760              		.loc 2 102 15 is_stmt 0
 761 0038 FD57     		li	a5,-1
 762 003a 9CC8     		sw	a5,16(s1)
 103:src/main.cpp  **** 	
 763              		.loc 2 103 2 is_stmt 1
 103:src/main.cpp  **** 	
 764              		.loc 2 103 16 is_stmt 0
 765 003c AD47     		li	a5,11
 766 003e 9CC0     		sw	a5,0(s1)
 767              		.loc 2 106 2 is_stmt 1
 768              		.loc 2 106 12 is_stmt 0
 769 0040 1C40     		lw	a5,0(s0)
GAS LISTING /tmp/ccb6PqEo.s 			page 22


 770              		.loc 2 106 18
 771 0042 93F7F7F0 		andi	a5,a5,-241
 772 0046 1CC0     		sw	a5,0(s0)
 107:src/main.cpp  **** 	LED_PORT->CFGLR |= (IO_OUT_OD | IO_OUT_2M) << LED_GPIN;
 773              		.loc 2 107 2 is_stmt 1
 774              		.loc 2 107 12 is_stmt 0
 775 0048 1C40     		lw	a5,0(s0)
 776              		.loc 2 107 18
 777 004a 93E70706 		ori	a5,a5,96
 778 004e 1CC0     		sw	a5,0(s0)
 108:src/main.cpp  **** 	led_off();
 779              		.loc 2 108 2 is_stmt 1
 780              		.loc 2 108 9 is_stmt 0
 781 0050 97000000 		call	_Z7led_offv
 781      E7800000 
 782              	.LVL70:
 109:src/main.cpp  **** 
 110:src/main.cpp  **** 	PUMP_PORT->CFGLR &= ~(IO_MASK << PUMP_GPIN);
 783              		.loc 2 110 2 is_stmt 1
 784              		.loc 2 110 13 is_stmt 0
 785 0058 1C40     		lw	a5,0(s0)
 786              		.loc 2 110 19
 787 005a 7D76     		li	a2,-4096
 788 005c 1306F60F 		addi	a2,a2,255
 789 0060 F18F     		and	a5,a5,a2
 790 0062 1CC0     		sw	a5,0(s0)
 111:src/main.cpp  **** 	PUMP_PORT->CFGLR |= (IO_OUT_PP | IO_OUT_2M) << PUMP_GPIN;
 791              		.loc 2 111 2 is_stmt 1
 792              		.loc 2 111 13 is_stmt 0
 793 0064 1C40     		lw	a5,0(s0)
 112:src/main.cpp  **** 
 113:src/main.cpp  **** 	BTN_PORT->CFGLR &= ~(IO_MASK << BTN_GPIN);
 794              		.loc 2 113 18
 795 0066 3707F1FF 		li	a4,-983040
 796 006a 7D17     		addi	a4,a4,-1
 111:src/main.cpp  **** 	PUMP_PORT->CFGLR |= (IO_OUT_PP | IO_OUT_2M) << PUMP_GPIN;
 797              		.loc 2 111 19
 798 006c 93E70720 		ori	a5,a5,512
 799 0070 1CC0     		sw	a5,0(s0)
 800              		.loc 2 113 2 is_stmt 1
 801              		.loc 2 113 12 is_stmt 0
 802 0072 1C40     		lw	a5,0(s0)
 114:src/main.cpp  **** 	BTN_PORT->CFGLR |= (IO_IN | IO_IN_PUD) << BTN_GPIN;
 803              		.loc 2 114 18
 804 0074 B7050800 		li	a1,524288
 115:src/main.cpp  **** 	BTN_PORT->BSHR = 1 << btn_pin;  //pull-up
 116:src/main.cpp  **** 	AFIO->EXTICR |= BTN_EXTI;
 805              		.loc 2 116 8
 806 0078 B7060140 		li	a3,1073807360
 113:src/main.cpp  **** 	BTN_PORT->CFGLR |= (IO_IN | IO_IN_PUD) << BTN_GPIN;
 807              		.loc 2 113 18
 808 007c F98F     		and	a5,a5,a4
 809 007e 1CC0     		sw	a5,0(s0)
 114:src/main.cpp  **** 	BTN_PORT->CFGLR |= (IO_IN | IO_IN_PUD) << BTN_GPIN;
 810              		.loc 2 114 2 is_stmt 1
 114:src/main.cpp  **** 	BTN_PORT->CFGLR |= (IO_IN | IO_IN_PUD) << BTN_GPIN;
 811              		.loc 2 114 12 is_stmt 0
GAS LISTING /tmp/ccb6PqEo.s 			page 23


 812 0080 1C40     		lw	a5,0(s0)
 114:src/main.cpp  **** 	BTN_PORT->CFGLR |= (IO_IN | IO_IN_PUD) << BTN_GPIN;
 813              		.loc 2 114 18
 814 0082 CD8F     		or	a5,a5,a1
 815 0084 1CC0     		sw	a5,0(s0)
 115:src/main.cpp  **** 	BTN_PORT->BSHR = 1 << btn_pin;  //pull-up
 816              		.loc 2 115 2 is_stmt 1
 115:src/main.cpp  **** 	BTN_PORT->BSHR = 1 << btn_pin;  //pull-up
 817              		.loc 2 115 17 is_stmt 0
 818 0086 C147     		li	a5,16
 819 0088 1CC8     		sw	a5,16(s0)
 820              		.loc 2 116 2 is_stmt 1
 821              		.loc 2 116 8 is_stmt 0
 822 008a 9C46     		lw	a5,8(a3)
 823              		.loc 2 116 15
 824 008c 93E70720 		ori	a5,a5,512
 825 0090 9CC6     		sw	a5,8(a3)
 117:src/main.cpp  **** 	EXTI->INTENR |= 1 << btn_pin;
 826              		.loc 2 117 2 is_stmt 1
 827              		.loc 2 117 8 is_stmt 0
 828 0092 83A70640 		lw	a5,1024(a3)
 829              		.loc 2 117 15
 830 0096 93E70701 		ori	a5,a5,16
 831 009a 23A0F640 		sw	a5,1024(a3)
 118:src/main.cpp  **** 	EXTI->FTENR |= 1 << btn_pin;
 832              		.loc 2 118 2 is_stmt 1
 833              		.loc 2 118 8 is_stmt 0
 834 009e 83A5C640 		lw	a1,1036(a3)
 119:src/main.cpp  **** 	EXTI->RTENR |= 1 << btn_pin;
 120:src/main.cpp  **** 	EXTI->INTFR |= 1 << btn_pin;
 121:src/main.cpp  **** 	EXTI->EVENR |= 1 << btn_pin;
 122:src/main.cpp  **** 
 123:src/main.cpp  **** 	SENS_PORT->CFGLR &= ~(IO_MASK << SENS_GPIN);
 124:src/main.cpp  **** 	SENS_PORT->CFGLR |= (IO_IN | IO_IN_AN) << SENS_GPIN;
 125:src/main.cpp  **** 
 126:src/main.cpp  **** 	UTX_PORT->CFGLR &= ~(IO_MASK << UTX_GPIN);
 127:src/main.cpp  **** 	UTX_PORT->CFGLR |= (IO_OUT_APP | IO_OUT_10M) << UTX_GPIN;
 128:src/main.cpp  **** 	AFIO->PCFR1 |= UTX_REMAP;
 129:src/main.cpp  **** 
 130:src/main.cpp  **** 	/*ADC*/
 131:src/main.cpp  **** 	ADC1->CTLR1 |= 0;  //Single single-channel mode
 835              		.loc 2 131 8
 836 00a2 B7270140 		li	a5,1073815552
 118:src/main.cpp  **** 	EXTI->FTENR |= 1 << btn_pin;
 837              		.loc 2 118 14
 838 00a6 93E50501 		ori	a1,a1,16
 839 00aa 23A6B640 		sw	a1,1036(a3)
 119:src/main.cpp  **** 	EXTI->RTENR |= 1 << btn_pin;
 840              		.loc 2 119 2 is_stmt 1
 119:src/main.cpp  **** 	EXTI->RTENR |= 1 << btn_pin;
 841              		.loc 2 119 8 is_stmt 0
 842 00ae 83A58640 		lw	a1,1032(a3)
 119:src/main.cpp  **** 	EXTI->RTENR |= 1 << btn_pin;
 843              		.loc 2 119 14
 844 00b2 93E50501 		ori	a1,a1,16
 845 00b6 23A4B640 		sw	a1,1032(a3)
 120:src/main.cpp  **** 	EXTI->EVENR |= 1 << btn_pin;
GAS LISTING /tmp/ccb6PqEo.s 			page 24


 846              		.loc 2 120 2 is_stmt 1
 120:src/main.cpp  **** 	EXTI->EVENR |= 1 << btn_pin;
 847              		.loc 2 120 8 is_stmt 0
 848 00ba 83A54641 		lw	a1,1044(a3)
 120:src/main.cpp  **** 	EXTI->EVENR |= 1 << btn_pin;
 849              		.loc 2 120 14
 850 00be 93E50501 		ori	a1,a1,16
 851 00c2 23AAB640 		sw	a1,1044(a3)
 121:src/main.cpp  **** 
 852              		.loc 2 121 2 is_stmt 1
 121:src/main.cpp  **** 
 853              		.loc 2 121 8 is_stmt 0
 854 00c6 83A54640 		lw	a1,1028(a3)
 121:src/main.cpp  **** 
 855              		.loc 2 121 14
 856 00ca 93E50501 		ori	a1,a1,16
 857 00ce 23A2B640 		sw	a1,1028(a3)
 123:src/main.cpp  **** 	SENS_PORT->CFGLR |= (IO_IN | IO_IN_AN) << SENS_GPIN;
 858              		.loc 2 123 2 is_stmt 1
 123:src/main.cpp  **** 	SENS_PORT->CFGLR |= (IO_IN | IO_IN_AN) << SENS_GPIN;
 859              		.loc 2 123 13 is_stmt 0
 860 00d2 03270480 		lw	a4,-2048(s0)
 123:src/main.cpp  **** 	SENS_PORT->CFGLR |= (IO_IN | IO_IN_AN) << SENS_GPIN;
 861              		.loc 2 123 19
 862 00d6 718F     		and	a4,a4,a2
 863 00d8 2320E480 		sw	a4,-2048(s0)
 124:src/main.cpp  **** 
 864              		.loc 2 124 2 is_stmt 1
 124:src/main.cpp  **** 
 865              		.loc 2 124 13 is_stmt 0
 866 00dc 03270480 		lw	a4,-2048(s0)
 126:src/main.cpp  **** 	UTX_PORT->CFGLR |= (IO_OUT_APP | IO_OUT_10M) << UTX_GPIN;
 867              		.loc 2 126 18
 868 00e0 370600F1 		li	a2,-251658240
 869 00e4 7D16     		addi	a2,a2,-1
 124:src/main.cpp  **** 
 870              		.loc 2 124 19
 871 00e6 2320E480 		sw	a4,-2048(s0)
 126:src/main.cpp  **** 	UTX_PORT->CFGLR |= (IO_OUT_APP | IO_OUT_10M) << UTX_GPIN;
 872              		.loc 2 126 2 is_stmt 1
 126:src/main.cpp  **** 	UTX_PORT->CFGLR |= (IO_OUT_APP | IO_OUT_10M) << UTX_GPIN;
 873              		.loc 2 126 12 is_stmt 0
 874 00ea 03270440 		lw	a4,1024(s0)
 126:src/main.cpp  **** 	UTX_PORT->CFGLR |= (IO_OUT_APP | IO_OUT_10M) << UTX_GPIN;
 875              		.loc 2 126 18
 876 00ee 718F     		and	a4,a4,a2
 877 00f0 2320E440 		sw	a4,1024(s0)
 127:src/main.cpp  **** 	AFIO->PCFR1 |= UTX_REMAP;
 878              		.loc 2 127 2 is_stmt 1
 127:src/main.cpp  **** 	AFIO->PCFR1 |= UTX_REMAP;
 879              		.loc 2 127 12 is_stmt 0
 880 00f4 03270440 		lw	a4,1024(s0)
 127:src/main.cpp  **** 	AFIO->PCFR1 |= UTX_REMAP;
 881              		.loc 2 127 18
 882 00f8 37060009 		li	a2,150994944
 883 00fc 518F     		or	a4,a4,a2
 884 00fe 2320E440 		sw	a4,1024(s0)
GAS LISTING /tmp/ccb6PqEo.s 			page 25


 128:src/main.cpp  **** 
 885              		.loc 2 128 2 is_stmt 1
 128:src/main.cpp  **** 
 886              		.loc 2 128 8 is_stmt 0
 887 0102 D842     		lw	a4,4(a3)
 128:src/main.cpp  **** 
 888              		.loc 2 128 14
 889 0104 37062000 		li	a2,2097152
 890 0108 518F     		or	a4,a4,a2
 891 010a D8C2     		sw	a4,4(a3)
 892              		.loc 2 131 2 is_stmt 1
 893              		.loc 2 131 8 is_stmt 0
 894 010c 03A74740 		lw	a4,1028(a5)
 132:src/main.cpp  **** 	ADC1->CTLR2 |= ADC_ALIGN | ADC_ADON;
 895              		.loc 2 132 14
 896 0110 8566     		li	a3,4096
 897 0112 93861680 		addi	a3,a3,-2047
 131:src/main.cpp  **** 	ADC1->CTLR2 |= ADC_ALIGN | ADC_ADON;
 898              		.loc 2 131 14
 899 0116 23A2E740 		sw	a4,1028(a5)
 900              		.loc 2 132 2 is_stmt 1
 901              		.loc 2 132 8 is_stmt 0
 902 011a 03A78740 		lw	a4,1032(a5)
 903              		.loc 2 132 14
 904 011e 558F     		or	a4,a4,a3
 905 0120 23A4E740 		sw	a4,1032(a5)
 133:src/main.cpp  **** 	ADC1->SAMPTR2 = 0;
 906              		.loc 2 133 2 is_stmt 1
 907              		.loc 2 133 16 is_stmt 0
 908 0124 23A80740 		sw	zero,1040(a5)
 134:src/main.cpp  **** 	ADC1->RSQR1 = 0;
 909              		.loc 2 134 2 is_stmt 1
 910              		.loc 2 134 14 is_stmt 0
 911 0128 23A60742 		sw	zero,1068(a5)
 135:src/main.cpp  **** 	ADC1->RSQR2 = 0;
 912              		.loc 2 135 2 is_stmt 1
 913              		.loc 2 135 14 is_stmt 0
 914 012c 23A80742 		sw	zero,1072(a5)
 136:src/main.cpp  **** 	ADC1->RSQR3 = SENS_ADC_CHANNEL << 0;
 915              		.loc 2 136 2 is_stmt 1
 916              		.loc 2 136 14 is_stmt 0
 917 0130 23AA0742 		sw	zero,1076(a5)
 137:src/main.cpp  **** 
 138:src/main.cpp  **** 	/* RCC end*/
 139:src/main.cpp  **** 	delayT(MS_TO_TICKS(5000 * 8)); //for program chip (~ 5 sec)
 918              		.loc 2 139 2 is_stmt 1
 919              	.LVL71:
 920              	.LBB55:
 921              	.LBB56:
  43:src/main.cpp  **** 	cnt_prev = SysTick->CNT;
 922              		.loc 2 43 2
  44:src/main.cpp  **** 	cnt_cur = SysTick->CNT;
 923              		.loc 2 44 2
  44:src/main.cpp  **** 	cnt_cur = SysTick->CNT;
 924              		.loc 2 44 11 is_stmt 0
 925 0134 9844     		lw	a4,8(s1)
 926              	.LVL72:
GAS LISTING /tmp/ccb6PqEo.s 			page 26


  45:src/main.cpp  **** 	while(cnt_cur < cnt_prev + val) {
 927              		.loc 2 45 2 is_stmt 1
  46:src/main.cpp  **** 		cnt_cur = SysTick->CNT;
 928              		.loc 2 46 27 is_stmt 0
 929 0136 B7170E00 		li	a5,921600
  45:src/main.cpp  **** 	while(cnt_cur < cnt_prev + val) {
 930              		.loc 2 45 10
 931 013a 9444     		lw	a3,8(s1)
 932              	.LVL73:
  46:src/main.cpp  **** 		cnt_cur = SysTick->CNT;
 933              		.loc 2 46 2 is_stmt 1
  46:src/main.cpp  **** 		cnt_cur = SysTick->CNT;
 934              		.loc 2 46 16
  46:src/main.cpp  **** 		cnt_cur = SysTick->CNT;
 935              		.loc 2 46 27 is_stmt 0
 936 013c 9387079C 		addi	a5,a5,-1600
 937 0140 3E97     		add	a4,a4,a5
 938              	.LVL74:
  46:src/main.cpp  **** 		cnt_cur = SysTick->CNT;
 939              		.loc 2 46 16
 940 0142 63F7E600 		bgeu	a3,a4,.L68
  47:src/main.cpp  **** 	}
 941              		.loc 2 47 11
 942 0146 B7F600E0 		li	a3,-536809472
 943              	.LVL75:
 944              	.L69:
  47:src/main.cpp  **** 	}
 945              		.loc 2 47 3 is_stmt 1
  47:src/main.cpp  **** 	}
 946              		.loc 2 47 11 is_stmt 0
 947 014a 9C46     		lw	a5,8(a3)
 948              	.LVL76:
  46:src/main.cpp  **** 		cnt_cur = SysTick->CNT;
 949              		.loc 2 46 16 is_stmt 1
 950 014c E3EFE7FE 		bltu	a5,a4,.L69
 951              	.LVL77:
 952              	.L68:
  49:src/main.cpp  **** }
 953              		.loc 2 49 2
 954              	.LBE56:
 955              	.LBE55:
 140:src/main.cpp  **** 	RCC->CFGR0 &= ~(RCC_HPRE | RCC_ADCPRE);
 956              		.loc 2 140 2
 957              		.loc 2 140 7 is_stmt 0
 958 0150 B7170240 		li	a5,1073876992
 959 0154 D843     		lw	a4,4(a5)
 960              		.loc 2 140 13
 961 0156 D176     		li	a3,-49152
 962 0158 9386F6F0 		addi	a3,a3,-241
 963 015c 758F     		and	a4,a4,a3
 964 015e D8C3     		sw	a4,4(a5)
 141:src/main.cpp  **** 	RCC->CFGR0 |= RCC_HPRE_DIV128 | RCC_ADCPRE_DIV2;  //HBCLK = 187.5 kHz
 965              		.loc 2 141 2 is_stmt 1
 966              		.loc 2 141 7 is_stmt 0
 967 0160 D843     		lw	a4,4(a5)
 142:src/main.cpp  **** 	SysTick->CNT = 0;
 143:src/main.cpp  **** 	SysTick->CMP = TIMER_UPDATE;
GAS LISTING /tmp/ccb6PqEo.s 			page 27


 144:src/main.cpp  **** }
 968              		.loc 2 144 1
 969 0162 A240     		lw	ra,8(sp)
 970              		.cfi_restore 1
 971 0164 1244     		lw	s0,4(sp)
 972              		.cfi_restore 8
 141:src/main.cpp  **** 	RCC->CFGR0 |= RCC_HPRE_DIV128 | RCC_ADCPRE_DIV2;  //HBCLK = 187.5 kHz
 973              		.loc 2 141 13
 974 0166 1367070E 		ori	a4,a4,224
 975 016a D8C3     		sw	a4,4(a5)
 142:src/main.cpp  **** 	SysTick->CNT = 0;
 976              		.loc 2 142 2 is_stmt 1
 142:src/main.cpp  **** 	SysTick->CNT = 0;
 977              		.loc 2 142 15 is_stmt 0
 978 016c B7F600E0 		li	a3,-536809472
 143:src/main.cpp  **** }
 979              		.loc 2 143 15
 980 0170 B727393B 		li	a5,993599488
 142:src/main.cpp  **** 	SysTick->CNT = 0;
 981              		.loc 2 142 15
 982 0174 23A40600 		sw	zero,8(a3)
 143:src/main.cpp  **** }
 983              		.loc 2 143 2 is_stmt 1
 143:src/main.cpp  **** }
 984              		.loc 2 143 15 is_stmt 0
 985 0178 93870720 		addi	a5,a5,512
 986 017c 9CCA     		sw	a5,16(a3)
 987              		.loc 2 144 1
 988 017e 8244     		lw	s1,0(sp)
 989              		.cfi_restore 9
 990 0180 3101     		addi	sp,sp,12
 991              		.cfi_def_cfa_offset 0
 992 0182 8280     		jr	ra
 993              		.cfi_endproc
 994              	.LFE22:
 996              		.section	.rodata.main.str1.4,"aMS",@progbits,1
 997              		.align	2
 998              	.LC0:
 999 0000 55415254 		.string	"UART is work!!! \n"
 999      20697320 
 999      776F726B 
 999      21212120 
 999      0A00
 1000 0012 0000     		.align	2
 1001              	.LC1:
 1002 0014 4D656173 		.string	"Measurement cycle, click button for exit\n"
 1002      7572656D 
 1002      656E7420 
 1002      6379636C 
 1002      652C2063 
 1003 003e 0000     		.align	2
 1004              	.LC2:
 1005 0040 63686970 		.string	"chip fall asleep\n"
 1005      2066616C 
 1005      6C206173 
 1005      6C656570 
 1005      0A00
GAS LISTING /tmp/ccb6PqEo.s 			page 28


 1006 0052 0000     		.align	2
 1007              	.LC3:
 1008 0054 63686970 		.string	"chip wake up \\(^o^)/\n"
 1008      2077616B 
 1008      65207570 
 1008      205C285E 
 1008      6F5E292F 
 1009              		.section	.text.startup.main,"ax",@progbits
 1010              		.align	1
 1011              		.globl	main
 1013              	main:
 1014              	.LFB23:
 145:src/main.cpp  **** }
 146:src/main.cpp  **** 
 147:src/main.cpp  **** int main(void)
 148:src/main.cpp  **** {
 1015              		.loc 2 148 1 is_stmt 1
 1016              		.cfi_startproc
 149:src/main.cpp  **** 	uint8_t tmp;
 1017              		.loc 2 149 2
 150:src/main.cpp  **** 	NVIC_EnableIRQ(SysTick_IRQn);
 1018              		.loc 2 150 2
 1019              	.LVL78:
 1020              	.LBB57:
 1021              	.LBB58:
 164:src/core/core_riscv.h **** 
 165:src/core/core_riscv.h **** /*********************************************************************
 166:src/core/core_riscv.h ****  * @fn      __NOP
 167:src/core/core_riscv.h ****  *
 168:src/core/core_riscv.h ****  * @brief   nop
 169:src/core/core_riscv.h ****  *
 170:src/core/core_riscv.h ****  * @return  none
 171:src/core/core_riscv.h ****  */
 172:src/core/core_riscv.h **** RV_STATIC_INLINE void __NOP()
 173:src/core/core_riscv.h **** {
 174:src/core/core_riscv.h ****   __asm volatile ("nop");
 175:src/core/core_riscv.h **** }
 176:src/core/core_riscv.h **** 
 177:src/core/core_riscv.h **** /*********************************************************************
 178:src/core/core_riscv.h ****  * @fn       NVIC_EnableIRQ
 179:src/core/core_riscv.h ****  *
 180:src/core/core_riscv.h ****  * @brief   Disable Interrupt
 181:src/core/core_riscv.h ****  *
 182:src/core/core_riscv.h ****  * @param   IRQn - Interrupt Numbers
 183:src/core/core_riscv.h ****  *
 184:src/core/core_riscv.h ****  * @return  none
 185:src/core/core_riscv.h ****  */
 186:src/core/core_riscv.h **** RV_STATIC_INLINE void NVIC_EnableIRQ(IRQn_Type IRQn)
 187:src/core/core_riscv.h **** {
 188:src/core/core_riscv.h ****   NVIC->IENR[((uint32_t)(IRQn) >> 5)] = (1 << ((uint32_t)(IRQn) & 0x1F));
 1022              		.loc 3 188 3
 1023              	.LBE58:
 1024              	.LBE57:
 148:src/main.cpp  **** 	uint8_t tmp;
 1025              		.loc 2 148 1 is_stmt 0
 1026 0000 3111     		addi	sp,sp,-20
 1027              		.cfi_def_cfa_offset 20
GAS LISTING /tmp/ccb6PqEo.s 			page 29


 1028 0002 06C8     		sw	ra,16(sp)
 1029 0004 22C6     		sw	s0,12(sp)
 1030 0006 26C4     		sw	s1,8(sp)
 1031              		.cfi_offset 1, -4
 1032              		.cfi_offset 8, -8
 1033              		.cfi_offset 9, -12
 1034              	.LBB60:
 1035              	.LBB59:
 1036              		.loc 3 188 39
 1037 0008 B7E700E0 		li	a5,-536813568
 1038 000c 0567     		li	a4,4096
 1039 000e 23A0E710 		sw	a4,256(a5)
 1040              	.LVL79:
 1041              	.LBE59:
 1042              	.LBE60:
 151:src/main.cpp  **** 	NVIC_EnableIRQ(USART1_IRQn);
 1043              		.loc 2 151 2 is_stmt 1
 1044              	.LBB61:
 1045              	.LBB62:
 1046              		.loc 3 188 3
 1047              	.LBE62:
 1048              	.LBE61:
 152:src/main.cpp  **** 	NVIC_EnableIRQ(EXTI7_0_IRQn);
 1049              		.loc 2 152 2
 1050              	.LBB64:
 1051              	.LBB65:
 1052              		.loc 3 188 3
 1053              	.LBE65:
 1054              	.LBE64:
 1055              	.LBB67:
 1056              	.LBB63:
 1057              		.loc 3 188 39 is_stmt 0
 1058 0012 8546     		li	a3,1
 1059 0014 23A2D710 		sw	a3,260(a5)
 1060              	.LBE63:
 1061              	.LBE67:
 1062              	.LBB68:
 1063              	.LBB66:
 1064 0018 37071000 		li	a4,1048576
 1065 001c 23A0E710 		sw	a4,256(a5)
 1066              	.LVL80:
 1067              	.LBE66:
 1068              	.LBE68:
 153:src/main.cpp  **** 	NVIC_EnableIRQ(HardFault_IRQn);
 1069              		.loc 2 153 2 is_stmt 1
 1070              	.LBB69:
 1071              	.LBB70:
 1072              		.loc 3 188 3
 1073              		.loc 3 188 39 is_stmt 0
 1074 0020 2147     		li	a4,8
 1075 0022 23A0E710 		sw	a4,256(a5)
 1076              	.LVL81:
 1077              	.LBE70:
 1078              	.LBE69:
 154:src/main.cpp  **** 	
 155:src/main.cpp  **** 	__enable_irq();
 1079              		.loc 2 155 2 is_stmt 1
GAS LISTING /tmp/ccb6PqEo.s 			page 30


 1080              	.LBB71:
 1081              	.LBB72:
 142:src/core/core_riscv.h **** 
 1082              		.loc 3 142 3
 144:src/core/core_riscv.h ****   result |= 0x88;
 1083              		.loc 3 144 3
 1084              	 #APP
 1085              	# 144 "src/core/core_riscv.h" 1
 1086              		csrr a5,mstatus
 1087              	# 0 "" 2
 1088              	.LVL82:
 145:src/core/core_riscv.h ****   __asm volatile ("csrw mstatus, %0" : : "r" (result) );
 1089              		.loc 3 145 3
 146:src/core/core_riscv.h **** }
 1090              		.loc 3 146 3
 145:src/core/core_riscv.h ****   __asm volatile ("csrw mstatus, %0" : : "r" (result) );
 1091              		.loc 3 145 10 is_stmt 0
 1092              	 #NO_APP
 1093 002a 93E78708 		ori	a5,a5,136
 1094              	.LVL83:
 146:src/core/core_riscv.h **** }
 1095              		.loc 3 146 3
 1096              	 #APP
 1097              	# 146 "src/core/core_riscv.h" 1
 1098              		csrw mstatus, a5
 1099              	# 0 "" 2
 1100              	.LVL84:
 1101              	 #NO_APP
 1102              	.LBE72:
 1103              	.LBE71:
 156:src/main.cpp  **** 
 157:src/main.cpp  **** 	uart1.print("UART is work!!! \n");
 1104              		.loc 2 157 2 is_stmt 1
 1105              		.loc 2 157 13 is_stmt 0
 1106 0032 B7040000 		lui	s1,%hi(uart1)
 1107 0036 B7050000 		lui	a1,%hi(.LC0)
 1108 003a 93850500 		addi	a1,a1,%lo(.LC0)
 1109 003e 13850400 		addi	a0,s1,%lo(uart1)
 1110 0042 97000000 		call	_ZN4uart5printEPKc
 1110      E7800000 
 1111              	.LVL85:
 158:src/main.cpp  **** 	sens_val_border = flash_get(); 
 1112              		.loc 2 158 2 is_stmt 1
 1113              	.LBB73:
 1114              	.LBB74:
  53:src/main.cpp  **** }
 1115              		.loc 2 53 2
  53:src/main.cpp  **** }
 1116              		.loc 2 53 9 is_stmt 0
 1117 004a B7470008 		li	a5,134234112
  53:src/main.cpp  **** }
 1118              		.loc 2 53 10
 1119 004e 83A707FC 		lw	a5,-64(a5)
 1120 0052 37070000 		lui	a4,%hi(sens_val_border)
 1121              	.LBE74:
 1122              	.LBE73:
 159:src/main.cpp  **** 	awtr_state = click;
GAS LISTING /tmp/ccb6PqEo.s 			page 31


 1123              		.loc 2 159 13
 1124 0056 37040000 		lui	s0,%hi(awtr_state)
 1125              	.LBB76:
 1126              	.LBB75:
  53:src/main.cpp  **** }
 1127              		.loc 2 53 10
 1128 005a 2300F700 		sb	a5,%lo(sens_val_border)(a4)
 1129              	.LBE75:
 1130              	.LBE76:
 1131              		.loc 2 159 2 is_stmt 1
 1132 005e B7070000 		lui	a5,%hi(.L76)
 1133              		.loc 2 159 13 is_stmt 0
 1134 0062 8546     		li	a3,1
 1135 0064 93870700 		addi	a5,a5,%lo(.L76)
 1136 0068 2320D400 		sw	a3,%lo(awtr_state)(s0)
 1137 006c 3EC2     		sw	a5,4(sp)
 1138              	.L74:
 160:src/main.cpp  **** 	
 161:src/main.cpp  **** 	while(1) {
 1139              		.loc 2 161 2 is_stmt 1
 162:src/main.cpp  **** 		switch(awtr_state) {
 1140              		.loc 2 162 3
 1141              	.LBB77:
 1142              		.loc 2 162 10 is_stmt 0
 1143 006e 83270400 		lw	a5,%lo(awtr_state)(s0)
 1144              		.loc 2 162 3
 1145 0072 1147     		li	a4,4
 1146 0074 E36DF7FE 		bgtu	a5,a4,.L74
 1147 0078 1247     		lw	a4,4(sp)
 1148 007a 8A07     		slli	a5,a5,2
 1149 007c BA97     		add	a5,a4,a5
 1150 007e 9C43     		lw	a5,0(a5)
 1151 0080 8287     		jr	a5
 1152              		.section	.rodata.main,"a",@progbits
 1153              		.align	2
 1154              		.align	2
 1155              	.L76:
 1156 0000 00000000 		.word	.L80
 1157 0004 00000000 		.word	.L79
 1158 0008 00000000 		.word	.L78
 1159 000c 00000000 		.word	.L77
 1160 0010 00000000 		.word	.L75
 1161              		.section	.text.startup.main
 1162              	.L77:
 1163              	.LBB78:
 163:src/main.cpp  **** 		case waiting:
 164:src/main.cpp  **** 			uint32_t cnt_prev, cnt_cur;
 165:src/main.cpp  **** 			cnt_prev = SysTick->CNT;
 166:src/main.cpp  **** 			cnt_cur = SysTick->CNT;
 167:src/main.cpp  **** 			while(cnt_cur < cnt_prev + MS_TO_TICKS(10000) && awtr_state == waiting) {
 168:src/main.cpp  **** 				cnt_cur = SysTick->CNT;
 169:src/main.cpp  **** 			}
 170:src/main.cpp  **** 			if(awtr_state == waiting) {
 171:src/main.cpp  **** 				awtr_state = toSleep;
 172:src/main.cpp  **** 			}
 173:src/main.cpp  **** 			break;
 174:src/main.cpp  **** 
GAS LISTING /tmp/ccb6PqEo.s 			page 32


 175:src/main.cpp  **** 		case click:
 176:src/main.cpp  **** 			led_on();
 177:src/main.cpp  **** 			delayT(MS_TO_TICKS(10));
 178:src/main.cpp  **** 			led_off();
 179:src/main.cpp  **** 			sens_val = sens_get();
 180:src/main.cpp  **** 			if(sens_val > sens_val_border) {
 181:src/main.cpp  **** 				__disable_irq();
 182:src/main.cpp  **** 				pump_on();
 183:src/main.cpp  **** 				delayT(MS_TO_TICKS(AWTR_WATERING_DUR));
 184:src/main.cpp  **** 				pump_off();
 185:src/main.cpp  **** 				__enable_irq();
 186:src/main.cpp  **** 				intToASCII(sens_val, msg_click_dry + 15, 3);
 187:src/main.cpp  **** 				uart1.send(msg_click_dry, sizeof(msg_click_dry) - 1);
 188:src/main.cpp  **** 			}
 189:src/main.cpp  **** 			else {
 190:src/main.cpp  **** 				intToASCII(sens_val, msg_click_wet + 15, 3);
 191:src/main.cpp  **** 				uart1.send(msg_click_wet, sizeof(msg_click_wet) - 1);
 192:src/main.cpp  **** 			}
 193:src/main.cpp  **** 			awtr_state = toSleep;
 194:src/main.cpp  **** 			break;
 195:src/main.cpp  **** 		case hold:
 196:src/main.cpp  **** 			led_on();
 197:src/main.cpp  **** 			delayT(MS_TO_TICKS(10));
 198:src/main.cpp  **** 			led_off();
 199:src/main.cpp  **** 			sens_val_border = sens_get();
 200:src/main.cpp  **** 			tmp = flash_save(sens_val_border);
 201:src/main.cpp  **** 			sens_val_border = flash_get();
 202:src/main.cpp  **** 			delayT(MS_TO_TICKS(200));
 203:src/main.cpp  **** 			led_on();
 204:src/main.cpp  **** 			intToASCII(tmp, msg_hold + 1, 1);
 205:src/main.cpp  **** 			intToASCII(sens_val_border, msg_hold + 17, 3);
 206:src/main.cpp  **** 			uart1.send(msg_hold, sizeof(msg_hold) - 1);
 207:src/main.cpp  **** 			delayT(MS_TO_TICKS(15));
 208:src/main.cpp  **** 			led_off();
 209:src/main.cpp  **** 			awtr_state = toSleep;
 210:src/main.cpp  **** 			break;
 211:src/main.cpp  **** 		case long_hold:
 1164              		.loc 2 211 3 is_stmt 1
 212:src/main.cpp  **** 			uart1.print("Measurement cycle, click button for exit\n");
 1165              		.loc 2 212 4
 1166              		.loc 2 212 15 is_stmt 0
 1167 0082 B7070000 		lui	a5,%hi(.LC1)
 1168 0086 93850700 		addi	a1,a5,%lo(.LC1)
 1169 008a 13850400 		addi	a0,s1,%lo(uart1)
 1170 008e 97000000 		call	_ZN4uart5printEPKc
 1170      E7800000 
 1171              	.LVL86:
 213:src/main.cpp  **** 			while(awtr_state == long_hold) {
 1172              		.loc 2 213 4 is_stmt 1
 1173              		.loc 2 213 21
 1174 0096 03270400 		lw	a4,%lo(awtr_state)(s0)
 1175 009a 8D47     		li	a5,3
 1176 009c E319F7FC 		bne	a4,a5,.L74
 1177              	.LBB79:
 1178              	.LBB80:
  46:src/main.cpp  **** 		cnt_cur = SysTick->CNT;
 1179              		.loc 2 46 27 is_stmt 0
GAS LISTING /tmp/ccb6PqEo.s 			page 33


 1180 00a0 9967     		li	a5,24576
 1181 00a2 9387879D 		addi	a5,a5,-1576
 1182 00a6 3EC0     		sw	a5,0(sp)
 1183              	.L99:
 1184              	.LBE80:
 1185              	.LBE79:
 214:src/main.cpp  **** 				led_on();
 1186              		.loc 2 214 5 is_stmt 1
 1187              		.loc 2 214 11 is_stmt 0
 1188 00a8 97000000 		call	_Z6led_onv
 1188      E7800000 
 1189              	.LVL87:
 215:src/main.cpp  **** 				sens_val = sens_get();
 1190              		.loc 2 215 5 is_stmt 1
 1191              		.loc 2 215 24 is_stmt 0
 1192 00b0 97000000 		call	_Z8sens_getv
 1192      E7800000 
 1193              	.LVL88:
 216:src/main.cpp  **** 				intToASCII(sens_val, msg_lhold + 14, 3);
 1194              		.loc 2 216 15
 1195 00b8 B7070000 		lui	a5,%hi(msg_lhold+14)
 215:src/main.cpp  **** 				sens_val = sens_get();
 1196              		.loc 2 215 14
 1197 00bc 1375F50F 		andi	a0,a0,0xff
 1198              		.loc 2 216 15
 1199 00c0 9385E700 		addi	a1,a5,%lo(msg_lhold+14)
 1200 00c4 0D46     		li	a2,3
 215:src/main.cpp  **** 				sens_val = sens_get();
 1201              		.loc 2 215 14
 1202 00c6 B7070000 		lui	a5,%hi(sens_val)
 1203 00ca 2380A700 		sb	a0,%lo(sens_val)(a5)
 1204              		.loc 2 216 5 is_stmt 1
 1205              		.loc 2 216 15 is_stmt 0
 1206 00ce 97000000 		call	_Z10intToASCIIiPhh
 1206      E7800000 
 1207              	.LVL89:
 217:src/main.cpp  **** 				uart1.send(msg_lhold, sizeof(msg_lhold) - 1);
 1208              		.loc 2 217 5 is_stmt 1
 1209              		.loc 2 217 15 is_stmt 0
 1210 00d6 B7070000 		lui	a5,%hi(msg_lhold)
 1211 00da 0147     		li	a4,0
 1212 00dc 8146     		li	a3,0
 1213 00de 93850700 		addi	a1,a5,%lo(msg_lhold)
 1214 00e2 4946     		li	a2,18
 1215 00e4 13850400 		addi	a0,s1,%lo(uart1)
 1216 00e8 97000000 		call	_ZN4uart4sendEPhtPFvvEh
 1216      E7800000 
 1217              	.LVL90:
 218:src/main.cpp  **** 				led_off();
 1218              		.loc 2 218 5 is_stmt 1
 1219              		.loc 2 218 12 is_stmt 0
 1220 00f0 97000000 		call	_Z7led_offv
 1220      E7800000 
 1221              	.LVL91:
 219:src/main.cpp  **** 				delayT(MS_TO_TICKS(1000));
 1222              		.loc 2 219 5 is_stmt 1
 1223              	.LBB82:
GAS LISTING /tmp/ccb6PqEo.s 			page 34


 1224              	.LBB81:
  43:src/main.cpp  **** 	cnt_prev = SysTick->CNT;
 1225              		.loc 2 43 2
  44:src/main.cpp  **** 	cnt_cur = SysTick->CNT;
 1226              		.loc 2 44 2
  44:src/main.cpp  **** 	cnt_cur = SysTick->CNT;
 1227              		.loc 2 44 11 is_stmt 0
 1228 00f8 B7F700E0 		li	a5,-536809472
 1229 00fc 9847     		lw	a4,8(a5)
 1230              	.LVL92:
  45:src/main.cpp  **** 	while(cnt_cur < cnt_prev + val) {
 1231              		.loc 2 45 2 is_stmt 1
  46:src/main.cpp  **** 		cnt_cur = SysTick->CNT;
 1232              		.loc 2 46 27 is_stmt 0
 1233 00fe 8246     		lw	a3,0(sp)
  45:src/main.cpp  **** 	while(cnt_cur < cnt_prev + val) {
 1234              		.loc 2 45 10
 1235 0100 9C47     		lw	a5,8(a5)
 1236              	.LVL93:
  46:src/main.cpp  **** 		cnt_cur = SysTick->CNT;
 1237              		.loc 2 46 2 is_stmt 1
  46:src/main.cpp  **** 		cnt_cur = SysTick->CNT;
 1238              		.loc 2 46 16
  46:src/main.cpp  **** 		cnt_cur = SysTick->CNT;
 1239              		.loc 2 46 27 is_stmt 0
 1240 0102 3697     		add	a4,a4,a3
 1241              	.LVL94:
  46:src/main.cpp  **** 		cnt_cur = SysTick->CNT;
 1242              		.loc 2 46 16
 1243 0104 63F7E700 		bgeu	a5,a4,.L97
  47:src/main.cpp  **** 	}
 1244              		.loc 2 47 11
 1245 0108 B7F600E0 		li	a3,-536809472
 1246              	.LVL95:
 1247              	.L98:
  47:src/main.cpp  **** 	}
 1248              		.loc 2 47 3 is_stmt 1
  47:src/main.cpp  **** 	}
 1249              		.loc 2 47 11 is_stmt 0
 1250 010c 9C46     		lw	a5,8(a3)
 1251              	.LVL96:
  46:src/main.cpp  **** 		cnt_cur = SysTick->CNT;
 1252              		.loc 2 46 16 is_stmt 1
 1253 010e E3EFE7FE 		bltu	a5,a4,.L98
 1254              	.LVL97:
 1255              	.L97:
 1256              	.LBE81:
 1257              	.LBE82:
 213:src/main.cpp  **** 				led_on();
 1258              		.loc 2 213 21
 1259 0112 03270400 		lw	a4,%lo(awtr_state)(s0)
 1260 0116 8D47     		li	a5,3
 1261 0118 E308F7F8 		beq	a4,a5,.L99
 1262 011c 89BF     		j	.L74
 1263              	.L78:
 195:src/main.cpp  **** 			led_on();
 1264              		.loc 2 195 3
GAS LISTING /tmp/ccb6PqEo.s 			page 35


 196:src/main.cpp  **** 			delayT(MS_TO_TICKS(10));
 1265              		.loc 2 196 4
 196:src/main.cpp  **** 			delayT(MS_TO_TICKS(10));
 1266              		.loc 2 196 10 is_stmt 0
 1267 011e 97000000 		call	_Z6led_onv
 1267      E7800000 
 1268              	.LVL98:
 197:src/main.cpp  **** 			led_off();
 1269              		.loc 2 197 4 is_stmt 1
 1270              	.LBB83:
 1271              	.LBB84:
  43:src/main.cpp  **** 	cnt_prev = SysTick->CNT;
 1272              		.loc 2 43 2
  44:src/main.cpp  **** 	cnt_cur = SysTick->CNT;
 1273              		.loc 2 44 2
  44:src/main.cpp  **** 	cnt_cur = SysTick->CNT;
 1274              		.loc 2 44 11 is_stmt 0
 1275 0126 B7F700E0 		li	a5,-536809472
 1276 012a 9847     		lw	a4,8(a5)
 1277              	.LVL99:
  45:src/main.cpp  **** 	while(cnt_cur < cnt_prev + val) {
 1278              		.loc 2 45 2 is_stmt 1
  45:src/main.cpp  **** 	while(cnt_cur < cnt_prev + val) {
 1279              		.loc 2 45 10 is_stmt 0
 1280 012c 9C47     		lw	a5,8(a5)
 1281              	.LVL100:
  46:src/main.cpp  **** 		cnt_cur = SysTick->CNT;
 1282              		.loc 2 46 2 is_stmt 1
  46:src/main.cpp  **** 		cnt_cur = SysTick->CNT;
 1283              		.loc 2 46 16
  46:src/main.cpp  **** 		cnt_cur = SysTick->CNT;
 1284              		.loc 2 46 27 is_stmt 0
 1285 012e 1307670E 		addi	a4,a4,230
 1286              	.LVL101:
  46:src/main.cpp  **** 		cnt_cur = SysTick->CNT;
 1287              		.loc 2 46 16
 1288 0132 63F7E700 		bgeu	a5,a4,.L91
  47:src/main.cpp  **** 	}
 1289              		.loc 2 47 11
 1290 0136 B7F600E0 		li	a3,-536809472
 1291              	.LVL102:
 1292              	.L92:
  47:src/main.cpp  **** 	}
 1293              		.loc 2 47 3 is_stmt 1
  47:src/main.cpp  **** 	}
 1294              		.loc 2 47 11 is_stmt 0
 1295 013a 9C46     		lw	a5,8(a3)
 1296              	.LVL103:
  46:src/main.cpp  **** 		cnt_cur = SysTick->CNT;
 1297              		.loc 2 46 16 is_stmt 1
 1298 013c E3EFE7FE 		bltu	a5,a4,.L92
 1299              	.LVL104:
 1300              	.L91:
  49:src/main.cpp  **** }
 1301              		.loc 2 49 2
 1302              	.LBE84:
 1303              	.LBE83:
GAS LISTING /tmp/ccb6PqEo.s 			page 36


 198:src/main.cpp  **** 			sens_val_border = sens_get();
 1304              		.loc 2 198 4
 198:src/main.cpp  **** 			sens_val_border = sens_get();
 1305              		.loc 2 198 11 is_stmt 0
 1306 0140 97000000 		call	_Z7led_offv
 1306      E7800000 
 1307              	.LVL105:
 199:src/main.cpp  **** 			tmp = flash_save(sens_val_border);
 1308              		.loc 2 199 4 is_stmt 1
 199:src/main.cpp  **** 			tmp = flash_save(sens_val_border);
 1309              		.loc 2 199 30 is_stmt 0
 1310 0148 97000000 		call	_Z8sens_getv
 1310      E7800000 
 1311              	.LVL106:
 199:src/main.cpp  **** 			tmp = flash_save(sens_val_border);
 1312              		.loc 2 199 20
 1313 0150 B7070000 		lui	a5,%hi(sens_val_border)
 1314 0154 1375F50F 		andi	a0,a0,0xff
 1315 0158 2380A700 		sb	a0,%lo(sens_val_border)(a5)
 200:src/main.cpp  **** 			sens_val_border = flash_get();
 1316              		.loc 2 200 4 is_stmt 1
 200:src/main.cpp  **** 			sens_val_border = flash_get();
 1317              		.loc 2 200 20 is_stmt 0
 1318 015c 97000000 		call	_Z10flash_saveh
 1318      E7800000 
 1319              	.LVL107:
 1320              	.LBB85:
 1321              	.LBB86:
  53:src/main.cpp  **** }
 1322              		.loc 2 53 9
 1323 0164 B7470008 		li	a5,134234112
  53:src/main.cpp  **** }
 1324              		.loc 2 53 10
 1325 0168 03A707FC 		lw	a4,-64(a5)
 1326 016c B7060000 		lui	a3,%hi(sens_val_border)
 1327              	.LBE86:
 1328              	.LBE85:
 1329              	.LBB89:
 1330              	.LBB90:
  44:src/main.cpp  **** 	cnt_cur = SysTick->CNT;
 1331              		.loc 2 44 11
 1332 0170 B7F700E0 		li	a5,-536809472
 1333              	.LBE90:
 1334              	.LBE89:
 1335              	.LBB93:
 1336              	.LBB87:
  53:src/main.cpp  **** }
 1337              		.loc 2 53 10
 1338 0174 2380E600 		sb	a4,%lo(sens_val_border)(a3)
 1339              	.LBE87:
 1340              	.LBE93:
 1341              	.LBB94:
 1342              	.LBB91:
  44:src/main.cpp  **** 	cnt_cur = SysTick->CNT;
 1343              		.loc 2 44 11
 1344 0178 9847     		lw	a4,8(a5)
  45:src/main.cpp  **** 	while(cnt_cur < cnt_prev + val) {
GAS LISTING /tmp/ccb6PqEo.s 			page 37


 1345              		.loc 2 45 10
 1346 017a 9447     		lw	a3,8(a5)
  46:src/main.cpp  **** 		cnt_cur = SysTick->CNT;
 1347              		.loc 2 46 27
 1348 017c 8567     		li	a5,4096
 1349 017e 9387871F 		addi	a5,a5,504
 1350 0182 3E97     		add	a4,a4,a5
 1351              	.LVL108:
 1352              	.LBE91:
 1353              	.LBE94:
 201:src/main.cpp  **** 			delayT(MS_TO_TICKS(200));
 1354              		.loc 2 201 4 is_stmt 1
 1355              	.LBB95:
 1356              	.LBB88:
  53:src/main.cpp  **** }
 1357              		.loc 2 53 2
 1358              	.LBE88:
 1359              	.LBE95:
 202:src/main.cpp  **** 			led_on();
 1360              		.loc 2 202 4
 1361              	.LBB96:
 1362              	.LBB92:
  43:src/main.cpp  **** 	cnt_prev = SysTick->CNT;
 1363              		.loc 2 43 2
  44:src/main.cpp  **** 	cnt_cur = SysTick->CNT;
 1364              		.loc 2 44 2
  45:src/main.cpp  **** 	while(cnt_cur < cnt_prev + val) {
 1365              		.loc 2 45 2
  46:src/main.cpp  **** 		cnt_cur = SysTick->CNT;
 1366              		.loc 2 46 2
  46:src/main.cpp  **** 		cnt_cur = SysTick->CNT;
 1367              		.loc 2 46 16
 1368 0184 63F7E600 		bgeu	a3,a4,.L93
  47:src/main.cpp  **** 	}
 1369              		.loc 2 47 11 is_stmt 0
 1370 0188 B7F600E0 		li	a3,-536809472
 1371              	.LVL109:
 1372              	.L94:
  47:src/main.cpp  **** 	}
 1373              		.loc 2 47 3 is_stmt 1
  47:src/main.cpp  **** 	}
 1374              		.loc 2 47 11 is_stmt 0
 1375 018c 9C46     		lw	a5,8(a3)
 1376              	.LVL110:
  46:src/main.cpp  **** 		cnt_cur = SysTick->CNT;
 1377              		.loc 2 46 16 is_stmt 1
 1378 018e E3EFE7FE 		bltu	a5,a4,.L94
 1379              	.LVL111:
 1380              	.L93:
  49:src/main.cpp  **** }
 1381              		.loc 2 49 2
 1382              	.LBE92:
 1383              	.LBE96:
 203:src/main.cpp  **** 			intToASCII(tmp, msg_hold + 1, 1);
 1384              		.loc 2 203 4
 1385 0192 2AC0     		sw	a0,0(sp)
 203:src/main.cpp  **** 			intToASCII(tmp, msg_hold + 1, 1);
GAS LISTING /tmp/ccb6PqEo.s 			page 38


 1386              		.loc 2 203 10 is_stmt 0
 1387 0194 97000000 		call	_Z6led_onv
 1387      E7800000 
 1388              	.LVL112:
 204:src/main.cpp  **** 			intToASCII(sens_val_border, msg_hold + 17, 3);
 1389              		.loc 2 204 4 is_stmt 1
 204:src/main.cpp  **** 			intToASCII(sens_val_border, msg_hold + 17, 3);
 1390              		.loc 2 204 14 is_stmt 0
 1391 019c 0245     		lw	a0,0(sp)
 1392 019e B7070000 		lui	a5,%hi(msg_hold+1)
 1393 01a2 93851700 		addi	a1,a5,%lo(msg_hold+1)
 1394 01a6 0546     		li	a2,1
 1395 01a8 97000000 		call	_Z10intToASCIIiPhh
 1395      E7800000 
 1396              	.LVL113:
 205:src/main.cpp  **** 			uart1.send(msg_hold, sizeof(msg_hold) - 1);
 1397              		.loc 2 205 4 is_stmt 1
 205:src/main.cpp  **** 			uart1.send(msg_hold, sizeof(msg_hold) - 1);
 1398              		.loc 2 205 14 is_stmt 0
 1399 01b0 B7070000 		lui	a5,%hi(sens_val_border)
 1400 01b4 03C50700 		lbu	a0,%lo(sens_val_border)(a5)
 1401 01b8 B7070000 		lui	a5,%hi(msg_hold+17)
 1402 01bc 93851701 		addi	a1,a5,%lo(msg_hold+17)
 1403 01c0 0D46     		li	a2,3
 1404 01c2 97000000 		call	_Z10intToASCIIiPhh
 1404      E7800000 
 1405              	.LVL114:
 206:src/main.cpp  **** 			delayT(MS_TO_TICKS(15));
 1406              		.loc 2 206 4 is_stmt 1
 206:src/main.cpp  **** 			delayT(MS_TO_TICKS(15));
 1407              		.loc 2 206 14 is_stmt 0
 1408 01ca B7070000 		lui	a5,%hi(msg_hold)
 1409 01ce 0147     		li	a4,0
 1410 01d0 93850700 		addi	a1,a5,%lo(msg_hold)
 1411 01d4 8146     		li	a3,0
 1412 01d6 5546     		li	a2,21
 1413 01d8 13850400 		addi	a0,s1,%lo(uart1)
 1414 01dc 97000000 		call	_ZN4uart4sendEPhtPFvvEh
 1414      E7800000 
 1415              	.LVL115:
 207:src/main.cpp  **** 			led_off();
 1416              		.loc 2 207 4 is_stmt 1
 1417              	.LBB97:
 1418              	.LBB98:
  43:src/main.cpp  **** 	cnt_prev = SysTick->CNT;
 1419              		.loc 2 43 2
  44:src/main.cpp  **** 	cnt_cur = SysTick->CNT;
 1420              		.loc 2 44 2
  44:src/main.cpp  **** 	cnt_cur = SysTick->CNT;
 1421              		.loc 2 44 11 is_stmt 0
 1422 01e4 B7F700E0 		li	a5,-536809472
 1423 01e8 9847     		lw	a4,8(a5)
 1424              	.LVL116:
  45:src/main.cpp  **** 	while(cnt_cur < cnt_prev + val) {
 1425              		.loc 2 45 2 is_stmt 1
  45:src/main.cpp  **** 	while(cnt_cur < cnt_prev + val) {
 1426              		.loc 2 45 10 is_stmt 0
GAS LISTING /tmp/ccb6PqEo.s 			page 39


 1427 01ea 9C47     		lw	a5,8(a5)
 1428              	.LVL117:
  46:src/main.cpp  **** 		cnt_cur = SysTick->CNT;
 1429              		.loc 2 46 2 is_stmt 1
  46:src/main.cpp  **** 		cnt_cur = SysTick->CNT;
 1430              		.loc 2 46 16
  46:src/main.cpp  **** 		cnt_cur = SysTick->CNT;
 1431              		.loc 2 46 27 is_stmt 0
 1432 01ec 13079715 		addi	a4,a4,345
 1433              	.LVL118:
  46:src/main.cpp  **** 		cnt_cur = SysTick->CNT;
 1434              		.loc 2 46 16
 1435 01f0 63F7E700 		bgeu	a5,a4,.L95
  47:src/main.cpp  **** 	}
 1436              		.loc 2 47 11
 1437 01f4 B7F600E0 		li	a3,-536809472
 1438              	.LVL119:
 1439              	.L96:
  47:src/main.cpp  **** 	}
 1440              		.loc 2 47 3 is_stmt 1
  47:src/main.cpp  **** 	}
 1441              		.loc 2 47 11 is_stmt 0
 1442 01f8 9C46     		lw	a5,8(a3)
 1443              	.LVL120:
  46:src/main.cpp  **** 		cnt_cur = SysTick->CNT;
 1444              		.loc 2 46 16 is_stmt 1
 1445 01fa E3EFE7FE 		bltu	a5,a4,.L96
 1446              	.LVL121:
 1447              	.L95:
  49:src/main.cpp  **** }
 1448              		.loc 2 49 2
 1449              	.LBE98:
 1450              	.LBE97:
 208:src/main.cpp  **** 			awtr_state = toSleep;
 1451              		.loc 2 208 4
 208:src/main.cpp  **** 			awtr_state = toSleep;
 1452              		.loc 2 208 11 is_stmt 0
 1453 01fe 97000000 		call	_Z7led_offv
 1453      E7800000 
 1454              	.LVL122:
 1455              	.L110:
 209:src/main.cpp  **** 			break;
 1456              		.loc 2 209 4 is_stmt 1
 209:src/main.cpp  **** 			break;
 1457              		.loc 2 209 15 is_stmt 0
 1458 0206 9147     		li	a5,4
 1459 0208 2320F400 		sw	a5,%lo(awtr_state)(s0)
 210:src/main.cpp  **** 		case long_hold:
 1460              		.loc 2 210 4 is_stmt 1
 1461 020c 8DB5     		j	.L74
 1462              	.L79:
 175:src/main.cpp  **** 			led_on();
 1463              		.loc 2 175 3
 176:src/main.cpp  **** 			delayT(MS_TO_TICKS(10));
 1464              		.loc 2 176 4
 176:src/main.cpp  **** 			delayT(MS_TO_TICKS(10));
 1465              		.loc 2 176 10 is_stmt 0
GAS LISTING /tmp/ccb6PqEo.s 			page 40


 1466 020e 97000000 		call	_Z6led_onv
 1466      E7800000 
 1467              	.LVL123:
 177:src/main.cpp  **** 			led_off();
 1468              		.loc 2 177 4 is_stmt 1
 1469              	.LBB99:
 1470              	.LBB100:
  43:src/main.cpp  **** 	cnt_prev = SysTick->CNT;
 1471              		.loc 2 43 2
  44:src/main.cpp  **** 	cnt_cur = SysTick->CNT;
 1472              		.loc 2 44 2
  44:src/main.cpp  **** 	cnt_cur = SysTick->CNT;
 1473              		.loc 2 44 11 is_stmt 0
 1474 0216 B7F700E0 		li	a5,-536809472
 1475 021a 9847     		lw	a4,8(a5)
 1476              	.LVL124:
  45:src/main.cpp  **** 	while(cnt_cur < cnt_prev + val) {
 1477              		.loc 2 45 2 is_stmt 1
  45:src/main.cpp  **** 	while(cnt_cur < cnt_prev + val) {
 1478              		.loc 2 45 10 is_stmt 0
 1479 021c 9C47     		lw	a5,8(a5)
 1480              	.LVL125:
  46:src/main.cpp  **** 		cnt_cur = SysTick->CNT;
 1481              		.loc 2 46 2 is_stmt 1
  46:src/main.cpp  **** 		cnt_cur = SysTick->CNT;
 1482              		.loc 2 46 16
  46:src/main.cpp  **** 		cnt_cur = SysTick->CNT;
 1483              		.loc 2 46 27 is_stmt 0
 1484 021e 1307670E 		addi	a4,a4,230
 1485              	.LVL126:
  46:src/main.cpp  **** 		cnt_cur = SysTick->CNT;
 1486              		.loc 2 46 16
 1487 0222 63F7E700 		bgeu	a5,a4,.L85
  47:src/main.cpp  **** 	}
 1488              		.loc 2 47 11
 1489 0226 B7F600E0 		li	a3,-536809472
 1490              	.LVL127:
 1491              	.L86:
  47:src/main.cpp  **** 	}
 1492              		.loc 2 47 3 is_stmt 1
  47:src/main.cpp  **** 	}
 1493              		.loc 2 47 11 is_stmt 0
 1494 022a 9C46     		lw	a5,8(a3)
 1495              	.LVL128:
  46:src/main.cpp  **** 		cnt_cur = SysTick->CNT;
 1496              		.loc 2 46 16 is_stmt 1
 1497 022c E3EFE7FE 		bltu	a5,a4,.L86
 1498              	.LVL129:
 1499              	.L85:
  49:src/main.cpp  **** }
 1500              		.loc 2 49 2
 1501              	.LBE100:
 1502              	.LBE99:
 178:src/main.cpp  **** 			sens_val = sens_get();
 1503              		.loc 2 178 4
 178:src/main.cpp  **** 			sens_val = sens_get();
 1504              		.loc 2 178 11 is_stmt 0
GAS LISTING /tmp/ccb6PqEo.s 			page 41


 1505 0230 97000000 		call	_Z7led_offv
 1505      E7800000 
 1506              	.LVL130:
 179:src/main.cpp  **** 			if(sens_val > sens_val_border) {
 1507              		.loc 2 179 4 is_stmt 1
 179:src/main.cpp  **** 			if(sens_val > sens_val_border) {
 1508              		.loc 2 179 23 is_stmt 0
 1509 0238 97000000 		call	_Z8sens_getv
 1509      E7800000 
 1510              	.LVL131:
 180:src/main.cpp  **** 				__disable_irq();
 1511              		.loc 2 180 4
 1512 0240 B7070000 		lui	a5,%hi(sens_val_border)
 1513 0244 83C70700 		lbu	a5,%lo(sens_val_border)(a5)
 179:src/main.cpp  **** 			if(sens_val > sens_val_border) {
 1514              		.loc 2 179 13
 1515 0248 1375F50F 		andi	a0,a0,0xff
 1516 024c 37070000 		lui	a4,%hi(sens_val)
 1517 0250 2300A700 		sb	a0,%lo(sens_val)(a4)
 180:src/main.cpp  **** 				__disable_irq();
 1518              		.loc 2 180 4 is_stmt 1
 1519 0254 63EAA70C 		bltu	a5,a0,.L111
 190:src/main.cpp  **** 				uart1.send(msg_click_wet, sizeof(msg_click_wet) - 1);
 1520              		.loc 2 190 5
 190:src/main.cpp  **** 				uart1.send(msg_click_wet, sizeof(msg_click_wet) - 1);
 1521              		.loc 2 190 15 is_stmt 0
 1522 0258 B7070000 		lui	a5,%hi(msg_click_wet+15)
 1523 025c 9385F700 		addi	a1,a5,%lo(msg_click_wet+15)
 1524 0260 0D46     		li	a2,3
 1525 0262 97000000 		call	_Z10intToASCIIiPhh
 1525      E7800000 
 1526              	.LVL132:
 191:src/main.cpp  **** 			}
 1527              		.loc 2 191 5 is_stmt 1
 191:src/main.cpp  **** 			}
 1528              		.loc 2 191 15 is_stmt 0
 1529 026a B7070000 		lui	a5,%hi(msg_click_wet)
 1530 026e 0147     		li	a4,0
 1531 0270 8146     		li	a3,0
 1532 0272 4D46     		li	a2,19
 1533 0274 93850700 		addi	a1,a5,%lo(msg_click_wet)
 1534 0278 13850400 		addi	a0,s1,%lo(uart1)
 1535 027c 97000000 		call	_ZN4uart4sendEPhtPFvvEh
 1535      E7800000 
 1536              	.LVL133:
 193:src/main.cpp  **** 			break;
 1537              		.loc 2 193 4 is_stmt 1
 1538 0284 49B7     		j	.L110
 1539              	.L80:
 163:src/main.cpp  **** 			uint32_t cnt_prev, cnt_cur;
 1540              		.loc 2 163 3
 164:src/main.cpp  **** 			cnt_prev = SysTick->CNT;
 1541              		.loc 2 164 4
 165:src/main.cpp  **** 			cnt_cur = SysTick->CNT;
 1542              		.loc 2 165 4
 165:src/main.cpp  **** 			cnt_cur = SysTick->CNT;
 1543              		.loc 2 165 13 is_stmt 0
GAS LISTING /tmp/ccb6PqEo.s 			page 42


 1544 0286 B7F700E0 		li	a5,-536809472
 1545 028a 9847     		lw	a4,8(a5)
 1546              	.LVL134:
 166:src/main.cpp  **** 			while(cnt_cur < cnt_prev + MS_TO_TICKS(10000) && awtr_state == waiting) {
 1547              		.loc 2 166 4 is_stmt 1
 166:src/main.cpp  **** 			while(cnt_cur < cnt_prev + MS_TO_TICKS(10000) && awtr_state == waiting) {
 1548              		.loc 2 166 12 is_stmt 0
 1549 028c 9447     		lw	a3,8(a5)
 1550              	.LVL135:
 167:src/main.cpp  **** 				cnt_cur = SysTick->CNT;
 1551              		.loc 2 167 4 is_stmt 1
 167:src/main.cpp  **** 				cnt_cur = SysTick->CNT;
 1552              		.loc 2 167 50
 167:src/main.cpp  **** 				cnt_cur = SysTick->CNT;
 1553              		.loc 2 167 29 is_stmt 0
 1554 028e B7870300 		li	a5,229376
 1555 0292 93870727 		addi	a5,a5,624
 1556 0296 3E97     		add	a4,a4,a5
 1557              	.LVL136:
 167:src/main.cpp  **** 				cnt_cur = SysTick->CNT;
 1558              		.loc 2 167 50
 1559 0298 63FBE600 		bgeu	a3,a4,.L81
 168:src/main.cpp  **** 			}
 1560              		.loc 2 168 13
 1561 029c B7F600E0 		li	a3,-536809472
 1562 02a0 21A0     		j	.L82
 1563              	.L112:
 168:src/main.cpp  **** 			}
 1564              		.loc 2 168 5 is_stmt 1
 168:src/main.cpp  **** 			}
 1565              		.loc 2 168 13 is_stmt 0
 1566 02a2 9C46     		lw	a5,8(a3)
 1567              	.LVL137:
 167:src/main.cpp  **** 				cnt_cur = SysTick->CNT;
 1568              		.loc 2 167 50 is_stmt 1
 1569 02a4 63F5E700 		bgeu	a5,a4,.L81
 1570              	.LVL138:
 1571              	.L82:
 167:src/main.cpp  **** 				cnt_cur = SysTick->CNT;
 1572              		.loc 2 167 64 is_stmt 0 discriminator 1
 1573 02a8 83270400 		lw	a5,%lo(awtr_state)(s0)
 167:src/main.cpp  **** 				cnt_cur = SysTick->CNT;
 1574              		.loc 2 167 50 discriminator 1
 1575 02ac FDDB     		beq	a5,zero,.L112
 1576              	.LVL139:
 1577              	.L81:
 170:src/main.cpp  **** 				awtr_state = toSleep;
 1578              		.loc 2 170 4 is_stmt 1
 170:src/main.cpp  **** 				awtr_state = toSleep;
 1579              		.loc 2 170 18 is_stmt 0
 1580 02ae 83270400 		lw	a5,%lo(awtr_state)(s0)
 170:src/main.cpp  **** 				awtr_state = toSleep;
 1581              		.loc 2 170 4
 1582 02b2 E39E07DA 		bne	a5,zero,.L74
 1583 02b6 81BF     		j	.L110
 1584              	.LVL140:
 1585              	.L75:
GAS LISTING /tmp/ccb6PqEo.s 			page 43


 220:src/main.cpp  **** 			}
 221:src/main.cpp  **** 			break;
 222:src/main.cpp  **** 
 223:src/main.cpp  **** 		case toSleep:
 1586              		.loc 2 223 3 is_stmt 1
 224:src/main.cpp  **** 			uart1.sync();
 1587              		.loc 2 224 4
 1588              		.loc 2 224 14 is_stmt 0
 1589 02b8 13850400 		addi	a0,s1,%lo(uart1)
 1590 02bc 97000000 		call	_ZN4uart4syncEv
 1590      E7800000 
 1591              	.LVL141:
 225:src/main.cpp  **** 			uart1.print("chip fall asleep\n");
 1592              		.loc 2 225 4 is_stmt 1
 1593              		.loc 2 225 15 is_stmt 0
 1594 02c4 B7070000 		lui	a5,%hi(.LC2)
 1595 02c8 93850700 		addi	a1,a5,%lo(.LC2)
 1596 02cc 13850400 		addi	a0,s1,%lo(uart1)
 1597 02d0 97000000 		call	_ZN4uart5printEPKc
 1597      E7800000 
 1598              	.LVL142:
 226:src/main.cpp  **** 			uart1.sync();
 1599              		.loc 2 226 4 is_stmt 1
 1600              		.loc 2 226 14 is_stmt 0
 1601 02d8 13850400 		addi	a0,s1,%lo(uart1)
 1602 02dc 97000000 		call	_ZN4uart4syncEv
 1602      E7800000 
 1603              	.LVL143:
 227:src/main.cpp  **** 			RCC->APB2PCENR &= ~(RCC_IOPARST | RCC_ADC1RST | RCC_USART1RST);
 1604              		.loc 2 227 4 is_stmt 1
 1605              		.loc 2 227 9 is_stmt 0
 1606 02e4 B7170240 		li	a5,1073876992
 1607 02e8 984F     		lw	a4,24(a5)
 1608              		.loc 2 227 19
 1609 02ea F176     		li	a3,-16384
 1610 02ec 9386B6DF 		addi	a3,a3,-517
 1611 02f0 758F     		and	a4,a4,a3
 1612 02f2 98CF     		sw	a4,24(a5)
 228:src/main.cpp  **** 			__WFI();
 1613              		.loc 2 228 4 is_stmt 1
 1614              	.LBB101:
 1615              	.LBB102:
 189:src/core/core_riscv.h **** }
 190:src/core/core_riscv.h **** 
 191:src/core/core_riscv.h **** /*********************************************************************
 192:src/core/core_riscv.h ****  * @fn       NVIC_DisableIRQ
 193:src/core/core_riscv.h ****  *
 194:src/core/core_riscv.h ****  * @brief   Disable Interrupt
 195:src/core/core_riscv.h ****  *
 196:src/core/core_riscv.h ****  * @param   IRQn - Interrupt Numbers
 197:src/core/core_riscv.h ****  *
 198:src/core/core_riscv.h ****  * @return  none
 199:src/core/core_riscv.h ****  */
 200:src/core/core_riscv.h **** RV_STATIC_INLINE void NVIC_DisableIRQ(IRQn_Type IRQn)
 201:src/core/core_riscv.h **** {
 202:src/core/core_riscv.h ****   NVIC->IRER[((uint32_t)(IRQn) >> 5)] = (1 << ((uint32_t)(IRQn) & 0x1F));
 203:src/core/core_riscv.h **** }
GAS LISTING /tmp/ccb6PqEo.s 			page 44


 204:src/core/core_riscv.h **** 
 205:src/core/core_riscv.h **** /*********************************************************************
 206:src/core/core_riscv.h ****  * @fn       NVIC_GetStatusIRQ
 207:src/core/core_riscv.h ****  *
 208:src/core/core_riscv.h ****  * @brief   Get Interrupt Enable State
 209:src/core/core_riscv.h ****  *
 210:src/core/core_riscv.h ****  * @param   IRQn - Interrupt Numbers
 211:src/core/core_riscv.h ****  *
 212:src/core/core_riscv.h ****  * @return  1 - 1: Interrupt Pending Enable
 213:src/core/core_riscv.h ****  *                0 - Interrupt Pending Disable
 214:src/core/core_riscv.h ****  */
 215:src/core/core_riscv.h **** RV_STATIC_INLINE uint32_t NVIC_GetStatusIRQ(IRQn_Type IRQn)
 216:src/core/core_riscv.h **** {
 217:src/core/core_riscv.h ****   return((uint32_t) ((NVIC->ISR[(uint32_t)(IRQn) >> 5] & (1 << ((uint32_t)(IRQn) & 0x1F)))?1:0));
 218:src/core/core_riscv.h **** }
 219:src/core/core_riscv.h **** 
 220:src/core/core_riscv.h **** /*********************************************************************
 221:src/core/core_riscv.h ****  * @fn      NVIC_GetPendingIRQ
 222:src/core/core_riscv.h ****  *
 223:src/core/core_riscv.h ****  * @brief   Get Interrupt Pending State
 224:src/core/core_riscv.h ****  *
 225:src/core/core_riscv.h ****  * @param   IRQn - Interrupt Numbers
 226:src/core/core_riscv.h ****  *
 227:src/core/core_riscv.h ****  * @return  1 - 1: Interrupt Pending Enable
 228:src/core/core_riscv.h ****  *                0 - Interrupt Pending Disable
 229:src/core/core_riscv.h ****  */
 230:src/core/core_riscv.h **** RV_STATIC_INLINE uint32_t NVIC_GetPendingIRQ(IRQn_Type IRQn)
 231:src/core/core_riscv.h **** {
 232:src/core/core_riscv.h ****   return((uint32_t) ((NVIC->IPR[(uint32_t)(IRQn) >> 5] & (1 << ((uint32_t)(IRQn) & 0x1F)))?1:0));
 233:src/core/core_riscv.h **** }
 234:src/core/core_riscv.h **** 
 235:src/core/core_riscv.h **** /*********************************************************************
 236:src/core/core_riscv.h ****  * @fn      NVIC_SetPendingIRQ
 237:src/core/core_riscv.h ****  *
 238:src/core/core_riscv.h ****  * @brief   Set Interrupt Pending
 239:src/core/core_riscv.h ****  *
 240:src/core/core_riscv.h ****  * @param   IRQn - Interrupt Numbers
 241:src/core/core_riscv.h ****  *
 242:src/core/core_riscv.h ****  * @return  none
 243:src/core/core_riscv.h ****  */
 244:src/core/core_riscv.h **** RV_STATIC_INLINE void NVIC_SetPendingIRQ(IRQn_Type IRQn)
 245:src/core/core_riscv.h **** {
 246:src/core/core_riscv.h ****   NVIC->IPSR[((uint32_t)(IRQn) >> 5)] = (1 << ((uint32_t)(IRQn) & 0x1F));
 247:src/core/core_riscv.h **** }
 248:src/core/core_riscv.h **** 
 249:src/core/core_riscv.h **** /*********************************************************************
 250:src/core/core_riscv.h ****  * @fn      NVIC_ClearPendingIRQ
 251:src/core/core_riscv.h ****  *
 252:src/core/core_riscv.h ****  * @brief   Clear Interrupt Pending
 253:src/core/core_riscv.h ****  *
 254:src/core/core_riscv.h ****  * @param   IRQn - Interrupt Numbers
 255:src/core/core_riscv.h ****  *
 256:src/core/core_riscv.h ****  * @return  none
 257:src/core/core_riscv.h ****  */
 258:src/core/core_riscv.h **** RV_STATIC_INLINE void NVIC_ClearPendingIRQ(IRQn_Type IRQn)
 259:src/core/core_riscv.h **** {
 260:src/core/core_riscv.h ****   NVIC->IPRR[((uint32_t)(IRQn) >> 5)] = (1 << ((uint32_t)(IRQn) & 0x1F));
GAS LISTING /tmp/ccb6PqEo.s 			page 45


 261:src/core/core_riscv.h **** }
 262:src/core/core_riscv.h **** 
 263:src/core/core_riscv.h **** /*********************************************************************
 264:src/core/core_riscv.h ****  * @fn      NVIC_GetActive
 265:src/core/core_riscv.h ****  *
 266:src/core/core_riscv.h ****  * @brief   Get Interrupt Active State
 267:src/core/core_riscv.h ****  *
 268:src/core/core_riscv.h ****  * @param   IRQn - Interrupt Numbers
 269:src/core/core_riscv.h ****  *
 270:src/core/core_riscv.h ****  * @return  1 - Interrupt Active
 271:src/core/core_riscv.h ****  *                0 - Interrupt No Active
 272:src/core/core_riscv.h ****  */
 273:src/core/core_riscv.h **** RV_STATIC_INLINE uint32_t NVIC_GetActive(IRQn_Type IRQn)
 274:src/core/core_riscv.h **** {
 275:src/core/core_riscv.h ****   return((uint32_t)((NVIC->IACTR[(uint32_t)(IRQn) >> 5] & (1 << ((uint32_t)(IRQn) & 0x1F)))?1:0));
 276:src/core/core_riscv.h **** }
 277:src/core/core_riscv.h **** 
 278:src/core/core_riscv.h **** /*********************************************************************
 279:src/core/core_riscv.h ****  * @fn      NVIC_SetPriority
 280:src/core/core_riscv.h ****  *
 281:src/core/core_riscv.h ****  * @brief   Set Interrupt Priority
 282:src/core/core_riscv.h ****  *
 283:src/core/core_riscv.h ****  * @param   IRQn - Interrupt Numbers
 284:src/core/core_riscv.h ****  *          priority: bit7 - pre-emption priority
 285:src/core/core_riscv.h ****  *                    bit6 - subpriority
 286:src/core/core_riscv.h ****  *                    bit[5-0] - reserved
 287:src/core/core_riscv.h ****  *
 288:src/core/core_riscv.h ****  * @return  none
 289:src/core/core_riscv.h ****  */
 290:src/core/core_riscv.h **** RV_STATIC_INLINE void NVIC_SetPriority(IRQn_Type IRQn, uint8_t priority)
 291:src/core/core_riscv.h **** {
 292:src/core/core_riscv.h ****   NVIC->IPRIOR[(uint32_t)(IRQn)] = priority;
 293:src/core/core_riscv.h **** }
 294:src/core/core_riscv.h **** 
 295:src/core/core_riscv.h **** /*********************************************************************
 296:src/core/core_riscv.h ****  * @fn       __WFI
 297:src/core/core_riscv.h ****  *
 298:src/core/core_riscv.h ****  * @brief   Wait for Interrupt
 299:src/core/core_riscv.h ****  *
 300:src/core/core_riscv.h ****  * @return  none
 301:src/core/core_riscv.h ****  */
 302:src/core/core_riscv.h **** __attribute__( ( always_inline ) ) RV_STATIC_INLINE void __WFI(void)
 303:src/core/core_riscv.h **** {
 304:src/core/core_riscv.h ****   NVIC->SCTLR &= ~(1<<3);   // wfi
 1616              		.loc 3 304 3
 1617              		.loc 3 304 9 is_stmt 0
 1618 02f4 B7F600E0 		li	a3,-536809472
 1619 02f8 03A706D1 		lw	a4,-752(a3)
 1620              		.loc 3 304 15
 1621 02fc 5D9B     		andi	a4,a4,-9
 1622 02fe 23A8E6D0 		sw	a4,-752(a3)
 305:src/core/core_riscv.h ****   asm volatile ("wfi");
 1623              		.loc 3 305 3 is_stmt 1
 1624              	 #APP
 1625              	# 305 "src/core/core_riscv.h" 1
 306              	}
 1626              		wfi
GAS LISTING /tmp/ccb6PqEo.s 			page 46


 1627              	# 0 "" 2
 1628              	 #NO_APP
 1629              	.LBE102:
 1630              	.LBE101:
 229:src/main.cpp  **** 
 230:src/main.cpp  **** 			RCC->APB2PCENR |= RCC_IOPAEN | RCC_IOPCEN | RCC_IOPDEN | 
 1631              		.loc 2 230 4
 1632              		.loc 2 230 9 is_stmt 0
 1633 0306 984F     		lw	a4,24(a5)
 1634              		.loc 2 230 19
 1635 0308 9166     		li	a3,16384
 1636 030a 93865623 		addi	a3,a3,565
 1637 030e 558F     		or	a4,a4,a3
 1638 0310 98CF     		sw	a4,24(a5)
 231:src/main.cpp  **** 	                  RCC_ADC1EN | RCC_USART1EN | RCC_AFIOEN;
 232:src/main.cpp  **** 			uart1.print("chip wake up \\(^o^)/\n");
 1639              		.loc 2 232 4 is_stmt 1
 1640              		.loc 2 232 15 is_stmt 0
 1641 0312 B7070000 		lui	a5,%hi(.LC3)
 1642 0316 93850700 		addi	a1,a5,%lo(.LC3)
 1643 031a 13850400 		addi	a0,s1,%lo(uart1)
 1644 031e 97000000 		call	_ZN4uart5printEPKc
 1644      E7800000 
 1645              	.LVL144:
 233:src/main.cpp  **** 			break;
 1646              		.loc 2 233 4 is_stmt 1
 1647 0326 A1B3     		j	.L74
 1648              	.L111:
 181:src/main.cpp  **** 				pump_on();
 1649              		.loc 2 181 5
 1650              	.LBB103:
 1651              	.LBB104:
 158:src/core/core_riscv.h **** 
 1652              		.loc 3 158 3
 160:src/core/core_riscv.h ****   result &= ~0x88;
 1653              		.loc 3 160 3
 1654              	 #APP
 1655              	# 160 "src/core/core_riscv.h" 1
 1656              		csrr a5,mstatus
 1657              	# 0 "" 2
 1658              	.LVL145:
 161:src/core/core_riscv.h ****   __asm volatile ("csrw mstatus, %0" : : "r" (result) );
 1659              		.loc 3 161 3
 162:src/core/core_riscv.h **** }
 1660              		.loc 3 162 3
 161:src/core/core_riscv.h ****   __asm volatile ("csrw mstatus, %0" : : "r" (result) );
 1661              		.loc 3 161 10 is_stmt 0
 1662              	 #NO_APP
 1663 032c 93F777F7 		andi	a5,a5,-137
 1664              	.LVL146:
 162:src/core/core_riscv.h **** }
 1665              		.loc 3 162 3
 1666              	 #APP
 1667              	# 162 "src/core/core_riscv.h" 1
 1668              		csrw mstatus, a5
 1669              	# 0 "" 2
 1670              	.LVL147:
GAS LISTING /tmp/ccb6PqEo.s 			page 47


 1671              	 #NO_APP
 1672              	.LBE104:
 1673              	.LBE103:
 182:src/main.cpp  **** 				delayT(MS_TO_TICKS(AWTR_WATERING_DUR));
 1674              		.loc 2 182 5 is_stmt 1
 182:src/main.cpp  **** 				delayT(MS_TO_TICKS(AWTR_WATERING_DUR));
 1675              		.loc 2 182 12 is_stmt 0
 1676 0334 97000000 		call	_Z7pump_onv
 1676      E7800000 
 1677              	.LVL148:
 183:src/main.cpp  **** 				pump_off();
 1678              		.loc 2 183 5 is_stmt 1
 1679              	.LBB105:
 1680              	.LBB106:
  43:src/main.cpp  **** 	cnt_prev = SysTick->CNT;
 1681              		.loc 2 43 2
  44:src/main.cpp  **** 	cnt_cur = SysTick->CNT;
 1682              		.loc 2 44 2
  44:src/main.cpp  **** 	cnt_cur = SysTick->CNT;
 1683              		.loc 2 44 11 is_stmt 0
 1684 033c B7F700E0 		li	a5,-536809472
 1685 0340 9847     		lw	a4,8(a5)
 1686              	.LVL149:
  45:src/main.cpp  **** 	while(cnt_cur < cnt_prev + val) {
 1687              		.loc 2 45 2 is_stmt 1
  45:src/main.cpp  **** 	while(cnt_cur < cnt_prev + val) {
 1688              		.loc 2 45 10 is_stmt 0
 1689 0342 9447     		lw	a3,8(a5)
 1690              	.LVL150:
  46:src/main.cpp  **** 		cnt_cur = SysTick->CNT;
 1691              		.loc 2 46 2 is_stmt 1
  46:src/main.cpp  **** 		cnt_cur = SysTick->CNT;
 1692              		.loc 2 46 16
  46:src/main.cpp  **** 		cnt_cur = SysTick->CNT;
 1693              		.loc 2 46 27 is_stmt 0
 1694 0344 AD67     		li	a5,45056
 1695 0346 9387073B 		addi	a5,a5,944
 1696 034a 3E97     		add	a4,a4,a5
 1697              	.LVL151:
  46:src/main.cpp  **** 		cnt_cur = SysTick->CNT;
 1698              		.loc 2 46 16
 1699 034c 63F7E600 		bgeu	a3,a4,.L88
  47:src/main.cpp  **** 	}
 1700              		.loc 2 47 11
 1701 0350 B7F600E0 		li	a3,-536809472
 1702              	.LVL152:
 1703              	.L89:
  47:src/main.cpp  **** 	}
 1704              		.loc 2 47 3 is_stmt 1
  47:src/main.cpp  **** 	}
 1705              		.loc 2 47 11 is_stmt 0
 1706 0354 9C46     		lw	a5,8(a3)
 1707              	.LVL153:
  46:src/main.cpp  **** 		cnt_cur = SysTick->CNT;
 1708              		.loc 2 46 16 is_stmt 1
 1709 0356 E3EFE7FE 		bltu	a5,a4,.L89
 1710              	.LVL154:
GAS LISTING /tmp/ccb6PqEo.s 			page 48


 1711              	.L88:
  49:src/main.cpp  **** }
 1712              		.loc 2 49 2
 1713              	.LBE106:
 1714              	.LBE105:
 184:src/main.cpp  **** 				__enable_irq();
 1715              		.loc 2 184 5
 184:src/main.cpp  **** 				__enable_irq();
 1716              		.loc 2 184 13 is_stmt 0
 1717 035a 97000000 		call	_Z8pump_offv
 1717      E7800000 
 1718              	.LVL155:
 185:src/main.cpp  **** 				intToASCII(sens_val, msg_click_dry + 15, 3);
 1719              		.loc 2 185 5 is_stmt 1
 1720              	.LBB107:
 1721              	.LBB108:
 142:src/core/core_riscv.h **** 
 1722              		.loc 3 142 3
 144:src/core/core_riscv.h ****   result |= 0x88;
 1723              		.loc 3 144 3
 1724              	 #APP
 1725              	# 144 "src/core/core_riscv.h" 1
 1726              		csrr a5,mstatus
 1727              	# 0 "" 2
 1728              	.LVL156:
 145:src/core/core_riscv.h ****   __asm volatile ("csrw mstatus, %0" : : "r" (result) );
 1729              		.loc 3 145 3
 146:src/core/core_riscv.h **** }
 1730              		.loc 3 146 3
 145:src/core/core_riscv.h ****   __asm volatile ("csrw mstatus, %0" : : "r" (result) );
 1731              		.loc 3 145 10 is_stmt 0
 1732              	 #NO_APP
 1733 0366 93E78708 		ori	a5,a5,136
 1734              	.LVL157:
 146:src/core/core_riscv.h **** }
 1735              		.loc 3 146 3
 1736              	 #APP
 1737              	# 146 "src/core/core_riscv.h" 1
 1738              		csrw mstatus, a5
 1739              	# 0 "" 2
 1740              	.LVL158:
 1741              	 #NO_APP
 1742              	.LBE108:
 1743              	.LBE107:
 186:src/main.cpp  **** 				uart1.send(msg_click_dry, sizeof(msg_click_dry) - 1);
 1744              		.loc 2 186 5 is_stmt 1
 186:src/main.cpp  **** 				uart1.send(msg_click_dry, sizeof(msg_click_dry) - 1);
 1745              		.loc 2 186 15 is_stmt 0
 1746 036e B7070000 		lui	a5,%hi(sens_val)
 1747 0372 03C50700 		lbu	a0,%lo(sens_val)(a5)
 1748 0376 B7070000 		lui	a5,%hi(msg_click_dry+15)
 1749 037a 9385F700 		addi	a1,a5,%lo(msg_click_dry+15)
 1750 037e 0D46     		li	a2,3
 1751 0380 97000000 		call	_Z10intToASCIIiPhh
 1751      E7800000 
 1752              	.LVL159:
 187:src/main.cpp  **** 			}
GAS LISTING /tmp/ccb6PqEo.s 			page 49


 1753              		.loc 2 187 5 is_stmt 1
 187:src/main.cpp  **** 			}
 1754              		.loc 2 187 15 is_stmt 0
 1755 0388 B7070000 		lui	a5,%hi(msg_click_dry)
 1756 038c 0147     		li	a4,0
 1757 038e 8146     		li	a3,0
 1758 0390 4D46     		li	a2,19
 1759 0392 93850700 		addi	a1,a5,%lo(msg_click_dry)
 1760 0396 13850400 		addi	a0,s1,%lo(uart1)
 1761 039a 97000000 		call	_ZN4uart4sendEPhtPFvvEh
 1761      E7800000 
 1762              	.LVL160:
 1763 03a2 95B5     		j	.L110
 1764              	.LBE78:
 1765              	.LBE77:
 1766              		.cfi_endproc
 1767              	.LFE23:
 1769              		.section	.text.USART1_IRQHandler,"ax",@progbits
 1770              		.align	1
 1771              		.globl	USART1_IRQHandler
 1773              	USART1_IRQHandler:
 1774              	.LFB24:
 234:src/main.cpp  **** 		}
 235:src/main.cpp  **** 	}
 236:src/main.cpp  **** 	return 0;
 237:src/main.cpp  **** }
 238:src/main.cpp  **** 
 239:src/main.cpp  **** /* Interrupts */
 240:src/main.cpp  **** extern "C"{
 241:src/main.cpp  **** __attribute((interrupt("WCH-Interrupt-fast")))
 242:src/main.cpp  **** void USART1_IRQHandler(void) {
 1775              		.loc 2 242 30 is_stmt 1
 1776              		.cfi_startproc
 243:src/main.cpp  ****     uart1.interruptHandler();
 1777              		.loc 2 243 5
 1778              		.loc 2 243 27 is_stmt 0
 1779 0000 37050000 		lui	a0,%hi(uart1)
 1780 0004 13050500 		addi	a0,a0,%lo(uart1)
 1781 0008 97000000 		call	_ZN4uart16interruptHandlerEv
 1781      E7800000 
 1782              	.LVL161:
 244:src/main.cpp  **** }
 1783              		.loc 2 244 1
 1784 0010 73002030 		mret
 1785              		.cfi_endproc
 1786              	.LFE24:
 1788              		.section	.rodata.SysTick_IRQHandler.str1.4,"aMS",@progbits,1
 1789              		.align	2
 1790              	.LC4:
 1791 0000 54696D65 		.string	"Timer update\n"
 1791      72207570 
 1791      64617465 
 1791      0A00
 1792              		.section	.text.SysTick_IRQHandler,"ax",@progbits
 1793              		.align	1
 1794              		.globl	SysTick_IRQHandler
 1796              	SysTick_IRQHandler:
GAS LISTING /tmp/ccb6PqEo.s 			page 50


 1797              	.LFB25:
 245:src/main.cpp  **** 
 246:src/main.cpp  **** __attribute((interrupt("WCH-Interrupt-fast")))
 247:src/main.cpp  **** void SysTick_IRQHandler(void) {
 1798              		.loc 2 247 31 is_stmt 1
 1799              		.cfi_startproc
 248:src/main.cpp  **** 	SysTick->SR = 0;
 1800              		.loc 2 248 2
 1801              		.loc 2 248 14 is_stmt 0
 1802 0000 B7F700E0 		li	a5,-536809472
 249:src/main.cpp  **** 	uart1.print("Timer update\n");
 1803              		.loc 2 249 13
 1804 0004 B7050000 		lui	a1,%hi(.LC4)
 1805 0008 37050000 		lui	a0,%hi(uart1)
 248:src/main.cpp  **** 	SysTick->SR = 0;
 1806              		.loc 2 248 14
 1807 000c 23A20700 		sw	zero,4(a5)
 1808              		.loc 2 249 2 is_stmt 1
 1809              		.loc 2 249 13 is_stmt 0
 1810 0010 93850500 		addi	a1,a1,%lo(.LC4)
 1811 0014 13050500 		addi	a0,a0,%lo(uart1)
 1812 0018 97000000 		call	_ZN4uart5printEPKc
 1812      E7800000 
 1813              	.LVL162:
 250:src/main.cpp  **** 	awtr_state = click;
 1814              		.loc 2 250 2 is_stmt 1
 1815              		.loc 2 250 13 is_stmt 0
 1816 0020 B7070000 		lui	a5,%hi(awtr_state)
 1817 0024 0547     		li	a4,1
 1818 0026 23A0E700 		sw	a4,%lo(awtr_state)(a5)
 251:src/main.cpp  **** 	return;
 1819              		.loc 2 251 2 is_stmt 1
 252:src/main.cpp  **** }
 1820              		.loc 2 252 1 is_stmt 0
 1821 002a 73002030 		mret
 1822              		.cfi_endproc
 1823              	.LFE25:
 1825              		.section	.rodata.EXTI7_0_IRQHandler.str1.4,"aMS",@progbits,1
 1826              		.align	2
 1827              	.LC5:
 1828 0000 62757474 		.string	"button was pressed\n"
 1828      6F6E2077 
 1828      61732070 
 1828      72657373 
 1828      65640A00 
 1829              		.align	2
 1830              	.LC6:
 1831 0014 62757474 		.string	"button was released\n"
 1831      6F6E2077 
 1831      61732072 
 1831      656C6561 
 1831      7365640A 
 1832              		.section	.text.EXTI7_0_IRQHandler,"ax",@progbits
 1833              		.align	1
 1834              		.globl	EXTI7_0_IRQHandler
 1836              	EXTI7_0_IRQHandler:
 1837              	.LFB26:
GAS LISTING /tmp/ccb6PqEo.s 			page 51


 253:src/main.cpp  **** 
 254:src/main.cpp  **** __attribute((interrupt("WCH-Interrupt-fast")))
 255:src/main.cpp  **** void EXTI7_0_IRQHandler(void) {
 1838              		.loc 2 255 31 is_stmt 1
 1839              		.cfi_startproc
 256:src/main.cpp  **** 	EXTI->INTFR |= 1 << btn_pin;
 1840              		.loc 2 256 2
 1841              		.loc 2 256 8 is_stmt 0
 1842 0000 B7070140 		li	a5,1073807360
 1843 0004 03A74741 		lw	a4,1044(a5)
 1844              		.loc 2 256 14
 1845 0008 13670701 		ori	a4,a4,16
 1846 000c 23AAE740 		sw	a4,1044(a5)
 257:src/main.cpp  **** 	static uint32_t wait;
 1847              		.loc 2 257 2 is_stmt 1
 258:src/main.cpp  **** 
 259:src/main.cpp  **** 	static uint8_t btn_state_last = 0;
 1848              		.loc 2 259 2
 260:src/main.cpp  **** 	uint8_t btn_state_new = btn_state();
 1849              		.loc 2 260 2
 1850              		.loc 2 260 35 is_stmt 0
 1851 0010 97000000 		call	_Z9btn_statev
 1851      E7800000 
 1852              	.LVL163:
 261:src/main.cpp  **** 	if(btn_state_new == btn_state_last) {
 1853              		.loc 2 261 19
 1854 0018 B7070000 		lui	a5,%hi(_ZZ18EXTI7_0_IRQHandlerE14btn_state_last)
 1855              		.loc 2 261 2
 1856 001c 03C70700 		lbu	a4,%lo(_ZZ18EXTI7_0_IRQHandlerE14btn_state_last)(a5)
 1857              	.LVL164:
 1858              		.loc 2 261 2 is_stmt 1
 1859 0020 630CA702 		beq	a4,a0,.L115
 262:src/main.cpp  **** 		return;
 263:src/main.cpp  **** 	}
 264:src/main.cpp  **** 	btn_state_last = btn_state_new;
 1860              		.loc 2 264 2
 1861              		.loc 2 264 17 is_stmt 0
 1862 0024 2380A700 		sb	a0,%lo(_ZZ18EXTI7_0_IRQHandlerE14btn_state_last)(a5)
 265:src/main.cpp  **** 
 266:src/main.cpp  **** 	if(btn_state_new) {
 1863              		.loc 2 266 2 is_stmt 1
 1864 0028 15C9     		beq	a0,zero,.L117
 267:src/main.cpp  **** 		uart1.print("button was pressed\n");
 1865              		.loc 2 267 3
 1866              		.loc 2 267 14 is_stmt 0
 1867 002a B7050000 		lui	a1,%hi(.LC5)
 1868 002e 37050000 		lui	a0,%hi(uart1)
 1869              	.LVL165:
 1870 0032 93850500 		addi	a1,a1,%lo(.LC5)
 1871 0036 13050500 		addi	a0,a0,%lo(uart1)
 1872 003a 97000000 		call	_ZN4uart5printEPKc
 1872      E7800000 
 1873              	.LVL166:
 268:src/main.cpp  **** 		wait = SysTick->CNT;
 1874              		.loc 2 268 3 is_stmt 1
 1875              		.loc 2 268 19 is_stmt 0
 1876 0042 B7F700E0 		li	a5,-536809472
GAS LISTING /tmp/ccb6PqEo.s 			page 52


 1877 0046 9847     		lw	a4,8(a5)
 1878              		.loc 2 268 8
 1879 0048 B7070000 		lui	a5,%hi(_ZZ18EXTI7_0_IRQHandlerE4wait)
 1880 004c 23A0E700 		sw	a4,%lo(_ZZ18EXTI7_0_IRQHandlerE4wait)(a5)
 269:src/main.cpp  **** 		awtr_state = waiting;
 1881              		.loc 2 269 3 is_stmt 1
 1882              		.loc 2 269 14 is_stmt 0
 1883 0050 B7070000 		lui	a5,%hi(awtr_state)
 1884 0054 23A00700 		sw	zero,%lo(awtr_state)(a5)
 1885              	.L115:
 270:src/main.cpp  **** 	}
 271:src/main.cpp  **** 	else {
 272:src/main.cpp  **** 		uart1.print("button was released\n");
 273:src/main.cpp  **** 		wait = SysTick->CNT - wait;
 274:src/main.cpp  **** 		if(wait < MS_TO_TICKS(10)) {
 275:src/main.cpp  **** 			awtr_state = toSleep;
 276:src/main.cpp  **** 		}
 277:src/main.cpp  **** 		else if(wait < MS_TO_TICKS(700)) {
 278:src/main.cpp  **** 			awtr_state = click;
 279:src/main.cpp  **** 		}
 280:src/main.cpp  **** 		else if(wait < MS_TO_TICKS(3000)) {
 281:src/main.cpp  **** 			awtr_state = hold;
 282:src/main.cpp  **** 		}
 283:src/main.cpp  **** 		else {
 284:src/main.cpp  **** 			awtr_state = long_hold;
 285:src/main.cpp  **** 		}
 286:src/main.cpp  **** 	}
 287:src/main.cpp  **** 	return;
 288:src/main.cpp  **** }
 1886              		.loc 2 288 1
 1887 0058 73002030 		mret
 1888              	.LVL167:
 1889              	.L117:
 272:src/main.cpp  **** 		wait = SysTick->CNT - wait;
 1890              		.loc 2 272 3 is_stmt 1
 272:src/main.cpp  **** 		wait = SysTick->CNT - wait;
 1891              		.loc 2 272 14 is_stmt 0
 1892 005c B7050000 		lui	a1,%hi(.LC6)
 1893 0060 37050000 		lui	a0,%hi(uart1)
 1894              	.LVL168:
 1895 0064 93850500 		addi	a1,a1,%lo(.LC6)
 1896 0068 13050500 		addi	a0,a0,%lo(uart1)
 1897 006c 97000000 		call	_ZN4uart5printEPKc
 1897      E7800000 
 1898              	.LVL169:
 273:src/main.cpp  **** 		if(wait < MS_TO_TICKS(10)) {
 1899              		.loc 2 273 3 is_stmt 1
 273:src/main.cpp  **** 		if(wait < MS_TO_TICKS(10)) {
 1900              		.loc 2 273 23 is_stmt 0
 1901 0074 37070000 		lui	a4,%hi(_ZZ18EXTI7_0_IRQHandlerE4wait)
 273:src/main.cpp  **** 		if(wait < MS_TO_TICKS(10)) {
 1902              		.loc 2 273 19
 1903 0078 B7F700E0 		li	a5,-536809472
 1904 007c 9C47     		lw	a5,8(a5)
 273:src/main.cpp  **** 		if(wait < MS_TO_TICKS(10)) {
 1905              		.loc 2 273 23
 1906 007e 03260700 		lw	a2,%lo(_ZZ18EXTI7_0_IRQHandlerE4wait)(a4)
GAS LISTING /tmp/ccb6PqEo.s 			page 53


 274:src/main.cpp  **** 			awtr_state = toSleep;
 1907              		.loc 2 274 3
 1908 0082 9306500E 		li	a3,229
 273:src/main.cpp  **** 		if(wait < MS_TO_TICKS(10)) {
 1909              		.loc 2 273 23
 1910 0086 918F     		sub	a5,a5,a2
 273:src/main.cpp  **** 		if(wait < MS_TO_TICKS(10)) {
 1911              		.loc 2 273 8
 1912 0088 2320F700 		sw	a5,%lo(_ZZ18EXTI7_0_IRQHandlerE4wait)(a4)
 274:src/main.cpp  **** 			awtr_state = toSleep;
 1913              		.loc 2 274 3 is_stmt 1
 1914 008c 63FEF600 		bleu	a5,a3,.L121
 277:src/main.cpp  **** 			awtr_state = click;
 1915              		.loc 2 277 8
 1916 0090 1167     		li	a4,16384
 1917 0092 130737EE 		addi	a4,a4,-285
 1918 0096 6360F702 		bgtu	a5,a4,.L119
 278:src/main.cpp  **** 		}
 1919              		.loc 2 278 4
 278:src/main.cpp  **** 		}
 1920              		.loc 2 278 15 is_stmt 0
 1921 009a B7070000 		lui	a5,%hi(awtr_state)
 1922 009e 0547     		li	a4,1
 1923 00a0 23A0E700 		sw	a4,%lo(awtr_state)(a5)
 1924              		.loc 2 288 1
 1925 00a4 73002030 		mret
 1926              	.L121:
 275:src/main.cpp  **** 		}
 1927              		.loc 2 275 4 is_stmt 1
 275:src/main.cpp  **** 		}
 1928              		.loc 2 275 15 is_stmt 0
 1929 00a8 B7070000 		lui	a5,%hi(awtr_state)
 1930 00ac 1147     		li	a4,4
 1931 00ae 23A0E700 		sw	a4,%lo(awtr_state)(a5)
 1932              		.loc 2 288 1
 1933 00b2 73002030 		mret
 1934              	.L119:
 280:src/main.cpp  **** 			awtr_state = hold;
 1935              		.loc 2 280 8 is_stmt 1
 1936 00b6 4567     		li	a4,69632
 1937 00b8 130777D8 		addi	a4,a4,-633
 1938 00bc 6369F700 		bgtu	a5,a4,.L120
 281:src/main.cpp  **** 		}
 1939              		.loc 2 281 4
 281:src/main.cpp  **** 		}
 1940              		.loc 2 281 15 is_stmt 0
 1941 00c0 B7070000 		lui	a5,%hi(awtr_state)
 1942 00c4 0947     		li	a4,2
 1943 00c6 23A0E700 		sw	a4,%lo(awtr_state)(a5)
 1944              		.loc 2 288 1
 1945 00ca 73002030 		mret
 1946              	.L120:
 284:src/main.cpp  **** 		}
 1947              		.loc 2 284 4 is_stmt 1
 284:src/main.cpp  **** 		}
 1948              		.loc 2 284 15 is_stmt 0
 1949 00ce B7070000 		lui	a5,%hi(awtr_state)
GAS LISTING /tmp/ccb6PqEo.s 			page 54


 1950 00d2 0D47     		li	a4,3
 1951 00d4 23A0E700 		sw	a4,%lo(awtr_state)(a5)
 1952              		.loc 2 288 1
 1953 00d8 73002030 		mret
 1954              		.cfi_endproc
 1955              	.LFE26:
 1957              		.section	.text.HardFault_Handler,"ax",@progbits
 1958              		.align	1
 1959              		.globl	HardFault_Handler
 1961              	HardFault_Handler:
 1962              	.LFB27:
 289:src/main.cpp  **** 
 290:src/main.cpp  **** __attribute((interrupt("WCH-Interrupt-fast")))
 291:src/main.cpp  **** void HardFault_Handler(void) {
 1963              		.loc 2 291 30 is_stmt 1
 1964              		.cfi_startproc
 292:src/main.cpp  **** 	led_on();
 1965              		.loc 2 292 2
 1966              		.loc 2 292 8 is_stmt 0
 1967 0000 97000000 		call	_Z6led_onv
 1967      E7800000 
 1968              	.LVL170:
 1969              	.L123:
 293:src/main.cpp  **** 	while(1) {;}
 1970              		.loc 2 293 2 is_stmt 1 discriminator 1
 1971              		.loc 2 293 2 discriminator 1
 1972              		.loc 2 293 2 discriminator 1
 1973              		.loc 2 293 2 discriminator 1
 1974 0008 01A0     		j	.L123
 1975              		.cfi_endproc
 1976              	.LFE27:
 1978              		.section	.text.startup._GLOBAL__sub_I__Z10hexToASCIIPKhhPh,"ax",@progbits
 1979              		.align	1
 1981              	_GLOBAL__sub_I__Z10hexToASCIIPKhhPh:
 1982              	.LFB29:
 294:src/main.cpp  **** }
 295:src/main.cpp  **** }...
 1983              		.loc 2 295 1
 1984              		.cfi_startproc
 1985              	.LVL171:
 1986              	.LBB111:
 1987              	.LBB112:
  35:src/main.cpp  **** uart uart1(USART1, UART_BAUDRATE, F_HBCLK);
 1988              		.loc 2 35 42 is_stmt 0
 1989 0000 B7E60200 		li	a3,188416
 1990 0004 0566     		li	a2,4096
 1991 0006 B7450140 		li	a1,1073823744
 1992 000a 37050000 		lui	a0,%hi(uart1)
 1993 000e 8147     		li	a5,0
 1994 0010 0147     		li	a4,0
 1995 0012 9386C6C6 		addi	a3,a3,-916
 1996 0016 1306062C 		addi	a2,a2,704
 1997 001a 93850580 		addi	a1,a1,-2048
 1998 001e 13050500 		addi	a0,a0,%lo(uart1)
 1999 0022 17030000 		tail	_ZN4uartC1EP13USART_TypeDefii9u_stopbit9u_wordlen
 1999      67000300 
 2000              	.LVL172:
GAS LISTING /tmp/ccb6PqEo.s 			page 55


 2001              	.LBE112:
 2002              	.LBE111:
 2003              		.cfi_endproc
 2004              	.LFE29:
 2006              		.section	.init_array,"aw"
 2007              		.align	2
 2008 0000 00000000 		.word	_GLOBAL__sub_I__Z10hexToASCIIPKhhPh
 2009              		.section	.sbss._ZZ18EXTI7_0_IRQHandlerE14btn_state_last,"aw",@nobits
 2012              	_ZZ18EXTI7_0_IRQHandlerE14btn_state_last:
 2013 0000 00       		.zero	1
 2014              		.section	.sbss._ZZ18EXTI7_0_IRQHandlerE4wait,"aw",@nobits
 2015              		.align	2
 2018              	_ZZ18EXTI7_0_IRQHandlerE4wait:
 2019 0000 00000000 		.zero	4
 2020              		.globl	msg_lhold
 2021              		.section	.data.msg_lhold,"aw"
 2022              		.align	2
 2025              	msg_lhold:
 2026 0000 53656E73 		.string	"Sensor value: XXX\n"
 2026      6F722076 
 2026      616C7565 
 2026      3A205858 
 2026      580A00
 2027              		.globl	msg_hold
 2028              		.section	.data.msg_hold,"aw"
 2029              		.align	2
 2032              	msg_hold:
 2033 0000 28582920 		.string	"(X) sens border: XXX\n"
 2033      73656E73 
 2033      20626F72 
 2033      6465723A 
 2033      20585858 
 2034              		.globl	msg_click_wet
 2035              		.section	.data.msg_click_wet,"aw"
 2036              		.align	2
 2039              	msg_click_wet:
 2040 0000 47726F75 		.string	"Ground is wet: XXX\n"
 2040      6E642069 
 2040      73207765 
 2040      743A2058 
 2040      58580A00 
 2041              		.globl	msg_click_dry
 2042              		.section	.data.msg_click_dry,"aw"
 2043              		.align	2
 2046              	msg_click_dry:
 2047 0000 47726F75 		.string	"Ground is dry: XXX\n"
 2047      6E642069 
 2047      73206472 
 2047      793A2058 
 2047      58580A00 
 2048              		.globl	uart1
 2049              		.section	.bss.uart1,"aw",@nobits
 2050              		.align	2
 2053              	uart1:
 2054 0000 00000000 		.zero	220
 2054      00000000 
 2054      00000000 
GAS LISTING /tmp/ccb6PqEo.s 			page 56


 2054      00000000 
 2054      00000000 
 2055              		.globl	sens_val_border
 2056              		.section	.sdata.sens_val_border,"aw"
 2059              	sens_val_border:
 2060 0000 32       		.byte	50
 2061              		.globl	sens_val
 2062              		.section	.sbss.sens_val,"aw",@nobits
 2065              	sens_val:
 2066 0000 00       		.zero	1
 2067              		.globl	awtr_state
 2068              		.section	.sbss.awtr_state,"aw",@nobits
 2069              		.align	2
 2072              	awtr_state:
 2073 0000 00000000 		.zero	4
 2074              		.text
 2075              	.Letext0:
 2076              		.file 4 "src/core/ch32v00x.h"
 2077              		.file 5 "/opt/MRS_toolchain/riscv-wch-elf/include/machine/_default_types.h"
 2078              		.file 6 "/opt/MRS_toolchain/riscv-wch-elf/include/sys/_stdint.h"
 2079              		.file 7 "src/uart/uart.h"
 2080              		.file 8 "src/GPIO.h"
GAS LISTING /tmp/ccb6PqEo.s 			page 57


DEFINED SYMBOLS
                            *ABS*:0000000000000000 main.cpp
     /tmp/ccb6PqEo.s:13     .text._Z10hexToASCIIPKhhPh:0000000000000000 _Z10hexToASCIIPKhhPh
     /tmp/ccb6PqEo.s:17     .text._Z10hexToASCIIPKhhPh:0000000000000000 .L0 
     /tmp/ccb6PqEo.s:19     .text._Z10hexToASCIIPKhhPh:0000000000000000 .L0 
     /tmp/ccb6PqEo.s:20     .text._Z10hexToASCIIPKhhPh:0000000000000000 .L0 
     /tmp/ccb6PqEo.s:22     .text._Z10hexToASCIIPKhhPh:0000000000000000 .L0 
     /tmp/ccb6PqEo.s:23     .text._Z10hexToASCIIPKhhPh:0000000000000000 $x
     /tmp/ccb6PqEo.s:23     .text._Z10hexToASCIIPKhhPh:0000000000000000 .L0 
     /tmp/ccb6PqEo.s:27     .text._Z10hexToASCIIPKhhPh:0000000000000006 .L0 
     /tmp/ccb6PqEo.s:29     .text._Z10hexToASCIIPKhhPh:0000000000000008 .L0 
     /tmp/ccb6PqEo.s:33     .text._Z10hexToASCIIPKhhPh:000000000000000a .L0 
     /tmp/ccb6PqEo.s:34     .text._Z10hexToASCIIPKhhPh:000000000000000a .L0 
     /tmp/ccb6PqEo.s:35     .text._Z10hexToASCIIPKhhPh:000000000000000a .L0 
     /tmp/ccb6PqEo.s:36     .text._Z10hexToASCIIPKhhPh:000000000000000a .L0 
     /tmp/ccb6PqEo.s:40     .text._Z10hexToASCIIPKhhPh:0000000000000010 .L0 
     /tmp/ccb6PqEo.s:41     .text._Z10hexToASCIIPKhhPh:0000000000000010 .L0 
     /tmp/ccb6PqEo.s:43     .text._Z10hexToASCIIPKhhPh:0000000000000014 .L0 
     /tmp/ccb6PqEo.s:45     .text._Z10hexToASCIIPKhhPh:0000000000000018 .L0 
     /tmp/ccb6PqEo.s:48     .text._Z10hexToASCIIPKhhPh:000000000000001c .L0 
     /tmp/ccb6PqEo.s:50     .text._Z10hexToASCIIPKhhPh:0000000000000020 .L0 
     /tmp/ccb6PqEo.s:51     .text._Z10hexToASCIIPKhhPh:0000000000000020 .L0 
     /tmp/ccb6PqEo.s:54     .text._Z10hexToASCIIPKhhPh:0000000000000024 .L0 
     /tmp/ccb6PqEo.s:57     .text._Z10hexToASCIIPKhhPh:0000000000000026 .L0 
     /tmp/ccb6PqEo.s:60     .text._Z10hexToASCIIPKhhPh:0000000000000028 .L0 
     /tmp/ccb6PqEo.s:61     .text._Z10hexToASCIIPKhhPh:0000000000000028 .L0 
     /tmp/ccb6PqEo.s:63     .text._Z10hexToASCIIPKhhPh:000000000000002c .L0 
     /tmp/ccb6PqEo.s:65     .text._Z10hexToASCIIPKhhPh:0000000000000030 .L0 
     /tmp/ccb6PqEo.s:68     .text._Z10hexToASCIIPKhhPh:0000000000000034 .L0 
     /tmp/ccb6PqEo.s:71     .text._Z10hexToASCIIPKhhPh:0000000000000038 .L0 
     /tmp/ccb6PqEo.s:72     .text._Z10hexToASCIIPKhhPh:0000000000000038 .L0 
     /tmp/ccb6PqEo.s:78     .text._Z10hexToASCIIPKhhPh:000000000000003e .L0 
     /tmp/ccb6PqEo.s:79     .text._Z10hexToASCIIPKhhPh:0000000000000040 .L0 
     /tmp/ccb6PqEo.s:90     .text._Z10intToASCIIiPhh:0000000000000000 _Z10intToASCIIiPhh
     /tmp/ccb6PqEo.s:93     .text._Z10intToASCIIiPhh:0000000000000000 .L0 
     /tmp/ccb6PqEo.s:95     .text._Z10intToASCIIiPhh:0000000000000000 $x
     /tmp/ccb6PqEo.s:95     .text._Z10intToASCIIiPhh:0000000000000000 .L0 
     /tmp/ccb6PqEo.s:96     .text._Z10intToASCIIiPhh:0000000000000002 .L0 
     /tmp/ccb6PqEo.s:100    .text._Z10intToASCIIiPhh:0000000000000008 .L0 
     /tmp/ccb6PqEo.s:101    .text._Z10intToASCIIiPhh:0000000000000008 .L0 
     /tmp/ccb6PqEo.s:102    .text._Z10intToASCIIiPhh:0000000000000008 .L0 
     /tmp/ccb6PqEo.s:104    .text._Z10intToASCIIiPhh:0000000000000008 .L0 
     /tmp/ccb6PqEo.s:108    .text._Z10intToASCIIiPhh:000000000000000c .L0 
     /tmp/ccb6PqEo.s:109    .text._Z10intToASCIIiPhh:000000000000000c .L0 
     /tmp/ccb6PqEo.s:110    .text._Z10intToASCIIiPhh:000000000000000c .L0 
     /tmp/ccb6PqEo.s:112    .text._Z10intToASCIIiPhh:000000000000000e .L0 
     /tmp/ccb6PqEo.s:113    .text._Z10intToASCIIiPhh:000000000000000e .L0 
     /tmp/ccb6PqEo.s:117    .text._Z10intToASCIIiPhh:000000000000001a .L0 
     /tmp/ccb6PqEo.s:118    .text._Z10intToASCIIiPhh:000000000000001a .L0 
     /tmp/ccb6PqEo.s:120    .text._Z10intToASCIIiPhh:000000000000001c .L0 
     /tmp/ccb6PqEo.s:124    .text._Z10intToASCIIiPhh:0000000000000020 .L0 
     /tmp/ccb6PqEo.s:125    .text._Z10intToASCIIiPhh:0000000000000020 .L0 
     /tmp/ccb6PqEo.s:132    .text._Z10intToASCIIiPhh:000000000000002c .L0 
     /tmp/ccb6PqEo.s:133    .text._Z10intToASCIIiPhh:000000000000002c .L0 
     /tmp/ccb6PqEo.s:136    .text._Z10intToASCIIiPhh:0000000000000030 .L0 
     /tmp/ccb6PqEo.s:140    .text._Z10intToASCIIiPhh:0000000000000034 .L0 
     /tmp/ccb6PqEo.s:144    .text._Z10intToASCIIiPhh:000000000000003e .L0 
GAS LISTING /tmp/ccb6PqEo.s 			page 58


     /tmp/ccb6PqEo.s:149    .text._Z10intToASCIIiPhh:0000000000000046 .L0 
     /tmp/ccb6PqEo.s:151    .text._Z10intToASCIIiPhh:0000000000000048 .L0 
     /tmp/ccb6PqEo.s:154    .text._Z10intToASCIIiPhh:000000000000004c .L0 
     /tmp/ccb6PqEo.s:155    .text._Z10intToASCIIiPhh:000000000000004c .L0 
     /tmp/ccb6PqEo.s:159    .text._Z10intToASCIIiPhh:0000000000000056 .L0 
     /tmp/ccb6PqEo.s:161    .text._Z10intToASCIIiPhh:0000000000000058 .L0 
     /tmp/ccb6PqEo.s:164    .text._Z10intToASCIIiPhh:000000000000005a .L0 
     /tmp/ccb6PqEo.s:165    .text._Z10intToASCIIiPhh:000000000000005a .L0 
     /tmp/ccb6PqEo.s:173    .text._Z10intToASCIIiPhh:0000000000000064 .L0 
     /tmp/ccb6PqEo.s:174    .text._Z10intToASCIIiPhh:0000000000000064 .L0 
     /tmp/ccb6PqEo.s:175    .text._Z10intToASCIIiPhh:0000000000000064 .L0 
     /tmp/ccb6PqEo.s:176    .text._Z10intToASCIIiPhh:0000000000000064 .L0 
     /tmp/ccb6PqEo.s:178    .text._Z10intToASCIIiPhh:0000000000000068 .L0 
     /tmp/ccb6PqEo.s:180    .text._Z10intToASCIIiPhh:000000000000006a .L0 
     /tmp/ccb6PqEo.s:182    .text._Z10intToASCIIiPhh:000000000000006c .L0 
     /tmp/ccb6PqEo.s:188    .text._Z10intToASCIIiPhh:0000000000000078 .L0 
     /tmp/ccb6PqEo.s:189    .text._Z10intToASCIIiPhh:0000000000000078 .L0 
     /tmp/ccb6PqEo.s:194    .text._Z10intToASCIIiPhh:0000000000000080 .L0 
     /tmp/ccb6PqEo.s:195    .text._Z10intToASCIIiPhh:0000000000000082 .L0 
     /tmp/ccb6PqEo.s:196    .text._Z10intToASCIIiPhh:0000000000000082 .L0 
     /tmp/ccb6PqEo.s:198    .text._Z10intToASCIIiPhh:0000000000000084 .L0 
     /tmp/ccb6PqEo.s:200    .text._Z10intToASCIIiPhh:0000000000000086 .L0 
     /tmp/ccb6PqEo.s:203    .text._Z10intToASCIIiPhh:0000000000000088 .L0 
     /tmp/ccb6PqEo.s:208    .text._Z10intToASCIIiPhh:000000000000008a .L0 
     /tmp/ccb6PqEo.s:210    .text._Z10intToASCIIiPhh:000000000000008a .L0 
     /tmp/ccb6PqEo.s:212    .text._Z10intToASCIIiPhh:000000000000008e .L0 
     /tmp/ccb6PqEo.s:220    .text._Z10intToASCIIiPhh:0000000000000096 .L0 
     /tmp/ccb6PqEo.s:221    .text._Z10intToASCIIiPhh:0000000000000096 .L0 
     /tmp/ccb6PqEo.s:223    .text._Z10intToASCIIiPhh:0000000000000098 .L0 
     /tmp/ccb6PqEo.s:226    .text._Z10intToASCIIiPhh:000000000000009c .L0 
     /tmp/ccb6PqEo.s:227    .text._Z10intToASCIIiPhh:000000000000009c .L0 
     /tmp/ccb6PqEo.s:228    .text._Z10intToASCIIiPhh:000000000000009c .L0 
     /tmp/ccb6PqEo.s:231    .text._Z10intToASCIIiPhh:00000000000000a0 .L0 
     /tmp/ccb6PqEo.s:233    .text._Z10intToASCIIiPhh:00000000000000a4 .L0 
     /tmp/ccb6PqEo.s:241    .text._Z10ASCIIToIntPKhh:0000000000000000 _Z10ASCIIToIntPKhh
     /tmp/ccb6PqEo.s:244    .text._Z10ASCIIToIntPKhh:0000000000000000 .L0 
     /tmp/ccb6PqEo.s:246    .text._Z10ASCIIToIntPKhh:0000000000000000 .L0 
     /tmp/ccb6PqEo.s:247    .text._Z10ASCIIToIntPKhh:0000000000000000 .L0 
     /tmp/ccb6PqEo.s:249    .text._Z10ASCIIToIntPKhh:0000000000000000 .L0 
     /tmp/ccb6PqEo.s:250    .text._Z10ASCIIToIntPKhh:0000000000000000 $x
     /tmp/ccb6PqEo.s:250    .text._Z10ASCIIToIntPKhh:0000000000000000 .L0 
     /tmp/ccb6PqEo.s:253    .text._Z10ASCIIToIntPKhh:0000000000000002 .L0 
     /tmp/ccb6PqEo.s:254    .text._Z10ASCIIToIntPKhh:0000000000000004 .L0 
     /tmp/ccb6PqEo.s:258    .text._Z10ASCIIToIntPKhh:000000000000000c .L0 
     /tmp/ccb6PqEo.s:260    .text._Z10ASCIIToIntPKhh:000000000000000c .L0 
     /tmp/ccb6PqEo.s:263    .text._Z10ASCIIToIntPKhh:000000000000000e .L0 
     /tmp/ccb6PqEo.s:267    .text._Z10ASCIIToIntPKhh:0000000000000010 .L0 
     /tmp/ccb6PqEo.s:269    .text._Z10ASCIIToIntPKhh:0000000000000014 .L0 
     /tmp/ccb6PqEo.s:271    .text._Z10ASCIIToIntPKhh:0000000000000018 .L0 
     /tmp/ccb6PqEo.s:276    .text._Z10ASCIIToIntPKhh:000000000000001c .L0 
     /tmp/ccb6PqEo.s:278    .text._Z10ASCIIToIntPKhh:0000000000000020 .L0 
     /tmp/ccb6PqEo.s:280    .text._Z10ASCIIToIntPKhh:0000000000000024 .L0 
     /tmp/ccb6PqEo.s:284    .text._Z10ASCIIToIntPKhh:0000000000000026 .L0 
     /tmp/ccb6PqEo.s:285    .text._Z10ASCIIToIntPKhh:0000000000000026 .L0 
     /tmp/ccb6PqEo.s:289    .text._Z10ASCIIToIntPKhh:000000000000002e .L0 
     /tmp/ccb6PqEo.s:292    .text._Z10ASCIIToIntPKhh:0000000000000030 .L0 
     /tmp/ccb6PqEo.s:295    .text._Z10ASCIIToIntPKhh:0000000000000034 .L0 
GAS LISTING /tmp/ccb6PqEo.s 			page 59


     /tmp/ccb6PqEo.s:296    .text._Z10ASCIIToIntPKhh:0000000000000034 .L0 
     /tmp/ccb6PqEo.s:300    .text._Z10ASCIIToIntPKhh:0000000000000038 .L0 
     /tmp/ccb6PqEo.s:301    .text._Z10ASCIIToIntPKhh:0000000000000038 .L0 
     /tmp/ccb6PqEo.s:302    .text._Z10ASCIIToIntPKhh:0000000000000038 .L0 
     /tmp/ccb6PqEo.s:303    .text._Z10ASCIIToIntPKhh:0000000000000038 .L0 
     /tmp/ccb6PqEo.s:304    .text._Z10ASCIIToIntPKhh:0000000000000038 .L0 
     /tmp/ccb6PqEo.s:306    .text._Z10ASCIIToIntPKhh:000000000000003c .L0 
     /tmp/ccb6PqEo.s:308    .text._Z10ASCIIToIntPKhh:0000000000000040 .L0 
     /tmp/ccb6PqEo.s:310    .text._Z10ASCIIToIntPKhh:0000000000000044 .L0 
     /tmp/ccb6PqEo.s:312    .text._Z10ASCIIToIntPKhh:0000000000000048 .L0 
     /tmp/ccb6PqEo.s:315    .text._Z10ASCIIToIntPKhh:000000000000004e .L0 
     /tmp/ccb6PqEo.s:317    .text._Z10ASCIIToIntPKhh:0000000000000050 .L0 
     /tmp/ccb6PqEo.s:319    .text._Z10ASCIIToIntPKhh:0000000000000052 .L0 
     /tmp/ccb6PqEo.s:322    .text._Z10ASCIIToIntPKhh:0000000000000054 .L0 
     /tmp/ccb6PqEo.s:325    .text._Z10ASCIIToIntPKhh:0000000000000056 .L0 
     /tmp/ccb6PqEo.s:326    .text._Z10ASCIIToIntPKhh:0000000000000056 .L0 
     /tmp/ccb6PqEo.s:329    .text._Z10ASCIIToIntPKhh:000000000000005a .L0 
     /tmp/ccb6PqEo.s:330    .text._Z10ASCIIToIntPKhh:000000000000005a .L0 
     /tmp/ccb6PqEo.s:335    .text._Z10ASCIIToIntPKhh:000000000000005e .L0 
     /tmp/ccb6PqEo.s:338    .text._Z10ASCIIToIntPKhh:0000000000000066 .L0 
     /tmp/ccb6PqEo.s:339    .text._Z10ASCIIToIntPKhh:0000000000000068 .L0 
     /tmp/ccb6PqEo.s:340    .text._Z10ASCIIToIntPKhh:0000000000000068 .L0 
     /tmp/ccb6PqEo.s:342    .text._Z10ASCIIToIntPKhh:000000000000006a .L0 
     /tmp/ccb6PqEo.s:346    .text._Z10ASCIIToIntPKhh:000000000000006c .L0 
     /tmp/ccb6PqEo.s:349    .text._Z10ASCIIToIntPKhh:000000000000006c .L0 
     /tmp/ccb6PqEo.s:353    .text._Z10ASCIIToIntPKhh:0000000000000070 .L0 
     /tmp/ccb6PqEo.s:354    .text._Z10ASCIIToIntPKhh:0000000000000070 .L0 
     /tmp/ccb6PqEo.s:356    .text._Z10ASCIIToIntPKhh:0000000000000070 .L0 
     /tmp/ccb6PqEo.s:360    .text._Z10ASCIIToIntPKhh:0000000000000072 .L0 
     /tmp/ccb6PqEo.s:361    .text._Z10ASCIIToIntPKhh:0000000000000072 .L0 
     /tmp/ccb6PqEo.s:362    .text._Z10ASCIIToIntPKhh:0000000000000074 .L0 
     /tmp/ccb6PqEo.s:369    .text._Z6str_eqPKhS0_h:0000000000000000 _Z6str_eqPKhS0_h
     /tmp/ccb6PqEo.s:372    .text._Z6str_eqPKhS0_h:0000000000000000 .L0 
     /tmp/ccb6PqEo.s:374    .text._Z6str_eqPKhS0_h:0000000000000000 .L0 
     /tmp/ccb6PqEo.s:376    .text._Z6str_eqPKhS0_h:0000000000000000 .L0 
     /tmp/ccb6PqEo.s:377    .text._Z6str_eqPKhS0_h:0000000000000000 $x
     /tmp/ccb6PqEo.s:377    .text._Z6str_eqPKhS0_h:0000000000000000 .L0 
     /tmp/ccb6PqEo.s:384    .text._Z6str_eqPKhS0_h:0000000000000006 .L0 
     /tmp/ccb6PqEo.s:388    .text._Z6str_eqPKhS0_h:000000000000000a .L0 
     /tmp/ccb6PqEo.s:389    .text._Z6str_eqPKhS0_h:000000000000000a .L0 
     /tmp/ccb6PqEo.s:390    .text._Z6str_eqPKhS0_h:000000000000000a .L0 
     /tmp/ccb6PqEo.s:391    .text._Z6str_eqPKhS0_h:000000000000000a .L0 
     /tmp/ccb6PqEo.s:394    .text._Z6str_eqPKhS0_h:0000000000000012 .L0 
     /tmp/ccb6PqEo.s:398    .text._Z6str_eqPKhS0_h:0000000000000016 .L0 
     /tmp/ccb6PqEo.s:400    .text._Z6str_eqPKhS0_h:000000000000001a .L0 
     /tmp/ccb6PqEo.s:403    .text._Z6str_eqPKhS0_h:000000000000001c .L0 
     /tmp/ccb6PqEo.s:407    .text._Z6str_eqPKhS0_h:000000000000001e .L0 
     /tmp/ccb6PqEo.s:409    .text._Z6str_eqPKhS0_h:0000000000000022 .L0 
     /tmp/ccb6PqEo.s:416    .text._Z6delayTm:0000000000000000 _Z6delayTm
     /tmp/ccb6PqEo.s:420    .text._Z6delayTm:0000000000000000 .L0 
     /tmp/ccb6PqEo.s:422    .text._Z6delayTm:0000000000000000 .L0 
     /tmp/ccb6PqEo.s:423    .text._Z6delayTm:0000000000000000 .L0 
     /tmp/ccb6PqEo.s:424    .text._Z6delayTm:0000000000000000 .L0 
     /tmp/ccb6PqEo.s:425    .text._Z6delayTm:0000000000000000 $x
     /tmp/ccb6PqEo.s:425    .text._Z6delayTm:0000000000000000 .L0 
     /tmp/ccb6PqEo.s:429    .text._Z6delayTm:0000000000000006 .L0 
     /tmp/ccb6PqEo.s:430    .text._Z6delayTm:0000000000000006 .L0 
GAS LISTING /tmp/ccb6PqEo.s 			page 60


     /tmp/ccb6PqEo.s:433    .text._Z6delayTm:0000000000000008 .L0 
     /tmp/ccb6PqEo.s:434    .text._Z6delayTm:0000000000000008 .L0 
     /tmp/ccb6PqEo.s:435    .text._Z6delayTm:0000000000000008 .L0 
     /tmp/ccb6PqEo.s:438    .text._Z6delayTm:000000000000000a .L0 
     /tmp/ccb6PqEo.s:440    .text._Z6delayTm:000000000000000e .L0 
     /tmp/ccb6PqEo.s:444    .text._Z6delayTm:0000000000000012 .L0 
     /tmp/ccb6PqEo.s:445    .text._Z6delayTm:0000000000000012 .L0 
     /tmp/ccb6PqEo.s:448    .text._Z6delayTm:0000000000000014 .L0 
     /tmp/ccb6PqEo.s:452    .text._Z6delayTm:0000000000000018 .L0 
     /tmp/ccb6PqEo.s:453    .text._Z6delayTm:000000000000001a .L0 
     /tmp/ccb6PqEo.s:460    .text._Z9flash_getv:0000000000000000 _Z9flash_getv
     /tmp/ccb6PqEo.s:463    .text._Z9flash_getv:0000000000000000 .L0 
     /tmp/ccb6PqEo.s:464    .text._Z9flash_getv:0000000000000000 .L0 
     /tmp/ccb6PqEo.s:465    .text._Z9flash_getv:0000000000000000 .L0 
     /tmp/ccb6PqEo.s:466    .text._Z9flash_getv:0000000000000000 $x
     /tmp/ccb6PqEo.s:466    .text._Z9flash_getv:0000000000000000 .L0 
     /tmp/ccb6PqEo.s:468    .text._Z9flash_getv:0000000000000004 .L0 
     /tmp/ccb6PqEo.s:470    .text._Z9flash_getv:000000000000000a .L0 
     /tmp/ccb6PqEo.s:477    .text._Z10flash_saveh:0000000000000000 _Z10flash_saveh
     /tmp/ccb6PqEo.s:480    .text._Z10flash_saveh:0000000000000000 .L0 
     /tmp/ccb6PqEo.s:482    .text._Z10flash_saveh:0000000000000000 .L0 
     /tmp/ccb6PqEo.s:486    .text._Z10flash_saveh:0000000000000000 .L0 
     /tmp/ccb6PqEo.s:487    .text._Z10flash_saveh:0000000000000000 .L0 
src/core/core_riscv.h:160    .text._Z10flash_saveh:0000000000000000 $x
src/core/core_riscv.h:160    .text._Z10flash_saveh:0000000000000000 .L0 
     /tmp/ccb6PqEo.s:494    .text._Z10flash_saveh:0000000000000004 .L0 
     /tmp/ccb6PqEo.s:495    .text._Z10flash_saveh:0000000000000004 .L0 
     /tmp/ccb6PqEo.s:497    .text._Z10flash_saveh:0000000000000004 .L0 
src/core/core_riscv.h:162    .text._Z10flash_saveh:0000000000000008 .L0 
     /tmp/ccb6PqEo.s:509    .text._Z10flash_saveh:000000000000000c .L0 
     /tmp/ccb6PqEo.s:510    .text._Z10flash_saveh:000000000000000c .L0 
     /tmp/ccb6PqEo.s:514    .text._Z10flash_saveh:0000000000000018 .L0 
     /tmp/ccb6PqEo.s:516    .text._Z10flash_saveh:000000000000001c .L0 
     /tmp/ccb6PqEo.s:518    .text._Z10flash_saveh:000000000000001e .L0 
     /tmp/ccb6PqEo.s:519    .text._Z10flash_saveh:000000000000001e .L0 
     /tmp/ccb6PqEo.s:522    .text._Z10flash_saveh:0000000000000024 .L0 
     /tmp/ccb6PqEo.s:523    .text._Z10flash_saveh:0000000000000024 .L0 
     /tmp/ccb6PqEo.s:525    .text._Z10flash_saveh:0000000000000026 .L0 
     /tmp/ccb6PqEo.s:527    .text._Z10flash_saveh:000000000000002a .L0 
     /tmp/ccb6PqEo.s:529    .text._Z10flash_saveh:000000000000002c .L0 
     /tmp/ccb6PqEo.s:530    .text._Z10flash_saveh:000000000000002c .L0 
     /tmp/ccb6PqEo.s:532    .text._Z10flash_saveh:000000000000002e .L0 
     /tmp/ccb6PqEo.s:533    .text._Z10flash_saveh:000000000000002e .L0 
     /tmp/ccb6PqEo.s:535    .text._Z10flash_saveh:0000000000000030 .L0 
     /tmp/ccb6PqEo.s:536    .text._Z10flash_saveh:0000000000000030 .L0 
     /tmp/ccb6PqEo.s:538    .text._Z10flash_saveh:0000000000000032 .L0 
     /tmp/ccb6PqEo.s:541    .text._Z10flash_saveh:0000000000000036 .L0 
     /tmp/ccb6PqEo.s:543    .text._Z10flash_saveh:0000000000000038 .L0 
     /tmp/ccb6PqEo.s:544    .text._Z10flash_saveh:0000000000000038 .L0 
     /tmp/ccb6PqEo.s:546    .text._Z10flash_saveh:000000000000003a .L0 
     /tmp/ccb6PqEo.s:550    .text._Z10flash_saveh:0000000000000042 .L0 
     /tmp/ccb6PqEo.s:551    .text._Z10flash_saveh:0000000000000042 .L0 
     /tmp/ccb6PqEo.s:555    .text._Z10flash_saveh:000000000000004c .L0 
     /tmp/ccb6PqEo.s:556    .text._Z10flash_saveh:000000000000004c .L0 
     /tmp/ccb6PqEo.s:558    .text._Z10flash_saveh:000000000000004e .L0 
     /tmp/ccb6PqEo.s:560    .text._Z10flash_saveh:0000000000000052 .L0 
     /tmp/ccb6PqEo.s:564    .text._Z10flash_saveh:0000000000000058 .L0 
GAS LISTING /tmp/ccb6PqEo.s 			page 61


     /tmp/ccb6PqEo.s:565    .text._Z10flash_saveh:0000000000000058 .L0 
     /tmp/ccb6PqEo.s:566    .text._Z10flash_saveh:0000000000000058 .L0 
     /tmp/ccb6PqEo.s:568    .text._Z10flash_saveh:000000000000005a .L0 
     /tmp/ccb6PqEo.s:571    .text._Z10flash_saveh:000000000000005e .L0 
     /tmp/ccb6PqEo.s:572    .text._Z10flash_saveh:000000000000005e .L0 
     /tmp/ccb6PqEo.s:574    .text._Z10flash_saveh:0000000000000060 .L0 
     /tmp/ccb6PqEo.s:579    .text._Z10flash_saveh:0000000000000068 .L0 
     /tmp/ccb6PqEo.s:580    .text._Z10flash_saveh:0000000000000068 .L0 
     /tmp/ccb6PqEo.s:582    .text._Z10flash_saveh:000000000000006a .L0 
     /tmp/ccb6PqEo.s:584    .text._Z10flash_saveh:000000000000006c .L0 
     /tmp/ccb6PqEo.s:586    .text._Z10flash_saveh:0000000000000070 .L0 
     /tmp/ccb6PqEo.s:589    .text._Z10flash_saveh:0000000000000074 .L0 
     /tmp/ccb6PqEo.s:590    .text._Z10flash_saveh:0000000000000074 .L0 
     /tmp/ccb6PqEo.s:592    .text._Z10flash_saveh:0000000000000076 .L0 
     /tmp/ccb6PqEo.s:594    .text._Z10flash_saveh:000000000000007a .L0 
     /tmp/ccb6PqEo.s:598    .text._Z10flash_saveh:000000000000007e .L0 
     /tmp/ccb6PqEo.s:599    .text._Z10flash_saveh:000000000000007e .L0 
     /tmp/ccb6PqEo.s:600    .text._Z10flash_saveh:000000000000007e .L0 
     /tmp/ccb6PqEo.s:602    .text._Z10flash_saveh:0000000000000080 .L0 
     /tmp/ccb6PqEo.s:605    .text._Z10flash_saveh:0000000000000084 .L0 
     /tmp/ccb6PqEo.s:606    .text._Z10flash_saveh:0000000000000084 .L0 
     /tmp/ccb6PqEo.s:608    .text._Z10flash_saveh:0000000000000086 .L0 
     /tmp/ccb6PqEo.s:611    .text._Z10flash_saveh:000000000000008c .L0 
     /tmp/ccb6PqEo.s:614    .text._Z10flash_saveh:0000000000000094 .L0 
     /tmp/ccb6PqEo.s:615    .text._Z10flash_saveh:0000000000000094 .L0 
     /tmp/ccb6PqEo.s:617    .text._Z10flash_saveh:0000000000000096 .L0 
     /tmp/ccb6PqEo.s:618    .text._Z10flash_saveh:0000000000000096 .L0 
     /tmp/ccb6PqEo.s:621    .text._Z10flash_saveh:000000000000009a .L0 
     /tmp/ccb6PqEo.s:622    .text._Z10flash_saveh:000000000000009a .L0 
     /tmp/ccb6PqEo.s:624    .text._Z10flash_saveh:000000000000009c .L0 
     /tmp/ccb6PqEo.s:627    .text._Z10flash_saveh:00000000000000a0 .L0 
     /tmp/ccb6PqEo.s:628    .text._Z10flash_saveh:00000000000000a0 .L0 
     /tmp/ccb6PqEo.s:632    .text._Z10flash_saveh:00000000000000aa .L0 
     /tmp/ccb6PqEo.s:633    .text._Z10flash_saveh:00000000000000aa .L0 
     /tmp/ccb6PqEo.s:635    .text._Z10flash_saveh:00000000000000ac .L0 
     /tmp/ccb6PqEo.s:637    .text._Z10flash_saveh:00000000000000b0 .L0 
     /tmp/ccb6PqEo.s:641    .text._Z10flash_saveh:00000000000000b6 .L0 
     /tmp/ccb6PqEo.s:642    .text._Z10flash_saveh:00000000000000b6 .L0 
     /tmp/ccb6PqEo.s:643    .text._Z10flash_saveh:00000000000000b6 .L0 
     /tmp/ccb6PqEo.s:645    .text._Z10flash_saveh:00000000000000b8 .L0 
     /tmp/ccb6PqEo.s:648    .text._Z10flash_saveh:00000000000000bc .L0 
     /tmp/ccb6PqEo.s:649    .text._Z10flash_saveh:00000000000000bc .L0 
     /tmp/ccb6PqEo.s:651    .text._Z10flash_saveh:00000000000000be .L0 
     /tmp/ccb6PqEo.s:656    .text._Z10flash_saveh:00000000000000c6 .L0 
     /tmp/ccb6PqEo.s:657    .text._Z10flash_saveh:00000000000000c6 .L0 
     /tmp/ccb6PqEo.s:659    .text._Z10flash_saveh:00000000000000c8 .L0 
     /tmp/ccb6PqEo.s:662    .text._Z10flash_saveh:00000000000000ce .L0 
     /tmp/ccb6PqEo.s:663    .text._Z10flash_saveh:00000000000000ce .L0 
     /tmp/ccb6PqEo.s:665    .text._Z10flash_saveh:00000000000000d0 .L0 
     /tmp/ccb6PqEo.s:667    .text._Z10flash_saveh:00000000000000d2 .L0 
     /tmp/ccb6PqEo.s:671    .text._Z10flash_saveh:00000000000000d4 .L0 
     /tmp/ccb6PqEo.s:672    .text._Z10flash_saveh:00000000000000d4 .L0 
src/core/core_riscv.h:144    .text._Z10flash_saveh:00000000000000d4 .L0 
     /tmp/ccb6PqEo.s:679    .text._Z10flash_saveh:00000000000000d8 .L0 
     /tmp/ccb6PqEo.s:680    .text._Z10flash_saveh:00000000000000d8 .L0 
     /tmp/ccb6PqEo.s:682    .text._Z10flash_saveh:00000000000000d8 .L0 
src/core/core_riscv.h:146    .text._Z10flash_saveh:00000000000000dc .L0 
GAS LISTING /tmp/ccb6PqEo.s 			page 62


     /tmp/ccb6PqEo.s:694    .text._Z10flash_saveh:00000000000000e0 .L0 
     /tmp/ccb6PqEo.s:695    .text._Z10flash_saveh:00000000000000e0 .L0 
     /tmp/ccb6PqEo.s:698    .text._Z10flash_saveh:00000000000000e2 .L0 
     /tmp/ccb6PqEo.s:702    .text._Z10flash_saveh:00000000000000e4 .L0 
     /tmp/ccb6PqEo.s:705    .text._Z10flash_saveh:00000000000000e8 .L0 
     /tmp/ccb6PqEo.s:712    .text.SystemInit:0000000000000000 SystemInit
     /tmp/ccb6PqEo.s:715    .text.SystemInit:0000000000000000 .L0 
     /tmp/ccb6PqEo.s:716    .text.SystemInit:0000000000000000 .L0 
     /tmp/ccb6PqEo.s:717    .text.SystemInit:0000000000000000 .L0 
     /tmp/ccb6PqEo.s:718    .text.SystemInit:0000000000000000 $x
     /tmp/ccb6PqEo.s:718    .text.SystemInit:0000000000000000 .L0 
     /tmp/ccb6PqEo.s:721    .text.SystemInit:0000000000000006 .L0 
     /tmp/ccb6PqEo.s:723    .text.SystemInit:0000000000000008 .L0 
     /tmp/ccb6PqEo.s:724    .text.SystemInit:000000000000000a .L0 
     /tmp/ccb6PqEo.s:726    .text.SystemInit:000000000000000a .L0 
     /tmp/ccb6PqEo.s:728    .text.SystemInit:000000000000000e .L0 
     /tmp/ccb6PqEo.s:731    .text.SystemInit:0000000000000014 .L0 
     /tmp/ccb6PqEo.s:732    .text.SystemInit:0000000000000014 .L0 
     /tmp/ccb6PqEo.s:733    .text.SystemInit:0000000000000014 .L0 
     /tmp/ccb6PqEo.s:735    .text.SystemInit:0000000000000014 .L0 
     /tmp/ccb6PqEo.s:738    .text.SystemInit:0000000000000018 .L0 
     /tmp/ccb6PqEo.s:739    .text.SystemInit:0000000000000018 .L0 
     /tmp/ccb6PqEo.s:741    .text.SystemInit:000000000000001a .L0 
     /tmp/ccb6PqEo.s:744    .text.SystemInit:0000000000000020 .L0 
     /tmp/ccb6PqEo.s:747    .text.SystemInit:0000000000000026 .L0 
     /tmp/ccb6PqEo.s:748    .text.SystemInit:0000000000000026 .L0 
     /tmp/ccb6PqEo.s:750    .text.SystemInit:0000000000000028 .L0 
     /tmp/ccb6PqEo.s:752    .text.SystemInit:000000000000002c .L0 
     /tmp/ccb6PqEo.s:754    .text.SystemInit:0000000000000030 .L0 
     /tmp/ccb6PqEo.s:757    .text.SystemInit:0000000000000034 .L0 
     /tmp/ccb6PqEo.s:758    .text.SystemInit:0000000000000034 .L0 
     /tmp/ccb6PqEo.s:760    .text.SystemInit:0000000000000038 .L0 
     /tmp/ccb6PqEo.s:761    .text.SystemInit:0000000000000038 .L0 
     /tmp/ccb6PqEo.s:764    .text.SystemInit:000000000000003c .L0 
     /tmp/ccb6PqEo.s:765    .text.SystemInit:000000000000003c .L0 
     /tmp/ccb6PqEo.s:768    .text.SystemInit:0000000000000040 .L0 
     /tmp/ccb6PqEo.s:769    .text.SystemInit:0000000000000040 .L0 
     /tmp/ccb6PqEo.s:771    .text.SystemInit:0000000000000042 .L0 
     /tmp/ccb6PqEo.s:774    .text.SystemInit:0000000000000048 .L0 
     /tmp/ccb6PqEo.s:775    .text.SystemInit:0000000000000048 .L0 
     /tmp/ccb6PqEo.s:777    .text.SystemInit:000000000000004a .L0 
     /tmp/ccb6PqEo.s:780    .text.SystemInit:0000000000000050 .L0 
     /tmp/ccb6PqEo.s:781    .text.SystemInit:0000000000000050 .L0 
     /tmp/ccb6PqEo.s:784    .text.SystemInit:0000000000000058 .L0 
     /tmp/ccb6PqEo.s:785    .text.SystemInit:0000000000000058 .L0 
     /tmp/ccb6PqEo.s:787    .text.SystemInit:000000000000005a .L0 
     /tmp/ccb6PqEo.s:792    .text.SystemInit:0000000000000064 .L0 
     /tmp/ccb6PqEo.s:793    .text.SystemInit:0000000000000064 .L0 
     /tmp/ccb6PqEo.s:795    .text.SystemInit:0000000000000066 .L0 
     /tmp/ccb6PqEo.s:798    .text.SystemInit:000000000000006c .L0 
     /tmp/ccb6PqEo.s:801    .text.SystemInit:0000000000000072 .L0 
     /tmp/ccb6PqEo.s:802    .text.SystemInit:0000000000000072 .L0 
     /tmp/ccb6PqEo.s:804    .text.SystemInit:0000000000000074 .L0 
     /tmp/ccb6PqEo.s:806    .text.SystemInit:0000000000000078 .L0 
     /tmp/ccb6PqEo.s:808    .text.SystemInit:000000000000007c .L0 
     /tmp/ccb6PqEo.s:811    .text.SystemInit:0000000000000080 .L0 
     /tmp/ccb6PqEo.s:812    .text.SystemInit:0000000000000080 .L0 
GAS LISTING /tmp/ccb6PqEo.s 			page 63


     /tmp/ccb6PqEo.s:814    .text.SystemInit:0000000000000082 .L0 
     /tmp/ccb6PqEo.s:817    .text.SystemInit:0000000000000086 .L0 
     /tmp/ccb6PqEo.s:818    .text.SystemInit:0000000000000086 .L0 
     /tmp/ccb6PqEo.s:821    .text.SystemInit:000000000000008a .L0 
     /tmp/ccb6PqEo.s:822    .text.SystemInit:000000000000008a .L0 
     /tmp/ccb6PqEo.s:824    .text.SystemInit:000000000000008c .L0 
     /tmp/ccb6PqEo.s:827    .text.SystemInit:0000000000000092 .L0 
     /tmp/ccb6PqEo.s:828    .text.SystemInit:0000000000000092 .L0 
     /tmp/ccb6PqEo.s:830    .text.SystemInit:0000000000000096 .L0 
     /tmp/ccb6PqEo.s:833    .text.SystemInit:000000000000009e .L0 
     /tmp/ccb6PqEo.s:834    .text.SystemInit:000000000000009e .L0 
     /tmp/ccb6PqEo.s:836    .text.SystemInit:00000000000000a2 .L0 
     /tmp/ccb6PqEo.s:838    .text.SystemInit:00000000000000a6 .L0 
     /tmp/ccb6PqEo.s:841    .text.SystemInit:00000000000000ae .L0 
     /tmp/ccb6PqEo.s:842    .text.SystemInit:00000000000000ae .L0 
     /tmp/ccb6PqEo.s:844    .text.SystemInit:00000000000000b2 .L0 
     /tmp/ccb6PqEo.s:847    .text.SystemInit:00000000000000ba .L0 
     /tmp/ccb6PqEo.s:848    .text.SystemInit:00000000000000ba .L0 
     /tmp/ccb6PqEo.s:850    .text.SystemInit:00000000000000be .L0 
     /tmp/ccb6PqEo.s:853    .text.SystemInit:00000000000000c6 .L0 
     /tmp/ccb6PqEo.s:854    .text.SystemInit:00000000000000c6 .L0 
     /tmp/ccb6PqEo.s:856    .text.SystemInit:00000000000000ca .L0 
     /tmp/ccb6PqEo.s:859    .text.SystemInit:00000000000000d2 .L0 
     /tmp/ccb6PqEo.s:860    .text.SystemInit:00000000000000d2 .L0 
     /tmp/ccb6PqEo.s:862    .text.SystemInit:00000000000000d6 .L0 
     /tmp/ccb6PqEo.s:865    .text.SystemInit:00000000000000dc .L0 
     /tmp/ccb6PqEo.s:866    .text.SystemInit:00000000000000dc .L0 
     /tmp/ccb6PqEo.s:868    .text.SystemInit:00000000000000e0 .L0 
     /tmp/ccb6PqEo.s:871    .text.SystemInit:00000000000000e6 .L0 
     /tmp/ccb6PqEo.s:873    .text.SystemInit:00000000000000ea .L0 
     /tmp/ccb6PqEo.s:874    .text.SystemInit:00000000000000ea .L0 
     /tmp/ccb6PqEo.s:876    .text.SystemInit:00000000000000ee .L0 
     /tmp/ccb6PqEo.s:879    .text.SystemInit:00000000000000f4 .L0 
     /tmp/ccb6PqEo.s:880    .text.SystemInit:00000000000000f4 .L0 
     /tmp/ccb6PqEo.s:882    .text.SystemInit:00000000000000f8 .L0 
     /tmp/ccb6PqEo.s:886    .text.SystemInit:0000000000000102 .L0 
     /tmp/ccb6PqEo.s:887    .text.SystemInit:0000000000000102 .L0 
     /tmp/ccb6PqEo.s:889    .text.SystemInit:0000000000000104 .L0 
     /tmp/ccb6PqEo.s:893    .text.SystemInit:000000000000010c .L0 
     /tmp/ccb6PqEo.s:894    .text.SystemInit:000000000000010c .L0 
     /tmp/ccb6PqEo.s:896    .text.SystemInit:0000000000000110 .L0 
     /tmp/ccb6PqEo.s:899    .text.SystemInit:0000000000000116 .L0 
     /tmp/ccb6PqEo.s:901    .text.SystemInit:000000000000011a .L0 
     /tmp/ccb6PqEo.s:902    .text.SystemInit:000000000000011a .L0 
     /tmp/ccb6PqEo.s:904    .text.SystemInit:000000000000011e .L0 
     /tmp/ccb6PqEo.s:907    .text.SystemInit:0000000000000124 .L0 
     /tmp/ccb6PqEo.s:908    .text.SystemInit:0000000000000124 .L0 
     /tmp/ccb6PqEo.s:910    .text.SystemInit:0000000000000128 .L0 
     /tmp/ccb6PqEo.s:911    .text.SystemInit:0000000000000128 .L0 
     /tmp/ccb6PqEo.s:913    .text.SystemInit:000000000000012c .L0 
     /tmp/ccb6PqEo.s:914    .text.SystemInit:000000000000012c .L0 
     /tmp/ccb6PqEo.s:916    .text.SystemInit:0000000000000130 .L0 
     /tmp/ccb6PqEo.s:917    .text.SystemInit:0000000000000130 .L0 
     /tmp/ccb6PqEo.s:922    .text.SystemInit:0000000000000134 .L0 
     /tmp/ccb6PqEo.s:923    .text.SystemInit:0000000000000134 .L0 
     /tmp/ccb6PqEo.s:924    .text.SystemInit:0000000000000134 .L0 
     /tmp/ccb6PqEo.s:925    .text.SystemInit:0000000000000134 .L0 
GAS LISTING /tmp/ccb6PqEo.s 			page 64


     /tmp/ccb6PqEo.s:928    .text.SystemInit:0000000000000136 .L0 
     /tmp/ccb6PqEo.s:929    .text.SystemInit:0000000000000136 .L0 
     /tmp/ccb6PqEo.s:931    .text.SystemInit:000000000000013a .L0 
     /tmp/ccb6PqEo.s:934    .text.SystemInit:000000000000013c .L0 
     /tmp/ccb6PqEo.s:935    .text.SystemInit:000000000000013c .L0 
     /tmp/ccb6PqEo.s:936    .text.SystemInit:000000000000013c .L0 
     /tmp/ccb6PqEo.s:940    .text.SystemInit:0000000000000142 .L0 
     /tmp/ccb6PqEo.s:942    .text.SystemInit:0000000000000146 .L0 
     /tmp/ccb6PqEo.s:946    .text.SystemInit:000000000000014a .L0 
     /tmp/ccb6PqEo.s:947    .text.SystemInit:000000000000014a .L0 
     /tmp/ccb6PqEo.s:950    .text.SystemInit:000000000000014c .L0 
     /tmp/ccb6PqEo.s:956    .text.SystemInit:0000000000000150 .L0 
     /tmp/ccb6PqEo.s:957    .text.SystemInit:0000000000000150 .L0 
     /tmp/ccb6PqEo.s:958    .text.SystemInit:0000000000000150 .L0 
     /tmp/ccb6PqEo.s:961    .text.SystemInit:0000000000000156 .L0 
     /tmp/ccb6PqEo.s:966    .text.SystemInit:0000000000000160 .L0 
     /tmp/ccb6PqEo.s:967    .text.SystemInit:0000000000000160 .L0 
     /tmp/ccb6PqEo.s:969    .text.SystemInit:0000000000000162 .L0 
     /tmp/ccb6PqEo.s:970    .text.SystemInit:0000000000000164 .L0 
     /tmp/ccb6PqEo.s:972    .text.SystemInit:0000000000000166 .L0 
     /tmp/ccb6PqEo.s:974    .text.SystemInit:0000000000000166 .L0 
     /tmp/ccb6PqEo.s:977    .text.SystemInit:000000000000016c .L0 
     /tmp/ccb6PqEo.s:978    .text.SystemInit:000000000000016c .L0 
     /tmp/ccb6PqEo.s:980    .text.SystemInit:0000000000000170 .L0 
     /tmp/ccb6PqEo.s:982    .text.SystemInit:0000000000000174 .L0 
     /tmp/ccb6PqEo.s:984    .text.SystemInit:0000000000000178 .L0 
     /tmp/ccb6PqEo.s:985    .text.SystemInit:0000000000000178 .L0 
     /tmp/ccb6PqEo.s:988    .text.SystemInit:000000000000017e .L0 
     /tmp/ccb6PqEo.s:989    .text.SystemInit:0000000000000180 .L0 
     /tmp/ccb6PqEo.s:991    .text.SystemInit:0000000000000182 .L0 
     /tmp/ccb6PqEo.s:993    .text.SystemInit:0000000000000184 .L0 
     /tmp/ccb6PqEo.s:1013   .text.startup.main:0000000000000000 main
     /tmp/ccb6PqEo.s:1016   .text.startup.main:0000000000000000 .L0 
     /tmp/ccb6PqEo.s:1017   .text.startup.main:0000000000000000 .L0 
     /tmp/ccb6PqEo.s:1018   .text.startup.main:0000000000000000 .L0 
     /tmp/ccb6PqEo.s:1022   .text.startup.main:0000000000000000 .L0 
     /tmp/ccb6PqEo.s:1025   .text.startup.main:0000000000000000 .L0 
     /tmp/ccb6PqEo.s:1026   .text.startup.main:0000000000000000 $x
     /tmp/ccb6PqEo.s:1026   .text.startup.main:0000000000000000 .L0 
     /tmp/ccb6PqEo.s:1027   .text.startup.main:0000000000000002 .L0 
     /tmp/ccb6PqEo.s:1031   .text.startup.main:0000000000000008 .L0 
     /tmp/ccb6PqEo.s:1032   .text.startup.main:0000000000000008 .L0 
     /tmp/ccb6PqEo.s:1033   .text.startup.main:0000000000000008 .L0 
     /tmp/ccb6PqEo.s:1037   .text.startup.main:0000000000000008 .L0 
     /tmp/ccb6PqEo.s:1046   .text.startup.main:0000000000000012 .L0 
     /tmp/ccb6PqEo.s:1049   .text.startup.main:0000000000000012 .L0 
     /tmp/ccb6PqEo.s:1052   .text.startup.main:0000000000000012 .L0 
     /tmp/ccb6PqEo.s:1057   .text.startup.main:0000000000000012 .L0 
     /tmp/ccb6PqEo.s:1058   .text.startup.main:0000000000000012 .L0 
     /tmp/ccb6PqEo.s:1072   .text.startup.main:0000000000000020 .L0 
     /tmp/ccb6PqEo.s:1073   .text.startup.main:0000000000000020 .L0 
     /tmp/ccb6PqEo.s:1074   .text.startup.main:0000000000000020 .L0 
     /tmp/ccb6PqEo.s:1082   .text.startup.main:0000000000000026 .L0 
     /tmp/ccb6PqEo.s:1083   .text.startup.main:0000000000000026 .L0 
src/core/core_riscv.h:144    .text.startup.main:0000000000000026 .L0 
     /tmp/ccb6PqEo.s:1090   .text.startup.main:000000000000002a .L0 
     /tmp/ccb6PqEo.s:1091   .text.startup.main:000000000000002a .L0 
GAS LISTING /tmp/ccb6PqEo.s 			page 65


     /tmp/ccb6PqEo.s:1093   .text.startup.main:000000000000002a .L0 
src/core/core_riscv.h:146    .text.startup.main:000000000000002e .L0 
     /tmp/ccb6PqEo.s:1105   .text.startup.main:0000000000000032 .L0 
     /tmp/ccb6PqEo.s:2053   .bss.uart1:0000000000000000 uart1
     /tmp/ccb6PqEo.s:1106   .text.startup.main:0000000000000032 .L0 
     /tmp/ccb6PqEo.s:1115   .text.startup.main:000000000000004a .L0 
     /tmp/ccb6PqEo.s:1116   .text.startup.main:000000000000004a .L0 
     /tmp/ccb6PqEo.s:1117   .text.startup.main:000000000000004a .L0 
     /tmp/ccb6PqEo.s:1119   .text.startup.main:000000000000004e .L0 
     /tmp/ccb6PqEo.s:2059   .sdata.sens_val_border:0000000000000000 sens_val_border
     /tmp/ccb6PqEo.s:2072   .sbss.awtr_state:0000000000000000 awtr_state
     /tmp/ccb6PqEo.s:1124   .text.startup.main:0000000000000056 .L0 
     /tmp/ccb6PqEo.s:1128   .text.startup.main:000000000000005a .L0 
     /tmp/ccb6PqEo.s:1132   .text.startup.main:000000000000005e .L0 
     /tmp/ccb6PqEo.s:1134   .text.startup.main:0000000000000062 .L0 
     /tmp/ccb6PqEo.s:1140   .text.startup.main:000000000000006e .L0 
     /tmp/ccb6PqEo.s:1142   .text.startup.main:000000000000006e .L0 
     /tmp/ccb6PqEo.s:1143   .text.startup.main:000000000000006e .L0 
     /tmp/ccb6PqEo.s:1145   .text.startup.main:0000000000000072 .L0 
     /tmp/ccb6PqEo.s:1165   .text.startup.main:0000000000000082 .L0 
     /tmp/ccb6PqEo.s:1166   .text.startup.main:0000000000000082 .L0 
     /tmp/ccb6PqEo.s:1167   .text.startup.main:0000000000000082 .L0 
     /tmp/ccb6PqEo.s:1173   .text.startup.main:0000000000000096 .L0 
     /tmp/ccb6PqEo.s:1174   .text.startup.main:0000000000000096 .L0 
     /tmp/ccb6PqEo.s:1180   .text.startup.main:00000000000000a0 .L0 
     /tmp/ccb6PqEo.s:1187   .text.startup.main:00000000000000a8 .L0 
     /tmp/ccb6PqEo.s:1188   .text.startup.main:00000000000000a8 .L0 
     /tmp/ccb6PqEo.s:1191   .text.startup.main:00000000000000b0 .L0 
     /tmp/ccb6PqEo.s:1192   .text.startup.main:00000000000000b0 .L0 
     /tmp/ccb6PqEo.s:2025   .data.msg_lhold:0000000000000000 msg_lhold
     /tmp/ccb6PqEo.s:1195   .text.startup.main:00000000000000b8 .L0 
     /tmp/ccb6PqEo.s:1197   .text.startup.main:00000000000000bc .L0 
     /tmp/ccb6PqEo.s:1199   .text.startup.main:00000000000000c0 .L0 
     /tmp/ccb6PqEo.s:2065   .sbss.sens_val:0000000000000000 sens_val
     /tmp/ccb6PqEo.s:1202   .text.startup.main:00000000000000c6 .L0 
     /tmp/ccb6PqEo.s:1205   .text.startup.main:00000000000000ce .L0 
     /tmp/ccb6PqEo.s:1206   .text.startup.main:00000000000000ce .L0 
     /tmp/ccb6PqEo.s:1209   .text.startup.main:00000000000000d6 .L0 
     /tmp/ccb6PqEo.s:1210   .text.startup.main:00000000000000d6 .L0 
     /tmp/ccb6PqEo.s:1219   .text.startup.main:00000000000000f0 .L0 
     /tmp/ccb6PqEo.s:1220   .text.startup.main:00000000000000f0 .L0 
     /tmp/ccb6PqEo.s:1225   .text.startup.main:00000000000000f8 .L0 
     /tmp/ccb6PqEo.s:1226   .text.startup.main:00000000000000f8 .L0 
     /tmp/ccb6PqEo.s:1227   .text.startup.main:00000000000000f8 .L0 
     /tmp/ccb6PqEo.s:1228   .text.startup.main:00000000000000f8 .L0 
     /tmp/ccb6PqEo.s:1232   .text.startup.main:00000000000000fe .L0 
     /tmp/ccb6PqEo.s:1233   .text.startup.main:00000000000000fe .L0 
     /tmp/ccb6PqEo.s:1235   .text.startup.main:0000000000000100 .L0 
     /tmp/ccb6PqEo.s:1238   .text.startup.main:0000000000000102 .L0 
     /tmp/ccb6PqEo.s:1239   .text.startup.main:0000000000000102 .L0 
     /tmp/ccb6PqEo.s:1240   .text.startup.main:0000000000000102 .L0 
     /tmp/ccb6PqEo.s:1243   .text.startup.main:0000000000000104 .L0 
     /tmp/ccb6PqEo.s:1245   .text.startup.main:0000000000000108 .L0 
     /tmp/ccb6PqEo.s:1249   .text.startup.main:000000000000010c .L0 
     /tmp/ccb6PqEo.s:1250   .text.startup.main:000000000000010c .L0 
     /tmp/ccb6PqEo.s:1253   .text.startup.main:000000000000010e .L0 
     /tmp/ccb6PqEo.s:1259   .text.startup.main:0000000000000112 .L0 
GAS LISTING /tmp/ccb6PqEo.s 			page 66


     /tmp/ccb6PqEo.s:1265   .text.startup.main:000000000000011e .L0 
     /tmp/ccb6PqEo.s:1266   .text.startup.main:000000000000011e .L0 
     /tmp/ccb6PqEo.s:1267   .text.startup.main:000000000000011e .L0 
     /tmp/ccb6PqEo.s:1272   .text.startup.main:0000000000000126 .L0 
     /tmp/ccb6PqEo.s:1273   .text.startup.main:0000000000000126 .L0 
     /tmp/ccb6PqEo.s:1274   .text.startup.main:0000000000000126 .L0 
     /tmp/ccb6PqEo.s:1275   .text.startup.main:0000000000000126 .L0 
     /tmp/ccb6PqEo.s:1279   .text.startup.main:000000000000012c .L0 
     /tmp/ccb6PqEo.s:1280   .text.startup.main:000000000000012c .L0 
     /tmp/ccb6PqEo.s:1283   .text.startup.main:000000000000012e .L0 
     /tmp/ccb6PqEo.s:1284   .text.startup.main:000000000000012e .L0 
     /tmp/ccb6PqEo.s:1285   .text.startup.main:000000000000012e .L0 
     /tmp/ccb6PqEo.s:1288   .text.startup.main:0000000000000132 .L0 
     /tmp/ccb6PqEo.s:1290   .text.startup.main:0000000000000136 .L0 
     /tmp/ccb6PqEo.s:1294   .text.startup.main:000000000000013a .L0 
     /tmp/ccb6PqEo.s:1295   .text.startup.main:000000000000013a .L0 
     /tmp/ccb6PqEo.s:1298   .text.startup.main:000000000000013c .L0 
     /tmp/ccb6PqEo.s:1304   .text.startup.main:0000000000000140 .L0 
     /tmp/ccb6PqEo.s:1305   .text.startup.main:0000000000000140 .L0 
     /tmp/ccb6PqEo.s:1306   .text.startup.main:0000000000000140 .L0 
     /tmp/ccb6PqEo.s:1309   .text.startup.main:0000000000000148 .L0 
     /tmp/ccb6PqEo.s:1310   .text.startup.main:0000000000000148 .L0 
     /tmp/ccb6PqEo.s:1313   .text.startup.main:0000000000000150 .L0 
     /tmp/ccb6PqEo.s:1317   .text.startup.main:000000000000015c .L0 
     /tmp/ccb6PqEo.s:1318   .text.startup.main:000000000000015c .L0 
     /tmp/ccb6PqEo.s:1323   .text.startup.main:0000000000000164 .L0 
     /tmp/ccb6PqEo.s:1325   .text.startup.main:0000000000000168 .L0 
     /tmp/ccb6PqEo.s:1332   .text.startup.main:0000000000000170 .L0 
     /tmp/ccb6PqEo.s:1338   .text.startup.main:0000000000000174 .L0 
     /tmp/ccb6PqEo.s:1344   .text.startup.main:0000000000000178 .L0 
     /tmp/ccb6PqEo.s:1346   .text.startup.main:000000000000017a .L0 
     /tmp/ccb6PqEo.s:1348   .text.startup.main:000000000000017c .L0 
     /tmp/ccb6PqEo.s:1357   .text.startup.main:0000000000000184 .L0 
     /tmp/ccb6PqEo.s:1360   .text.startup.main:0000000000000184 .L0 
     /tmp/ccb6PqEo.s:1363   .text.startup.main:0000000000000184 .L0 
     /tmp/ccb6PqEo.s:1364   .text.startup.main:0000000000000184 .L0 
     /tmp/ccb6PqEo.s:1365   .text.startup.main:0000000000000184 .L0 
     /tmp/ccb6PqEo.s:1366   .text.startup.main:0000000000000184 .L0 
     /tmp/ccb6PqEo.s:1367   .text.startup.main:0000000000000184 .L0 
     /tmp/ccb6PqEo.s:1368   .text.startup.main:0000000000000184 .L0 
     /tmp/ccb6PqEo.s:1370   .text.startup.main:0000000000000188 .L0 
     /tmp/ccb6PqEo.s:1374   .text.startup.main:000000000000018c .L0 
     /tmp/ccb6PqEo.s:1375   .text.startup.main:000000000000018c .L0 
     /tmp/ccb6PqEo.s:1378   .text.startup.main:000000000000018e .L0 
     /tmp/ccb6PqEo.s:1384   .text.startup.main:0000000000000192 .L0 
     /tmp/ccb6PqEo.s:1385   .text.startup.main:0000000000000192 .L0 
     /tmp/ccb6PqEo.s:1387   .text.startup.main:0000000000000194 .L0 
     /tmp/ccb6PqEo.s:1390   .text.startup.main:000000000000019c .L0 
     /tmp/ccb6PqEo.s:1391   .text.startup.main:000000000000019c .L0 
     /tmp/ccb6PqEo.s:2032   .data.msg_hold:0000000000000000 msg_hold
     /tmp/ccb6PqEo.s:1398   .text.startup.main:00000000000001b0 .L0 
     /tmp/ccb6PqEo.s:1399   .text.startup.main:00000000000001b0 .L0 
     /tmp/ccb6PqEo.s:1407   .text.startup.main:00000000000001ca .L0 
     /tmp/ccb6PqEo.s:1408   .text.startup.main:00000000000001ca .L0 
     /tmp/ccb6PqEo.s:1419   .text.startup.main:00000000000001e4 .L0 
     /tmp/ccb6PqEo.s:1420   .text.startup.main:00000000000001e4 .L0 
     /tmp/ccb6PqEo.s:1421   .text.startup.main:00000000000001e4 .L0 
GAS LISTING /tmp/ccb6PqEo.s 			page 67


     /tmp/ccb6PqEo.s:1422   .text.startup.main:00000000000001e4 .L0 
     /tmp/ccb6PqEo.s:1426   .text.startup.main:00000000000001ea .L0 
     /tmp/ccb6PqEo.s:1427   .text.startup.main:00000000000001ea .L0 
     /tmp/ccb6PqEo.s:1430   .text.startup.main:00000000000001ec .L0 
     /tmp/ccb6PqEo.s:1431   .text.startup.main:00000000000001ec .L0 
     /tmp/ccb6PqEo.s:1432   .text.startup.main:00000000000001ec .L0 
     /tmp/ccb6PqEo.s:1435   .text.startup.main:00000000000001f0 .L0 
     /tmp/ccb6PqEo.s:1437   .text.startup.main:00000000000001f4 .L0 
     /tmp/ccb6PqEo.s:1441   .text.startup.main:00000000000001f8 .L0 
     /tmp/ccb6PqEo.s:1442   .text.startup.main:00000000000001f8 .L0 
     /tmp/ccb6PqEo.s:1445   .text.startup.main:00000000000001fa .L0 
     /tmp/ccb6PqEo.s:1451   .text.startup.main:00000000000001fe .L0 
     /tmp/ccb6PqEo.s:1452   .text.startup.main:00000000000001fe .L0 
     /tmp/ccb6PqEo.s:1453   .text.startup.main:00000000000001fe .L0 
     /tmp/ccb6PqEo.s:1457   .text.startup.main:0000000000000206 .L0 
     /tmp/ccb6PqEo.s:1458   .text.startup.main:0000000000000206 .L0 
     /tmp/ccb6PqEo.s:1461   .text.startup.main:000000000000020c .L0 
     /tmp/ccb6PqEo.s:1464   .text.startup.main:000000000000020e .L0 
     /tmp/ccb6PqEo.s:1465   .text.startup.main:000000000000020e .L0 
     /tmp/ccb6PqEo.s:1466   .text.startup.main:000000000000020e .L0 
     /tmp/ccb6PqEo.s:1471   .text.startup.main:0000000000000216 .L0 
     /tmp/ccb6PqEo.s:1472   .text.startup.main:0000000000000216 .L0 
     /tmp/ccb6PqEo.s:1473   .text.startup.main:0000000000000216 .L0 
     /tmp/ccb6PqEo.s:1474   .text.startup.main:0000000000000216 .L0 
     /tmp/ccb6PqEo.s:1478   .text.startup.main:000000000000021c .L0 
     /tmp/ccb6PqEo.s:1479   .text.startup.main:000000000000021c .L0 
     /tmp/ccb6PqEo.s:1482   .text.startup.main:000000000000021e .L0 
     /tmp/ccb6PqEo.s:1483   .text.startup.main:000000000000021e .L0 
     /tmp/ccb6PqEo.s:1484   .text.startup.main:000000000000021e .L0 
     /tmp/ccb6PqEo.s:1487   .text.startup.main:0000000000000222 .L0 
     /tmp/ccb6PqEo.s:1489   .text.startup.main:0000000000000226 .L0 
     /tmp/ccb6PqEo.s:1493   .text.startup.main:000000000000022a .L0 
     /tmp/ccb6PqEo.s:1494   .text.startup.main:000000000000022a .L0 
     /tmp/ccb6PqEo.s:1497   .text.startup.main:000000000000022c .L0 
     /tmp/ccb6PqEo.s:1503   .text.startup.main:0000000000000230 .L0 
     /tmp/ccb6PqEo.s:1504   .text.startup.main:0000000000000230 .L0 
     /tmp/ccb6PqEo.s:1505   .text.startup.main:0000000000000230 .L0 
     /tmp/ccb6PqEo.s:1508   .text.startup.main:0000000000000238 .L0 
     /tmp/ccb6PqEo.s:1509   .text.startup.main:0000000000000238 .L0 
     /tmp/ccb6PqEo.s:1512   .text.startup.main:0000000000000240 .L0 
     /tmp/ccb6PqEo.s:1515   .text.startup.main:0000000000000248 .L0 
     /tmp/ccb6PqEo.s:1519   .text.startup.main:0000000000000254 .L0 
     /tmp/ccb6PqEo.s:1521   .text.startup.main:0000000000000258 .L0 
     /tmp/ccb6PqEo.s:2039   .data.msg_click_wet:0000000000000000 msg_click_wet
     /tmp/ccb6PqEo.s:1522   .text.startup.main:0000000000000258 .L0 
     /tmp/ccb6PqEo.s:1528   .text.startup.main:000000000000026a .L0 
     /tmp/ccb6PqEo.s:1529   .text.startup.main:000000000000026a .L0 
     /tmp/ccb6PqEo.s:1538   .text.startup.main:0000000000000284 .L0 
     /tmp/ccb6PqEo.s:1541   .text.startup.main:0000000000000286 .L0 
     /tmp/ccb6PqEo.s:1542   .text.startup.main:0000000000000286 .L0 
     /tmp/ccb6PqEo.s:1543   .text.startup.main:0000000000000286 .L0 
     /tmp/ccb6PqEo.s:1544   .text.startup.main:0000000000000286 .L0 
     /tmp/ccb6PqEo.s:1548   .text.startup.main:000000000000028c .L0 
     /tmp/ccb6PqEo.s:1549   .text.startup.main:000000000000028c .L0 
     /tmp/ccb6PqEo.s:1552   .text.startup.main:000000000000028e .L0 
     /tmp/ccb6PqEo.s:1553   .text.startup.main:000000000000028e .L0 
     /tmp/ccb6PqEo.s:1554   .text.startup.main:000000000000028e .L0 
GAS LISTING /tmp/ccb6PqEo.s 			page 68


     /tmp/ccb6PqEo.s:1559   .text.startup.main:0000000000000298 .L0 
     /tmp/ccb6PqEo.s:1561   .text.startup.main:000000000000029c .L0 
     /tmp/ccb6PqEo.s:1565   .text.startup.main:00000000000002a2 .L0 
     /tmp/ccb6PqEo.s:1566   .text.startup.main:00000000000002a2 .L0 
     /tmp/ccb6PqEo.s:1569   .text.startup.main:00000000000002a4 .L0 
     /tmp/ccb6PqEo.s:1573   .text.startup.main:00000000000002a8 .L0 
     /tmp/ccb6PqEo.s:1575   .text.startup.main:00000000000002ac .L0 
     /tmp/ccb6PqEo.s:1579   .text.startup.main:00000000000002ae .L0 
     /tmp/ccb6PqEo.s:1580   .text.startup.main:00000000000002ae .L0 
     /tmp/ccb6PqEo.s:1582   .text.startup.main:00000000000002b2 .L0 
     /tmp/ccb6PqEo.s:1587   .text.startup.main:00000000000002b8 .L0 
     /tmp/ccb6PqEo.s:1588   .text.startup.main:00000000000002b8 .L0 
     /tmp/ccb6PqEo.s:1589   .text.startup.main:00000000000002b8 .L0 
     /tmp/ccb6PqEo.s:1593   .text.startup.main:00000000000002c4 .L0 
     /tmp/ccb6PqEo.s:1594   .text.startup.main:00000000000002c4 .L0 
     /tmp/ccb6PqEo.s:1600   .text.startup.main:00000000000002d8 .L0 
     /tmp/ccb6PqEo.s:1601   .text.startup.main:00000000000002d8 .L0 
     /tmp/ccb6PqEo.s:1605   .text.startup.main:00000000000002e4 .L0 
     /tmp/ccb6PqEo.s:1606   .text.startup.main:00000000000002e4 .L0 
     /tmp/ccb6PqEo.s:1609   .text.startup.main:00000000000002ea .L0 
     /tmp/ccb6PqEo.s:1616   .text.startup.main:00000000000002f4 .L0 
     /tmp/ccb6PqEo.s:1617   .text.startup.main:00000000000002f4 .L0 
     /tmp/ccb6PqEo.s:1618   .text.startup.main:00000000000002f4 .L0 
     /tmp/ccb6PqEo.s:1621   .text.startup.main:00000000000002fc .L0 
src/core/core_riscv.h:305    .text.startup.main:0000000000000302 .L0 
     /tmp/ccb6PqEo.s:1632   .text.startup.main:0000000000000306 .L0 
     /tmp/ccb6PqEo.s:1633   .text.startup.main:0000000000000306 .L0 
     /tmp/ccb6PqEo.s:1635   .text.startup.main:0000000000000308 .L0 
     /tmp/ccb6PqEo.s:1640   .text.startup.main:0000000000000312 .L0 
     /tmp/ccb6PqEo.s:1641   .text.startup.main:0000000000000312 .L0 
     /tmp/ccb6PqEo.s:1647   .text.startup.main:0000000000000326 .L0 
     /tmp/ccb6PqEo.s:1652   .text.startup.main:0000000000000328 .L0 
     /tmp/ccb6PqEo.s:1653   .text.startup.main:0000000000000328 .L0 
src/core/core_riscv.h:160    .text.startup.main:0000000000000328 .L0 
     /tmp/ccb6PqEo.s:1660   .text.startup.main:000000000000032c .L0 
     /tmp/ccb6PqEo.s:1661   .text.startup.main:000000000000032c .L0 
     /tmp/ccb6PqEo.s:1663   .text.startup.main:000000000000032c .L0 
src/core/core_riscv.h:162    .text.startup.main:0000000000000330 .L0 
     /tmp/ccb6PqEo.s:1675   .text.startup.main:0000000000000334 .L0 
     /tmp/ccb6PqEo.s:1676   .text.startup.main:0000000000000334 .L0 
     /tmp/ccb6PqEo.s:1681   .text.startup.main:000000000000033c .L0 
     /tmp/ccb6PqEo.s:1682   .text.startup.main:000000000000033c .L0 
     /tmp/ccb6PqEo.s:1683   .text.startup.main:000000000000033c .L0 
     /tmp/ccb6PqEo.s:1684   .text.startup.main:000000000000033c .L0 
     /tmp/ccb6PqEo.s:1688   .text.startup.main:0000000000000342 .L0 
     /tmp/ccb6PqEo.s:1689   .text.startup.main:0000000000000342 .L0 
     /tmp/ccb6PqEo.s:1692   .text.startup.main:0000000000000344 .L0 
     /tmp/ccb6PqEo.s:1693   .text.startup.main:0000000000000344 .L0 
     /tmp/ccb6PqEo.s:1694   .text.startup.main:0000000000000344 .L0 
     /tmp/ccb6PqEo.s:1699   .text.startup.main:000000000000034c .L0 
     /tmp/ccb6PqEo.s:1701   .text.startup.main:0000000000000350 .L0 
     /tmp/ccb6PqEo.s:1705   .text.startup.main:0000000000000354 .L0 
     /tmp/ccb6PqEo.s:1706   .text.startup.main:0000000000000354 .L0 
     /tmp/ccb6PqEo.s:1709   .text.startup.main:0000000000000356 .L0 
     /tmp/ccb6PqEo.s:1715   .text.startup.main:000000000000035a .L0 
     /tmp/ccb6PqEo.s:1716   .text.startup.main:000000000000035a .L0 
     /tmp/ccb6PqEo.s:1717   .text.startup.main:000000000000035a .L0 
GAS LISTING /tmp/ccb6PqEo.s 			page 69


     /tmp/ccb6PqEo.s:1722   .text.startup.main:0000000000000362 .L0 
     /tmp/ccb6PqEo.s:1723   .text.startup.main:0000000000000362 .L0 
src/core/core_riscv.h:144    .text.startup.main:0000000000000362 .L0 
     /tmp/ccb6PqEo.s:1730   .text.startup.main:0000000000000366 .L0 
     /tmp/ccb6PqEo.s:1731   .text.startup.main:0000000000000366 .L0 
     /tmp/ccb6PqEo.s:1733   .text.startup.main:0000000000000366 .L0 
src/core/core_riscv.h:146    .text.startup.main:000000000000036a .L0 
     /tmp/ccb6PqEo.s:1745   .text.startup.main:000000000000036e .L0 
     /tmp/ccb6PqEo.s:1746   .text.startup.main:000000000000036e .L0 
     /tmp/ccb6PqEo.s:2046   .data.msg_click_dry:0000000000000000 msg_click_dry
     /tmp/ccb6PqEo.s:1754   .text.startup.main:0000000000000388 .L0 
     /tmp/ccb6PqEo.s:1755   .text.startup.main:0000000000000388 .L0 
     /tmp/ccb6PqEo.s:1766   .text.startup.main:00000000000003a4 .L0 
     /tmp/ccb6PqEo.s:1773   .text.USART1_IRQHandler:0000000000000000 USART1_IRQHandler
     /tmp/ccb6PqEo.s:1776   .text.USART1_IRQHandler:0000000000000000 .L0 
     /tmp/ccb6PqEo.s:1777   .text.USART1_IRQHandler:0000000000000000 .L0 
     /tmp/ccb6PqEo.s:1778   .text.USART1_IRQHandler:0000000000000000 .L0 
     /tmp/ccb6PqEo.s:1779   .text.USART1_IRQHandler:0000000000000000 $x
     /tmp/ccb6PqEo.s:1779   .text.USART1_IRQHandler:0000000000000000 .L0 
     /tmp/ccb6PqEo.s:1784   .text.USART1_IRQHandler:0000000000000010 .L0 
     /tmp/ccb6PqEo.s:1785   .text.USART1_IRQHandler:0000000000000014 .L0 
     /tmp/ccb6PqEo.s:1796   .text.SysTick_IRQHandler:0000000000000000 SysTick_IRQHandler
     /tmp/ccb6PqEo.s:1799   .text.SysTick_IRQHandler:0000000000000000 .L0 
     /tmp/ccb6PqEo.s:1800   .text.SysTick_IRQHandler:0000000000000000 .L0 
     /tmp/ccb6PqEo.s:1801   .text.SysTick_IRQHandler:0000000000000000 .L0 
     /tmp/ccb6PqEo.s:1802   .text.SysTick_IRQHandler:0000000000000000 $x
     /tmp/ccb6PqEo.s:1802   .text.SysTick_IRQHandler:0000000000000000 .L0 
     /tmp/ccb6PqEo.s:1804   .text.SysTick_IRQHandler:0000000000000004 .L0 
     /tmp/ccb6PqEo.s:1807   .text.SysTick_IRQHandler:000000000000000c .L0 
     /tmp/ccb6PqEo.s:1809   .text.SysTick_IRQHandler:0000000000000010 .L0 
     /tmp/ccb6PqEo.s:1810   .text.SysTick_IRQHandler:0000000000000010 .L0 
     /tmp/ccb6PqEo.s:1815   .text.SysTick_IRQHandler:0000000000000020 .L0 
     /tmp/ccb6PqEo.s:1816   .text.SysTick_IRQHandler:0000000000000020 .L0 
     /tmp/ccb6PqEo.s:1820   .text.SysTick_IRQHandler:000000000000002a .L0 
     /tmp/ccb6PqEo.s:1821   .text.SysTick_IRQHandler:000000000000002a .L0 
     /tmp/ccb6PqEo.s:1822   .text.SysTick_IRQHandler:000000000000002e .L0 
     /tmp/ccb6PqEo.s:1836   .text.EXTI7_0_IRQHandler:0000000000000000 EXTI7_0_IRQHandler
     /tmp/ccb6PqEo.s:1839   .text.EXTI7_0_IRQHandler:0000000000000000 .L0 
     /tmp/ccb6PqEo.s:1840   .text.EXTI7_0_IRQHandler:0000000000000000 .L0 
     /tmp/ccb6PqEo.s:1841   .text.EXTI7_0_IRQHandler:0000000000000000 .L0 
     /tmp/ccb6PqEo.s:1842   .text.EXTI7_0_IRQHandler:0000000000000000 $x
     /tmp/ccb6PqEo.s:1842   .text.EXTI7_0_IRQHandler:0000000000000000 .L0 
     /tmp/ccb6PqEo.s:1845   .text.EXTI7_0_IRQHandler:0000000000000008 .L0 
     /tmp/ccb6PqEo.s:1848   .text.EXTI7_0_IRQHandler:0000000000000010 .L0 
     /tmp/ccb6PqEo.s:1849   .text.EXTI7_0_IRQHandler:0000000000000010 .L0 
     /tmp/ccb6PqEo.s:1850   .text.EXTI7_0_IRQHandler:0000000000000010 .L0 
     /tmp/ccb6PqEo.s:1851   .text.EXTI7_0_IRQHandler:0000000000000010 .L0 
     /tmp/ccb6PqEo.s:2012   .sbss._ZZ18EXTI7_0_IRQHandlerE14btn_state_last:0000000000000000 _ZZ18EXTI7_0_IRQHandlerE14btn_state_last
     /tmp/ccb6PqEo.s:1854   .text.EXTI7_0_IRQHandler:0000000000000018 .L0 
     /tmp/ccb6PqEo.s:1856   .text.EXTI7_0_IRQHandler:000000000000001c .L0 
     /tmp/ccb6PqEo.s:1859   .text.EXTI7_0_IRQHandler:0000000000000020 .L0 
     /tmp/ccb6PqEo.s:1861   .text.EXTI7_0_IRQHandler:0000000000000024 .L0 
     /tmp/ccb6PqEo.s:1862   .text.EXTI7_0_IRQHandler:0000000000000024 .L0 
     /tmp/ccb6PqEo.s:1864   .text.EXTI7_0_IRQHandler:0000000000000028 .L0 
     /tmp/ccb6PqEo.s:1866   .text.EXTI7_0_IRQHandler:000000000000002a .L0 
     /tmp/ccb6PqEo.s:1867   .text.EXTI7_0_IRQHandler:000000000000002a .L0 
     /tmp/ccb6PqEo.s:1875   .text.EXTI7_0_IRQHandler:0000000000000042 .L0 
GAS LISTING /tmp/ccb6PqEo.s 			page 70


     /tmp/ccb6PqEo.s:1876   .text.EXTI7_0_IRQHandler:0000000000000042 .L0 
     /tmp/ccb6PqEo.s:2018   .sbss._ZZ18EXTI7_0_IRQHandlerE4wait:0000000000000000 _ZZ18EXTI7_0_IRQHandlerE4wait
     /tmp/ccb6PqEo.s:1879   .text.EXTI7_0_IRQHandler:0000000000000048 .L0 
     /tmp/ccb6PqEo.s:1882   .text.EXTI7_0_IRQHandler:0000000000000050 .L0 
     /tmp/ccb6PqEo.s:1883   .text.EXTI7_0_IRQHandler:0000000000000050 .L0 
     /tmp/ccb6PqEo.s:1887   .text.EXTI7_0_IRQHandler:0000000000000058 .L0 
     /tmp/ccb6PqEo.s:1891   .text.EXTI7_0_IRQHandler:000000000000005c .L0 
     /tmp/ccb6PqEo.s:1892   .text.EXTI7_0_IRQHandler:000000000000005c .L0 
     /tmp/ccb6PqEo.s:1900   .text.EXTI7_0_IRQHandler:0000000000000074 .L0 
     /tmp/ccb6PqEo.s:1901   .text.EXTI7_0_IRQHandler:0000000000000074 .L0 
     /tmp/ccb6PqEo.s:1903   .text.EXTI7_0_IRQHandler:0000000000000078 .L0 
     /tmp/ccb6PqEo.s:1906   .text.EXTI7_0_IRQHandler:000000000000007e .L0 
     /tmp/ccb6PqEo.s:1908   .text.EXTI7_0_IRQHandler:0000000000000082 .L0 
     /tmp/ccb6PqEo.s:1910   .text.EXTI7_0_IRQHandler:0000000000000086 .L0 
     /tmp/ccb6PqEo.s:1912   .text.EXTI7_0_IRQHandler:0000000000000088 .L0 
     /tmp/ccb6PqEo.s:1914   .text.EXTI7_0_IRQHandler:000000000000008c .L0 
     /tmp/ccb6PqEo.s:1916   .text.EXTI7_0_IRQHandler:0000000000000090 .L0 
     /tmp/ccb6PqEo.s:1920   .text.EXTI7_0_IRQHandler:000000000000009a .L0 
     /tmp/ccb6PqEo.s:1921   .text.EXTI7_0_IRQHandler:000000000000009a .L0 
     /tmp/ccb6PqEo.s:1925   .text.EXTI7_0_IRQHandler:00000000000000a4 .L0 
     /tmp/ccb6PqEo.s:1928   .text.EXTI7_0_IRQHandler:00000000000000a8 .L0 
     /tmp/ccb6PqEo.s:1929   .text.EXTI7_0_IRQHandler:00000000000000a8 .L0 
     /tmp/ccb6PqEo.s:1933   .text.EXTI7_0_IRQHandler:00000000000000b2 .L0 
     /tmp/ccb6PqEo.s:1936   .text.EXTI7_0_IRQHandler:00000000000000b6 .L0 
     /tmp/ccb6PqEo.s:1940   .text.EXTI7_0_IRQHandler:00000000000000c0 .L0 
     /tmp/ccb6PqEo.s:1941   .text.EXTI7_0_IRQHandler:00000000000000c0 .L0 
     /tmp/ccb6PqEo.s:1945   .text.EXTI7_0_IRQHandler:00000000000000ca .L0 
     /tmp/ccb6PqEo.s:1948   .text.EXTI7_0_IRQHandler:00000000000000ce .L0 
     /tmp/ccb6PqEo.s:1949   .text.EXTI7_0_IRQHandler:00000000000000ce .L0 
     /tmp/ccb6PqEo.s:1953   .text.EXTI7_0_IRQHandler:00000000000000d8 .L0 
     /tmp/ccb6PqEo.s:1954   .text.EXTI7_0_IRQHandler:00000000000000dc .L0 
     /tmp/ccb6PqEo.s:1961   .text.HardFault_Handler:0000000000000000 HardFault_Handler
     /tmp/ccb6PqEo.s:1964   .text.HardFault_Handler:0000000000000000 .L0 
     /tmp/ccb6PqEo.s:1965   .text.HardFault_Handler:0000000000000000 .L0 
     /tmp/ccb6PqEo.s:1966   .text.HardFault_Handler:0000000000000000 .L0 
     /tmp/ccb6PqEo.s:1967   .text.HardFault_Handler:0000000000000000 $x
     /tmp/ccb6PqEo.s:1967   .text.HardFault_Handler:0000000000000000 .L0 
     /tmp/ccb6PqEo.s:1971   .text.HardFault_Handler:0000000000000008 .L0 
     /tmp/ccb6PqEo.s:1972   .text.HardFault_Handler:0000000000000008 .L0 
     /tmp/ccb6PqEo.s:1973   .text.HardFault_Handler:0000000000000008 .L0 
     /tmp/ccb6PqEo.s:1974   .text.HardFault_Handler:0000000000000008 .L0 
     /tmp/ccb6PqEo.s:1975   .text.HardFault_Handler:000000000000000a .L0 
     /tmp/ccb6PqEo.s:1981   .text.startup._GLOBAL__sub_I__Z10hexToASCIIPKhhPh:0000000000000000 _GLOBAL__sub_I__Z10hexToASCIIPKhhPh
     /tmp/ccb6PqEo.s:1984   .text.startup._GLOBAL__sub_I__Z10hexToASCIIPKhhPh:0000000000000000 .L0 
     /tmp/ccb6PqEo.s:1988   .text.startup._GLOBAL__sub_I__Z10hexToASCIIPKhhPh:0000000000000000 .L0 
     /tmp/ccb6PqEo.s:1989   .text.startup._GLOBAL__sub_I__Z10hexToASCIIPKhhPh:0000000000000000 $x
     /tmp/ccb6PqEo.s:1989   .text.startup._GLOBAL__sub_I__Z10hexToASCIIPKhhPh:0000000000000000 .L0 
     /tmp/ccb6PqEo.s:2003   .text.startup._GLOBAL__sub_I__Z10hexToASCIIPKhhPh:000000000000002a .L0 
     /tmp/ccb6PqEo.s:7836   .debug_line_str:000000000000002f .L0 
     /tmp/ccb6PqEo.s:7836   .debug_line_str:0000000000000051 .L0 
     /tmp/ccb6PqEo.s:7836   .debug_line_str:0000000000000055 .L0 
     /tmp/ccb6PqEo.s:7836   .debug_line_str:000000000000005e .L0 
     /tmp/ccb6PqEo.s:7836   .debug_line_str:000000000000008f .L0 
     /tmp/ccb6PqEo.s:7836   .debug_line_str:00000000000000bc .L0 
     /tmp/ccb6PqEo.s:7836   .debug_line_str:00000000000000c5 .L0 
     /tmp/ccb6PqEo.s:7836   .debug_line_str:00000000000000ce .L0 
     /tmp/ccb6PqEo.s:7836   .debug_line_str:00000000000000da .L0 
GAS LISTING /tmp/ccb6PqEo.s 			page 71


     /tmp/ccb6PqEo.s:7836   .debug_line_str:00000000000000e3 .L0 
     /tmp/ccb6PqEo.s:7836   .debug_line_str:00000000000000f0 .L0 
     /tmp/ccb6PqEo.s:7836   .debug_line_str:00000000000000fb .L0 
     /tmp/ccb6PqEo.s:7836   .debug_line_str:000000000000010c .L0 
     /tmp/ccb6PqEo.s:7836   .debug_line_str:0000000000000116 .L0 
     /tmp/ccb6PqEo.s:7836   .debug_line_str:000000000000011d .L0 
     /tmp/ccb6PqEo.s:86     .text._Z10hexToASCIIPKhhPh:0000000000000040 .L0 
     /tmp/ccb6PqEo.s:237    .text._Z10intToASCIIiPhh:00000000000000a4 .L0 
     /tmp/ccb6PqEo.s:365    .text._Z10ASCIIToIntPKhh:0000000000000074 .L0 
     /tmp/ccb6PqEo.s:412    .text._Z6str_eqPKhS0_h:0000000000000022 .L0 
     /tmp/ccb6PqEo.s:456    .text._Z6delayTm:000000000000001a .L0 
     /tmp/ccb6PqEo.s:473    .text._Z9flash_getv:000000000000000a .L0 
     /tmp/ccb6PqEo.s:708    .text._Z10flash_saveh:00000000000000e8 .L0 
     /tmp/ccb6PqEo.s:996    .text.SystemInit:0000000000000184 .L0 
     /tmp/ccb6PqEo.s:1769   .text.startup.main:00000000000003a4 .L0 
     /tmp/ccb6PqEo.s:1788   .text.USART1_IRQHandler:0000000000000014 .L0 
     /tmp/ccb6PqEo.s:1825   .text.SysTick_IRQHandler:000000000000002e .L0 
     /tmp/ccb6PqEo.s:1957   .text.EXTI7_0_IRQHandler:00000000000000dc .L0 
     /tmp/ccb6PqEo.s:1978   .text.HardFault_Handler:000000000000000a .L0 
     /tmp/ccb6PqEo.s:2006   .text.startup._GLOBAL__sub_I__Z10hexToASCIIPKhhPh:000000000000002a .L0 
     /tmp/ccb6PqEo.s:75     .text._Z10hexToASCIIPKhhPh:000000000000003e .L1
     /tmp/ccb6PqEo.s:46     .text._Z10hexToASCIIPKhhPh:000000000000001c .L4
     /tmp/ccb6PqEo.s:66     .text._Z10hexToASCIIPKhhPh:0000000000000034 .L6
     /tmp/ccb6PqEo.s:31     .text._Z10hexToASCIIPKhhPh:000000000000000a .L7
     /tmp/ccb6PqEo.s:216    .text._Z10intToASCIIiPhh:0000000000000092 .L13
     /tmp/ccb6PqEo.s:170    .text._Z10intToASCIIiPhh:0000000000000064 .L19
     /tmp/ccb6PqEo.s:192    .text._Z10intToASCIIiPhh:0000000000000080 .L12
     /tmp/ccb6PqEo.s:207    .text._Z10intToASCIIiPhh:000000000000008a .L22
     /tmp/ccb6PqEo.s:130    .text._Z10intToASCIIiPhh:000000000000002c .L26
     /tmp/ccb6PqEo.s:168    .text._Z10intToASCIIiPhh:0000000000000062 .L23
     /tmp/ccb6PqEo.s:147    .text._Z10intToASCIIiPhh:0000000000000046 .L17
     /tmp/ccb6PqEo.s:123    .text._Z10intToASCIIiPhh:0000000000000020 .L15
     /tmp/ccb6PqEo.s:352    .text._Z10ASCIIToIntPKhh:0000000000000070 .L33
     /tmp/ccb6PqEo.s:298    .text._Z10ASCIIToIntPKhh:0000000000000038 .L32
     /tmp/ccb6PqEo.s:345    .text._Z10ASCIIToIntPKhh:000000000000006c .L35
     /tmp/ccb6PqEo.s:332    .text._Z10ASCIIToIntPKhh:000000000000005e .L41
     /tmp/ccb6PqEo.s:274    .text._Z10ASCIIToIntPKhh:000000000000001c .L42
     /tmp/ccb6PqEo.s:282    .text._Z10ASCIIToIntPKhh:0000000000000026 .L29
     /tmp/ccb6PqEo.s:405    .text._Z6str_eqPKhS0_h:000000000000001e .L46
     /tmp/ccb6PqEo.s:386    .text._Z6str_eqPKhS0_h:000000000000000a .L45
     /tmp/ccb6PqEo.s:382    .text._Z6str_eqPKhS0_h:0000000000000006 .L49
     /tmp/ccb6PqEo.s:450    .text._Z6delayTm:0000000000000018 .L50
     /tmp/ccb6PqEo.s:442    .text._Z6delayTm:0000000000000012 .L52
     /tmp/ccb6PqEo.s:700    .text._Z10flash_saveh:00000000000000e4 .L58
     /tmp/ccb6PqEo.s:563    .text._Z10flash_saveh:0000000000000058 .L59
     /tmp/ccb6PqEo.s:597    .text._Z10flash_saveh:000000000000007e .L60
     /tmp/ccb6PqEo.s:619    .text._Z10flash_saveh:000000000000009a .L61
     /tmp/ccb6PqEo.s:640    .text._Z10flash_saveh:00000000000000b6 .L62
     /tmp/ccb6PqEo.s:952    .text.SystemInit:0000000000000150 .L68
     /tmp/ccb6PqEo.s:944    .text.SystemInit:000000000000014a .L69
     /tmp/ccb6PqEo.s:998    .rodata.main.str1.4:0000000000000000 .LC0
     /tmp/ccb6PqEo.s:1155   .rodata.main:0000000000000000 .L76
     /tmp/ccb6PqEo.s:1001   .rodata.main.str1.4:0000000000000014 .LC1
     /tmp/ccb6PqEo.s:1004   .rodata.main.str1.4:0000000000000040 .LC2
     /tmp/ccb6PqEo.s:1007   .rodata.main.str1.4:0000000000000054 .LC3
     /tmp/ccb6PqEo.s:1138   .text.startup.main:000000000000006e .L74
     /tmp/ccb6PqEo.s:1255   .text.startup.main:0000000000000112 .L97
GAS LISTING /tmp/ccb6PqEo.s 			page 72


     /tmp/ccb6PqEo.s:1247   .text.startup.main:000000000000010c .L98
     /tmp/ccb6PqEo.s:1183   .text.startup.main:00000000000000a8 .L99
     /tmp/ccb6PqEo.s:1300   .text.startup.main:0000000000000140 .L91
     /tmp/ccb6PqEo.s:1292   .text.startup.main:000000000000013a .L92
     /tmp/ccb6PqEo.s:1380   .text.startup.main:0000000000000192 .L93
     /tmp/ccb6PqEo.s:1372   .text.startup.main:000000000000018c .L94
     /tmp/ccb6PqEo.s:1447   .text.startup.main:00000000000001fe .L95
     /tmp/ccb6PqEo.s:1439   .text.startup.main:00000000000001f8 .L96
     /tmp/ccb6PqEo.s:1499   .text.startup.main:0000000000000230 .L85
     /tmp/ccb6PqEo.s:1491   .text.startup.main:000000000000022a .L86
     /tmp/ccb6PqEo.s:1648   .text.startup.main:0000000000000328 .L111
     /tmp/ccb6PqEo.s:1455   .text.startup.main:0000000000000206 .L110
     /tmp/ccb6PqEo.s:1577   .text.startup.main:00000000000002ae .L81
     /tmp/ccb6PqEo.s:1571   .text.startup.main:00000000000002a8 .L82
     /tmp/ccb6PqEo.s:1563   .text.startup.main:00000000000002a2 .L112
     /tmp/ccb6PqEo.s:1711   .text.startup.main:000000000000035a .L88
     /tmp/ccb6PqEo.s:1703   .text.startup.main:0000000000000354 .L89
     /tmp/ccb6PqEo.s:1539   .text.startup.main:0000000000000286 .L80
     /tmp/ccb6PqEo.s:1462   .text.startup.main:000000000000020e .L79
     /tmp/ccb6PqEo.s:1263   .text.startup.main:000000000000011e .L78
     /tmp/ccb6PqEo.s:1162   .text.startup.main:0000000000000082 .L77
     /tmp/ccb6PqEo.s:1585   .text.startup.main:00000000000002b8 .L75
     /tmp/ccb6PqEo.s:1790   .rodata.SysTick_IRQHandler.str1.4:0000000000000000 .LC4
     /tmp/ccb6PqEo.s:1827   .rodata.EXTI7_0_IRQHandler.str1.4:0000000000000000 .LC5
     /tmp/ccb6PqEo.s:1830   .rodata.EXTI7_0_IRQHandler.str1.4:0000000000000014 .LC6
     /tmp/ccb6PqEo.s:1885   .text.EXTI7_0_IRQHandler:0000000000000058 .L115
     /tmp/ccb6PqEo.s:1889   .text.EXTI7_0_IRQHandler:000000000000005c .L117
     /tmp/ccb6PqEo.s:1926   .text.EXTI7_0_IRQHandler:00000000000000a8 .L121
     /tmp/ccb6PqEo.s:1934   .text.EXTI7_0_IRQHandler:00000000000000b6 .L119
     /tmp/ccb6PqEo.s:1946   .text.EXTI7_0_IRQHandler:00000000000000ce .L120
     /tmp/ccb6PqEo.s:1969   .text.HardFault_Handler:0000000000000008 .L123
     /tmp/ccb6PqEo.s:4814   .debug_abbrev:0000000000000000 .Ldebug_abbrev0
     /tmp/ccb6PqEo.s:7791   .debug_str:0000000000000a03 .LASF243
     /tmp/ccb6PqEo.s:7834   .debug_line_str:0000000000000022 .LASF0
     /tmp/ccb6PqEo.s:7832   .debug_line_str:0000000000000000 .LASF1
     /tmp/ccb6PqEo.s:7271   .debug_rnglists:00000000000000bf .LLRL64
     /tmp/ccb6PqEo.s:7317   .debug_line:0000000000000000 .Ldebug_line0
     /tmp/ccb6PqEo.s:7651   .debug_str:000000000000070b .LASF148
     /tmp/ccb6PqEo.s:7699   .debug_str:000000000000080a .LASF2
     /tmp/ccb6PqEo.s:7393   .debug_str:0000000000000196 .LASF3
     /tmp/ccb6PqEo.s:7727   .debug_str:00000000000008ad .LASF4
     /tmp/ccb6PqEo.s:7429   .debug_str:0000000000000241 .LASF5
     /tmp/ccb6PqEo.s:7581   .debug_str:000000000000058f .LASF6
     /tmp/ccb6PqEo.s:7609   .debug_str:0000000000000632 .LASF7
     /tmp/ccb6PqEo.s:7369   .debug_str:000000000000011e .LASF8
     /tmp/ccb6PqEo.s:7403   .debug_str:00000000000001be .LASF9
     /tmp/ccb6PqEo.s:7321   .debug_str:0000000000000005 .LASF10
     /tmp/ccb6PqEo.s:7341   .debug_str:0000000000000081 .LASF11
     /tmp/ccb6PqEo.s:7547   .debug_str:00000000000004d9 .LASF12
     /tmp/ccb6PqEo.s:7351   .debug_str:00000000000000b3 .LASF13
     /tmp/ccb6PqEo.s:7629   .debug_str:0000000000000689 .LASF14
     /tmp/ccb6PqEo.s:7441   .debug_str:0000000000000284 .LASF15
     /tmp/ccb6PqEo.s:7773   .debug_str:0000000000000975 .LASF16
     /tmp/ccb6PqEo.s:7535   .debug_str:000000000000049b .LASF17
     /tmp/ccb6PqEo.s:7345   .debug_str:0000000000000091 .LASF18
     /tmp/ccb6PqEo.s:7611   .debug_str:000000000000063b .LASF19
     /tmp/ccb6PqEo.s:7375   .debug_str:0000000000000143 .LASF20
GAS LISTING /tmp/ccb6PqEo.s 			page 73


     /tmp/ccb6PqEo.s:7723   .debug_str:0000000000000892 .LASF21
     /tmp/ccb6PqEo.s:7695   .debug_str:00000000000007f4 .LASF22
     /tmp/ccb6PqEo.s:7437   .debug_str:0000000000000273 .LASF23
     /tmp/ccb6PqEo.s:7405   .debug_str:00000000000001c7 .LASF24
     /tmp/ccb6PqEo.s:7653   .debug_str:0000000000000710 .LASF25
     /tmp/ccb6PqEo.s:7719   .debug_str:0000000000000873 .LASF26
     /tmp/ccb6PqEo.s:7707   .debug_str:000000000000083e .LASF27
     /tmp/ccb6PqEo.s:7735   .debug_str:00000000000008d8 .LASF28
     /tmp/ccb6PqEo.s:7353   .debug_str:00000000000000c6 .LASF29
     /tmp/ccb6PqEo.s:7469   .debug_str:0000000000000318 .LASF31
     /tmp/ccb6PqEo.s:7787   .debug_str:00000000000009ec .LASF30
     /tmp/ccb6PqEo.s:7717   .debug_str:0000000000000869 .LASF32
     /tmp/ccb6PqEo.s:7757   .debug_str:0000000000000934 .LASF33
     /tmp/ccb6PqEo.s:7687   .debug_str:00000000000007d2 .LASF34
     /tmp/ccb6PqEo.s:7453   .debug_str:00000000000002d6 .LASF35
     /tmp/ccb6PqEo.s:7793   .debug_str:0000000000000a85 .LASF36
     /tmp/ccb6PqEo.s:7693   .debug_str:00000000000007eb .LASF37
     /tmp/ccb6PqEo.s:7759   .debug_str:0000000000000942 .LASF38
     /tmp/ccb6PqEo.s:7733   .debug_str:00000000000008c6 .LASF39
     /tmp/ccb6PqEo.s:7579   .debug_str:0000000000000581 .LASF40
     /tmp/ccb6PqEo.s:7447   .debug_str:00000000000002a7 .LASF41
     /tmp/ccb6PqEo.s:7555   .debug_str:0000000000000502 .LASF42
     /tmp/ccb6PqEo.s:7649   .debug_str:0000000000000702 .LASF43
     /tmp/ccb6PqEo.s:7417   .debug_str:0000000000000202 .LASF44
     /tmp/ccb6PqEo.s:7407   .debug_str:00000000000001d5 .LASF48
     /tmp/ccb6PqEo.s:7703   .debug_str:000000000000082b .LASF45
     /tmp/ccb6PqEo.s:7591   .debug_str:00000000000005ee .LASF46
     /tmp/ccb6PqEo.s:7367   .debug_str:0000000000000112 .LASF47
     /tmp/ccb6PqEo.s:7563   .debug_str:000000000000052e .LASF49
     /tmp/ccb6PqEo.s:7537   .debug_str:00000000000004ae .LASF50
     /tmp/ccb6PqEo.s:7731   .debug_str:00000000000008bf .LASF51
     /tmp/ccb6PqEo.s:7359   .debug_str:00000000000000e8 .LASF52
     /tmp/ccb6PqEo.s:7815   .debug_str:0000000000000af9 .LASF53
     /tmp/ccb6PqEo.s:7709   .debug_str:000000000000084b .LASF54
     /tmp/ccb6PqEo.s:7385   .debug_str:0000000000000173 .LASF55
     /tmp/ccb6PqEo.s:7455   .debug_str:00000000000002e1 .LASF244
     /tmp/ccb6PqEo.s:7379   .debug_str:000000000000015a .LASF56
     /tmp/ccb6PqEo.s:7325   .debug_str:0000000000000018 .LASF57
     /tmp/ccb6PqEo.s:7711   .debug_str:0000000000000851 .LASF58
     /tmp/ccb6PqEo.s:7327   .debug_str:0000000000000021 .LASF59
     /tmp/ccb6PqEo.s:7401   .debug_str:00000000000001b7 .LASF60
     /tmp/ccb6PqEo.s:7673   .debug_str:000000000000078c .LASF61
     /tmp/ccb6PqEo.s:7777   .debug_str:000000000000098f .LASF62
     /tmp/ccb6PqEo.s:7675   .debug_str:0000000000000796 .LASF63
     /tmp/ccb6PqEo.s:7451   .debug_str:00000000000002d1 .LASF64
     /tmp/ccb6PqEo.s:7677   .debug_str:00000000000007a0 .LASF65
     /tmp/ccb6PqEo.s:7741   .debug_str:00000000000008fa .LASF66
     /tmp/ccb6PqEo.s:7679   .debug_str:00000000000007aa .LASF67
     /tmp/ccb6PqEo.s:7803   .debug_str:0000000000000ac5 .LASF68
     /tmp/ccb6PqEo.s:7681   .debug_str:00000000000007b4 .LASF69
     /tmp/ccb6PqEo.s:7769   .debug_str:0000000000000967 .LASF70
     /tmp/ccb6PqEo.s:7683   .debug_str:00000000000007be .LASF71
     /tmp/ccb6PqEo.s:7409   .debug_str:00000000000001e3 .LASF72
     /tmp/ccb6PqEo.s:7685   .debug_str:00000000000007c8 .LASF73
     /tmp/ccb6PqEo.s:7481   .debug_str:0000000000000362 .LASF74
     /tmp/ccb6PqEo.s:7811   .debug_str:0000000000000ae0 .LASF75
     /tmp/ccb6PqEo.s:7349   .debug_str:00000000000000ad .LASF76
GAS LISTING /tmp/ccb6PqEo.s 			page 74


     /tmp/ccb6PqEo.s:7599   .debug_str:0000000000000609 .LASF77
     /tmp/ccb6PqEo.s:7373   .debug_str:0000000000000134 .LASF80
     /tmp/ccb6PqEo.s:7631   .debug_str:000000000000069c .LASF78
     /tmp/ccb6PqEo.s:7641   .debug_str:00000000000006d5 .LASF79
     /tmp/ccb6PqEo.s:7615   .debug_str:000000000000064f .LASF81
     /tmp/ccb6PqEo.s:7765   .debug_str:000000000000095c .LASF82
     /tmp/ccb6PqEo.s:7659   .debug_str:0000000000000730 .LASF83
     /tmp/ccb6PqEo.s:7661   .debug_str:0000000000000736 .LASF84
     /tmp/ccb6PqEo.s:7443   .debug_str:0000000000000297 .LASF85
     /tmp/ccb6PqEo.s:7445   .debug_str:000000000000029f .LASF86
     /tmp/ccb6PqEo.s:7457   .debug_str:00000000000002ec .LASF87
     /tmp/ccb6PqEo.s:7459   .debug_str:00000000000002f2 .LASF88
     /tmp/ccb6PqEo.s:7461   .debug_str:00000000000002f8 .LASF89
     /tmp/ccb6PqEo.s:7463   .debug_str:00000000000002fe .LASF90
     /tmp/ccb6PqEo.s:7331   .debug_str:0000000000000034 .LASF91
     /tmp/ccb6PqEo.s:7355   .debug_str:00000000000000d3 .LASF92
     /tmp/ccb6PqEo.s:7745   .debug_str:0000000000000907 .LASF93
     /tmp/ccb6PqEo.s:7747   .debug_str:000000000000090d .LASF94
     /tmp/ccb6PqEo.s:7749   .debug_str:0000000000000913 .LASF95
     /tmp/ccb6PqEo.s:7319   .debug_str:0000000000000000 .LASF96
     /tmp/ccb6PqEo.s:7509   .debug_str:000000000000040b .LASF97
     /tmp/ccb6PqEo.s:7511   .debug_str:0000000000000413 .LASF98
     /tmp/ccb6PqEo.s:7513   .debug_str:000000000000041b .LASF99
     /tmp/ccb6PqEo.s:7515   .debug_str:0000000000000423 .LASF100
     /tmp/ccb6PqEo.s:7617   .debug_str:000000000000065d .LASF101
     /tmp/ccb6PqEo.s:7767   .debug_str:0000000000000962 .LASF102
     /tmp/ccb6PqEo.s:7577   .debug_str:0000000000000575 .LASF103
     /tmp/ccb6PqEo.s:7627   .debug_str:000000000000067a .LASF104
     /tmp/ccb6PqEo.s:7597   .debug_str:0000000000000602 .LASF105
     /tmp/ccb6PqEo.s:7365   .debug_str:000000000000010c .LASF106
     /tmp/ccb6PqEo.s:7529   .debug_str:0000000000000483 .LASF107
     /tmp/ccb6PqEo.s:7623   .debug_str:000000000000066f .LASF108
     /tmp/ccb6PqEo.s:7571   .debug_str:000000000000055f .LASF109
     /tmp/ccb6PqEo.s:7587   .debug_str:00000000000005d7 .LASF110
     /tmp/ccb6PqEo.s:7601   .debug_str:0000000000000613 .LASF111
     /tmp/ccb6PqEo.s:7801   .debug_str:0000000000000ab5 .LASF112
     /tmp/ccb6PqEo.s:7493   .debug_str:00000000000003a3 .LASF113
     /tmp/ccb6PqEo.s:7387   .debug_str:000000000000017e .LASF114
     /tmp/ccb6PqEo.s:7763   .debug_str:0000000000000955 .LASF115
     /tmp/ccb6PqEo.s:7621   .debug_str:000000000000066a .LASF116
     /tmp/ccb6PqEo.s:7397   .debug_str:00000000000001a9 .LASF117
     /tmp/ccb6PqEo.s:7329   .debug_str:0000000000000026 .LASF118
     /tmp/ccb6PqEo.s:7483   .debug_str:0000000000000369 .LASF119
     /tmp/ccb6PqEo.s:7337   .debug_str:0000000000000063 .LASF120
     /tmp/ccb6PqEo.s:7431   .debug_str:000000000000024f .LASF121
     /tmp/ccb6PqEo.s:7807   .debug_str:0000000000000ad2 .LASF122
     /tmp/ccb6PqEo.s:7399   .debug_str:00000000000001b2 .LASF123
     /tmp/ccb6PqEo.s:7479   .debug_str:000000000000035c .LASF124
     /tmp/ccb6PqEo.s:7517   .debug_str:000000000000042b .LASF125
     /tmp/ccb6PqEo.s:7825   .debug_str:0000000000000b37 .LASF126
     /tmp/ccb6PqEo.s:7721   .debug_str:0000000000000885 .LASF127
     /tmp/ccb6PqEo.s:7507   .debug_str:00000000000003fc .LASF128
     /tmp/ccb6PqEo.s:7795   .debug_str:0000000000000a98 .LASF129
     /tmp/ccb6PqEo.s:7557   .debug_str:000000000000050a .LASF130
     /tmp/ccb6PqEo.s:7531   .debug_str:0000000000000489 .LASF131
     /tmp/ccb6PqEo.s:7477   .debug_str:000000000000034e .LASF132
     /tmp/ccb6PqEo.s:7619   .debug_str:0000000000000664 .LASF133
GAS LISTING /tmp/ccb6PqEo.s 			page 75


     /tmp/ccb6PqEo.s:7427   .debug_str:000000000000023c .LASF134
     /tmp/ccb6PqEo.s:7715   .debug_str:000000000000085f .LASF135
     /tmp/ccb6PqEo.s:7425   .debug_str:0000000000000232 .LASF136
     /tmp/ccb6PqEo.s:7755   .debug_str:000000000000092b .LASF137
     /tmp/ccb6PqEo.s:7395   .debug_str:000000000000019f .LASF138
     /tmp/ccb6PqEo.s:7633   .debug_str:00000000000006a1 .LASF139
     /tmp/ccb6PqEo.s:7669   .debug_str:000000000000077e .LASF140
     /tmp/ccb6PqEo.s:7489   .debug_str:000000000000038c .LASF141
     /tmp/ccb6PqEo.s:7821   .debug_str:0000000000000b1e .LASF245
     /tmp/ccb6PqEo.s:7539   .debug_str:00000000000004b6 .LASF142
     /tmp/ccb6PqEo.s:7663   .debug_str:000000000000073c .LASF143
     /tmp/ccb6PqEo.s:7519   .debug_str:0000000000000430 .LASF144
     /tmp/ccb6PqEo.s:7411   .debug_str:00000000000001e9 .LASF246
     /tmp/ccb6PqEo.s:7343   .debug_str:000000000000008a .LASF145
     /tmp/ccb6PqEo.s:7549   .debug_str:00000000000004ec .LASF146
     /tmp/ccb6PqEo.s:7771   .debug_str:000000000000096c .LASF147
     /tmp/ccb6PqEo.s:7467   .debug_str:000000000000030e .LASF149
     /tmp/ccb6PqEo.s:7779   .debug_str:0000000000000997 .LASF150
     /tmp/ccb6PqEo.s:7705   .debug_str:0000000000000833 .LASF151
     /tmp/ccb6PqEo.s:7559   .debug_str:0000000000000511 .LASF152
     /tmp/ccb6PqEo.s:7505   .debug_str:00000000000003f1 .LASF153
     /tmp/ccb6PqEo.s:7419   .debug_str:000000000000020b .LASF154
     /tmp/ccb6PqEo.s:7565   .debug_str:0000000000000540 .LASF155
     /tmp/ccb6PqEo.s:7567   .debug_str:000000000000054b .LASF156
     /tmp/ccb6PqEo.s:7333   .debug_str:000000000000003a .LASF164
     /tmp/ccb6PqEo.s:7643   .debug_str:00000000000006e2 .LASF157
     /tmp/ccb6PqEo.s:7575   .debug_str:000000000000056c .LASF158
     /tmp/ccb6PqEo.s:7809   .debug_str:0000000000000ad8 .LASF159
     /tmp/ccb6PqEo.s:7805   .debug_str:0000000000000aca .LASF160
     /tmp/ccb6PqEo.s:7553   .debug_str:00000000000004fa .LASF161
     /tmp/ccb6PqEo.s:7743   .debug_str:00000000000008ff .LASF162
     /tmp/ccb6PqEo.s:7573   .debug_str:0000000000000566 .LASF163
     /tmp/ccb6PqEo.s:7583   .debug_str:0000000000000599 .LASF166
     /tmp/ccb6PqEo.s:7413   .debug_str:00000000000001f5 .LASF165
     /tmp/ccb6PqEo.s:7495   .debug_str:00000000000003a9 .LASF167
     /tmp/ccb6PqEo.s:7671   .debug_str:0000000000000786 .LASF168
     /tmp/ccb6PqEo.s:7433   .debug_str:0000000000000255 .LASF169
     /tmp/ccb6PqEo.s:7381   .debug_str:0000000000000163 .LASF208
     /tmp/ccb6PqEo.s:7783   .debug_str:00000000000009d6 .LASF247
     /tmp/ccb6PqEo.s:7697   .debug_str:0000000000000800 .LASF170
     /tmp/ccb6PqEo.s:7829   .debug_str:0000000000000b45 .LASF171
     /tmp/ccb6PqEo.s:7339   .debug_str:0000000000000072 .LASF248
     /tmp/ccb6PqEo.s:7589   .debug_str:00000000000005dd .LASF249
     /tmp/ccb6PqEo.s:7521   .debug_str:000000000000043e .LASF250
     /tmp/ccb6PqEo.s:7595   .debug_str:00000000000005fd .LASF172
     /tmp/ccb6PqEo.s:7533   .debug_str:0000000000000496 .LASF173
     /tmp/ccb6PqEo.s:7415   .debug_str:00000000000001fa .LASF174
     /tmp/ccb6PqEo.s:7421   .debug_str:0000000000000215 .LASF175
     /tmp/ccb6PqEo.s:7761   .debug_str:000000000000094d .LASF176
     /tmp/ccb6PqEo.s:7323   .debug_str:0000000000000012 .LASF177
     /tmp/ccb6PqEo.s:7729   .debug_str:00000000000008ba .LASF178
     /tmp/ccb6PqEo.s:7377   .debug_str:0000000000000150 .LASF179
     /tmp/ccb6PqEo.s:7605   .debug_str:0000000000000625 .LASF180
     /tmp/ccb6PqEo.s:7613   .debug_str:0000000000000644 .LASF181
     /tmp/ccb6PqEo.s:7713   .debug_str:0000000000000856 .LASF182
     /tmp/ccb6PqEo.s:7561   .debug_str:000000000000051e .LASF183
     /tmp/ccb6PqEo.s:7785   .debug_str:00000000000009e6 .LASF184
GAS LISTING /tmp/ccb6PqEo.s 			page 76


     /tmp/ccb6PqEo.s:7363   .debug_str:00000000000000fe .LASF185
     /tmp/ccb6PqEo.s:7725   .debug_str:000000000000089f .LASF186
     /tmp/ccb6PqEo.s:7635   .debug_str:00000000000006ab .LASF187
     /tmp/ccb6PqEo.s:7647   .debug_str:00000000000006f8 .LASF188
     /tmp/ccb6PqEo.s:7781   .debug_str:00000000000009a4 .LASF251
     /tmp/ccb6PqEo.s:7657   .debug_str:000000000000072b .LASF252
     /tmp/ccb6PqEo.s:7465   .debug_str:0000000000000304 .LASF189
     /tmp/ccb6PqEo.s:7347   .debug_str:00000000000000a4 .LASF190
     /tmp/ccb6PqEo.s:7361   .debug_str:00000000000000f8 .LASF191
     /tmp/ccb6PqEo.s:7739   .debug_str:00000000000008ed .LASF192
     /tmp/ccb6PqEo.s:7389   .debug_str:0000000000000183 .LASF193
     /tmp/ccb6PqEo.s:7391   .debug_str:000000000000018c .LASF198
     /tmp/ccb6PqEo.s:7523   .debug_str:000000000000045b .LASF200
     /tmp/ccb6PqEo.s:7823   .debug_str:0000000000000b2e .LASF194
     /tmp/ccb6PqEo.s:7645   .debug_str:00000000000006eb .LASF196
     /tmp/ccb6PqEo.s:7543   .debug_str:00000000000004ca .LASF195
     /tmp/ccb6PqEo.s:7585   .debug_str:00000000000005cb .LASF197
     /tmp/ccb6PqEo.s:7551   .debug_str:00000000000004f1 .LASF199
     /tmp/ccb6PqEo.s:7819   .debug_str:0000000000000b11 .LASF201
     /tmp/ccb6PqEo.s:7545   .debug_str:00000000000004d2 .LASF202
     /tmp/ccb6PqEo.s:7789   .debug_str:00000000000009f8 .LASF203
     /tmp/ccb6PqEo.s:7475   .debug_str:0000000000000346 .LASF204
     /tmp/ccb6PqEo.s:7751   .debug_str:0000000000000919 .LASF205
     /tmp/ccb6PqEo.s:7335   .debug_str:000000000000003f .LASF253
     /tmp/ccb6PqEo.s:1982   .text.startup._GLOBAL__sub_I__Z10hexToASCIIPKhhPh:0000000000000000 .LFB29
     /tmp/ccb6PqEo.s:2004   .text.startup._GLOBAL__sub_I__Z10hexToASCIIPKhhPh:000000000000002a .LFE29
     /tmp/ccb6PqEo.s:1986   .text.startup._GLOBAL__sub_I__Z10hexToASCIIPKhhPh:0000000000000000 .LBB111
     /tmp/ccb6PqEo.s:2002   .text.startup._GLOBAL__sub_I__Z10hexToASCIIPKhhPh:000000000000002a .LBE111
     /tmp/ccb6PqEo.s:2000   .text.startup._GLOBAL__sub_I__Z10hexToASCIIPKhhPh:000000000000002a .LVL172
     /tmp/ccb6PqEo.s:7665   .debug_str:0000000000000742 .LASF254
     /tmp/ccb6PqEo.s:7473   .debug_str:0000000000000337 .LASF206
     /tmp/ccb6PqEo.s:7491   .debug_str:0000000000000398 .LASF207
     /tmp/ccb6PqEo.s:7797   .debug_str:0000000000000a9e .LASF209
     /tmp/ccb6PqEo.s:1962   .text.HardFault_Handler:0000000000000000 .LFB27
     /tmp/ccb6PqEo.s:1976   .text.HardFault_Handler:000000000000000a .LFE27
     /tmp/ccb6PqEo.s:1968   .text.HardFault_Handler:0000000000000008 .LVL170
     /tmp/ccb6PqEo.s:7501   .debug_str:00000000000003cb .LASF210
     /tmp/ccb6PqEo.s:1837   .text.EXTI7_0_IRQHandler:0000000000000000 .LFB26
     /tmp/ccb6PqEo.s:1955   .text.EXTI7_0_IRQHandler:00000000000000dc .LFE26
     /tmp/ccb6PqEo.s:7625   .debug_str:0000000000000675 .LASF211
     /tmp/ccb6PqEo.s:7813   .debug_str:0000000000000aea .LASF212
     /tmp/ccb6PqEo.s:7541   .debug_str:00000000000004bc .LASF213
     /tmp/ccb6PqEo.s:6162   .debug_loclists:000000000000000c .LLST63
     /tmp/ccb6PqEo.s:1852   .text.EXTI7_0_IRQHandler:0000000000000018 .LVL163
     /tmp/ccb6PqEo.s:1873   .text.EXTI7_0_IRQHandler:0000000000000042 .LVL166
     /tmp/ccb6PqEo.s:1898   .text.EXTI7_0_IRQHandler:0000000000000074 .LVL169
     /tmp/ccb6PqEo.s:7637   .debug_str:00000000000006b4 .LASF214
     /tmp/ccb6PqEo.s:1797   .text.SysTick_IRQHandler:0000000000000000 .LFB25
     /tmp/ccb6PqEo.s:1823   .text.SysTick_IRQHandler:000000000000002e .LFE25
     /tmp/ccb6PqEo.s:1813   .text.SysTick_IRQHandler:0000000000000020 .LVL162
     /tmp/ccb6PqEo.s:7667   .debug_str:000000000000076c .LASF215
     /tmp/ccb6PqEo.s:1774   .text.USART1_IRQHandler:0000000000000000 .LFB24
     /tmp/ccb6PqEo.s:1786   .text.USART1_IRQHandler:0000000000000014 .LFE24
     /tmp/ccb6PqEo.s:1782   .text.USART1_IRQHandler:0000000000000010 .LVL161
     /tmp/ccb6PqEo.s:7799   .debug_str:0000000000000ab0 .LASF216
     /tmp/ccb6PqEo.s:1014   .text.startup.main:0000000000000000 .LFB23
     /tmp/ccb6PqEo.s:1767   .text.startup.main:00000000000003a4 .LFE23
GAS LISTING /tmp/ccb6PqEo.s 			page 77


     /tmp/ccb6PqEo.s:6186   .debug_loclists:0000000000000041 .LLST29
     /tmp/ccb6PqEo.s:1163   .text.startup.main:0000000000000082 .LBB78
     /tmp/ccb6PqEo.s:1764   .text.startup.main:00000000000003a4 .LBE78
     /tmp/ccb6PqEo.s:7527   .debug_str:000000000000047a .LASF217
     /tmp/ccb6PqEo.s:6193   .debug_loclists:000000000000004d .LLST38
     /tmp/ccb6PqEo.s:7691   .debug_str:00000000000007e3 .LASF218
     /tmp/ccb6PqEo.s:6207   .debug_loclists:0000000000000068 .LLST39
     /tmp/ccb6PqEo.s:1177   .text.startup.main:00000000000000a0 .LBB79
     /tmp/ccb6PqEo.s:7241   .debug_rnglists:0000000000000074 .LLRL40
     /tmp/ccb6PqEo.s:6214   .debug_loclists:0000000000000074 .LLST41
     /tmp/ccb6PqEo.s:6223   .debug_loclists:0000000000000083 .LLST42
     /tmp/ccb6PqEo.s:6230   .debug_loclists:000000000000008f .LLST43
     /tmp/ccb6PqEo.s:1270   .text.startup.main:0000000000000126 .LBB83
     /tmp/ccb6PqEo.s:1303   .text.startup.main:0000000000000140 .LBE83
     /tmp/ccb6PqEo.s:6237   .debug_loclists:000000000000009b .LLST44
     /tmp/ccb6PqEo.s:6246   .debug_loclists:00000000000000a9 .LLST45
     /tmp/ccb6PqEo.s:6260   .debug_loclists:00000000000000c3 .LLST46
     /tmp/ccb6PqEo.s:1320   .text.startup.main:0000000000000164 .LBB85
     /tmp/ccb6PqEo.s:7249   .debug_rnglists:0000000000000087 .LLRL47
     /tmp/ccb6PqEo.s:1329   .text.startup.main:0000000000000170 .LBB89
     /tmp/ccb6PqEo.s:7260   .debug_rnglists:00000000000000a3 .LLRL48
     /tmp/ccb6PqEo.s:6267   .debug_loclists:00000000000000cf .LLST49
     /tmp/ccb6PqEo.s:6276   .debug_loclists:00000000000000de .LLST50
     /tmp/ccb6PqEo.s:6285   .debug_loclists:00000000000000ed .LLST51
     /tmp/ccb6PqEo.s:1417   .text.startup.main:00000000000001e4 .LBB97
     /tmp/ccb6PqEo.s:1450   .text.startup.main:00000000000001fe .LBE97
     /tmp/ccb6PqEo.s:6292   .debug_loclists:00000000000000f9 .LLST52
     /tmp/ccb6PqEo.s:6301   .debug_loclists:0000000000000108 .LLST53
     /tmp/ccb6PqEo.s:6315   .debug_loclists:0000000000000122 .LLST54
     /tmp/ccb6PqEo.s:1469   .text.startup.main:0000000000000216 .LBB99
     /tmp/ccb6PqEo.s:1502   .text.startup.main:0000000000000230 .LBE99
     /tmp/ccb6PqEo.s:6322   .debug_loclists:000000000000012e .LLST55
     /tmp/ccb6PqEo.s:6331   .debug_loclists:000000000000013c .LLST56
     /tmp/ccb6PqEo.s:6345   .debug_loclists:0000000000000156 .LLST57
     /tmp/ccb6PqEo.s:1614   .text.startup.main:00000000000002f4 .LBB101
     /tmp/ccb6PqEo.s:1630   .text.startup.main:0000000000000306 .LBE101
     /tmp/ccb6PqEo.s:1650   .text.startup.main:0000000000000328 .LBB103
     /tmp/ccb6PqEo.s:1673   .text.startup.main:0000000000000334 .LBE103
     /tmp/ccb6PqEo.s:6352   .debug_loclists:0000000000000162 .LLST58
     /tmp/ccb6PqEo.s:1679   .text.startup.main:000000000000033c .LBB105
     /tmp/ccb6PqEo.s:1714   .text.startup.main:000000000000035a .LBE105
     /tmp/ccb6PqEo.s:6369   .debug_loclists:000000000000017f .LLST59
     /tmp/ccb6PqEo.s:6378   .debug_loclists:000000000000018e .LLST60
     /tmp/ccb6PqEo.s:6392   .debug_loclists:00000000000001a9 .LLST61
     /tmp/ccb6PqEo.s:1720   .text.startup.main:0000000000000362 .LBB107
     /tmp/ccb6PqEo.s:1743   .text.startup.main:000000000000036e .LBE107
     /tmp/ccb6PqEo.s:6399   .debug_loclists:00000000000001b5 .LLST62
     /tmp/ccb6PqEo.s:1171   .text.startup.main:0000000000000096 .LVL86
     /tmp/ccb6PqEo.s:1189   .text.startup.main:00000000000000b0 .LVL87
     /tmp/ccb6PqEo.s:1193   .text.startup.main:00000000000000b8 .LVL88
     /tmp/ccb6PqEo.s:1207   .text.startup.main:00000000000000d6 .LVL89
     /tmp/ccb6PqEo.s:1217   .text.startup.main:00000000000000f0 .LVL90
     /tmp/ccb6PqEo.s:1221   .text.startup.main:00000000000000f8 .LVL91
     /tmp/ccb6PqEo.s:1268   .text.startup.main:0000000000000126 .LVL98
     /tmp/ccb6PqEo.s:1307   .text.startup.main:0000000000000148 .LVL105
     /tmp/ccb6PqEo.s:1311   .text.startup.main:0000000000000150 .LVL106
     /tmp/ccb6PqEo.s:1319   .text.startup.main:0000000000000164 .LVL107
GAS LISTING /tmp/ccb6PqEo.s 			page 78


     /tmp/ccb6PqEo.s:1388   .text.startup.main:000000000000019c .LVL112
     /tmp/ccb6PqEo.s:1396   .text.startup.main:00000000000001b0 .LVL113
     /tmp/ccb6PqEo.s:1405   .text.startup.main:00000000000001ca .LVL114
     /tmp/ccb6PqEo.s:1415   .text.startup.main:00000000000001e4 .LVL115
     /tmp/ccb6PqEo.s:1454   .text.startup.main:0000000000000206 .LVL122
     /tmp/ccb6PqEo.s:1467   .text.startup.main:0000000000000216 .LVL123
     /tmp/ccb6PqEo.s:1506   .text.startup.main:0000000000000238 .LVL130
     /tmp/ccb6PqEo.s:1510   .text.startup.main:0000000000000240 .LVL131
     /tmp/ccb6PqEo.s:1526   .text.startup.main:000000000000026a .LVL132
     /tmp/ccb6PqEo.s:1536   .text.startup.main:0000000000000284 .LVL133
     /tmp/ccb6PqEo.s:1591   .text.startup.main:00000000000002c4 .LVL141
     /tmp/ccb6PqEo.s:1598   .text.startup.main:00000000000002d8 .LVL142
     /tmp/ccb6PqEo.s:1603   .text.startup.main:00000000000002e4 .LVL143
     /tmp/ccb6PqEo.s:1645   .text.startup.main:0000000000000326 .LVL144
     /tmp/ccb6PqEo.s:1677   .text.startup.main:000000000000033c .LVL148
     /tmp/ccb6PqEo.s:1718   .text.startup.main:0000000000000362 .LVL155
     /tmp/ccb6PqEo.s:1752   .text.startup.main:0000000000000388 .LVL159
     /tmp/ccb6PqEo.s:1762   .text.startup.main:00000000000003a2 .LVL160
     /tmp/ccb6PqEo.s:1020   .text.startup.main:0000000000000000 .LBB57
     /tmp/ccb6PqEo.s:7209   .debug_rnglists:0000000000000028 .LLRL30
     /tmp/ccb6PqEo.s:6416   .debug_loclists:00000000000001d1 .LLST31
     /tmp/ccb6PqEo.s:1044   .text.startup.main:0000000000000012 .LBB61
     /tmp/ccb6PqEo.s:7217   .debug_rnglists:000000000000003b .LLRL32
     /tmp/ccb6PqEo.s:1050   .text.startup.main:0000000000000012 .LBB64
     /tmp/ccb6PqEo.s:7225   .debug_rnglists:000000000000004e .LLRL33
     /tmp/ccb6PqEo.s:6424   .debug_loclists:00000000000001de .LLST34
     /tmp/ccb6PqEo.s:1070   .text.startup.main:0000000000000020 .LBB69
     /tmp/ccb6PqEo.s:1078   .text.startup.main:0000000000000026 .LBE69
     /tmp/ccb6PqEo.s:6432   .debug_loclists:00000000000001eb .LLST35
     /tmp/ccb6PqEo.s:1080   .text.startup.main:0000000000000026 .LBB71
     /tmp/ccb6PqEo.s:1103   .text.startup.main:0000000000000032 .LBE71
     /tmp/ccb6PqEo.s:6440   .debug_loclists:00000000000001f8 .LLST36
     /tmp/ccb6PqEo.s:1113   .text.startup.main:000000000000004a .LBB73
     /tmp/ccb6PqEo.s:7233   .debug_rnglists:0000000000000061 .LLRL37
     /tmp/ccb6PqEo.s:1111   .text.startup.main:000000000000004a .LVL85
     /tmp/ccb6PqEo.s:7817   .debug_str:0000000000000b06 .LASF219
     /tmp/ccb6PqEo.s:713    .text.SystemInit:0000000000000000 .LFB22
     /tmp/ccb6PqEo.s:994    .text.SystemInit:0000000000000184 .LFE22
     /tmp/ccb6PqEo.s:920    .text.SystemInit:0000000000000134 .LBB55
     /tmp/ccb6PqEo.s:955    .text.SystemInit:0000000000000150 .LBE55
     /tmp/ccb6PqEo.s:6457   .debug_loclists:0000000000000214 .LLST26
     /tmp/ccb6PqEo.s:6466   .debug_loclists:0000000000000225 .LLST27
     /tmp/ccb6PqEo.s:6480   .debug_loclists:0000000000000240 .LLST28
     /tmp/ccb6PqEo.s:782    .text.SystemInit:0000000000000058 .LVL70
     /tmp/ccb6PqEo.s:7487   .debug_str:0000000000000381 .LASF222
     /tmp/ccb6PqEo.s:7423   .debug_str:0000000000000222 .LASF224
     /tmp/ccb6PqEo.s:478    .text._Z10flash_saveh:0000000000000000 .LFB21
     /tmp/ccb6PqEo.s:706    .text._Z10flash_saveh:00000000000000e8 .LFE21
     /tmp/ccb6PqEo.s:6487   .debug_loclists:000000000000024c .LLST23
     /tmp/ccb6PqEo.s:483    .text._Z10flash_saveh:0000000000000000 .LBB51
     /tmp/ccb6PqEo.s:507    .text._Z10flash_saveh:000000000000000c .LBE51
     /tmp/ccb6PqEo.s:6515   .debug_loclists:000000000000027f .LLST24
     /tmp/ccb6PqEo.s:669    .text._Z10flash_saveh:00000000000000d4 .LBB53
     /tmp/ccb6PqEo.s:692    .text._Z10flash_saveh:00000000000000e0 .LBE53
     /tmp/ccb6PqEo.s:6532   .debug_loclists:000000000000029c .LLST25
     /tmp/ccb6PqEo.s:7485   .debug_str:0000000000000377 .LASF220
     /tmp/ccb6PqEo.s:7639   .debug_str:00000000000006c7 .LASF221
GAS LISTING /tmp/ccb6PqEo.s 			page 79


     /tmp/ccb6PqEo.s:7689   .debug_str:00000000000007dc .LASF255
     /tmp/ccb6PqEo.s:7383   .debug_str:0000000000000168 .LASF256
     /tmp/ccb6PqEo.s:7775   .debug_str:0000000000000988 .LASF223
     /tmp/ccb6PqEo.s:7525   .debug_str:0000000000000469 .LASF225
     /tmp/ccb6PqEo.s:370    .text._Z6str_eqPKhS0_h:0000000000000000 .LFB18
     /tmp/ccb6PqEo.s:410    .text._Z6str_eqPKhS0_h:0000000000000022 .LFE18
     /tmp/ccb6PqEo.s:7497   .debug_str:00000000000003c1 .LASF226
     /tmp/ccb6PqEo.s:6549   .debug_loclists:00000000000002b8 .LLST16
     /tmp/ccb6PqEo.s:7499   .debug_str:00000000000003c6 .LASF227
     /tmp/ccb6PqEo.s:6564   .debug_loclists:00000000000002d2 .LLST17
     /tmp/ccb6PqEo.s:6579   .debug_loclists:00000000000002ec .LLST18
     /tmp/ccb6PqEo.s:375    .text._Z6str_eqPKhS0_h:0000000000000000 .LBB50
     /tmp/ccb6PqEo.s:401    .text._Z6str_eqPKhS0_h:000000000000001c .LBE50
     /tmp/ccb6PqEo.s:6594   .debug_loclists:0000000000000306 .LLST19
     /tmp/ccb6PqEo.s:7737   .debug_str:00000000000008e2 .LASF228
     /tmp/ccb6PqEo.s:7503   .debug_str:00000000000003de .LASF229
     /tmp/ccb6PqEo.s:242    .text._Z10ASCIIToIntPKhh:0000000000000000 .LFB17
     /tmp/ccb6PqEo.s:363    .text._Z10ASCIIToIntPKhh:0000000000000074 .LFE17
     /tmp/ccb6PqEo.s:6615   .debug_loclists:0000000000000326 .LLST9
     /tmp/ccb6PqEo.s:6648   .debug_loclists:0000000000000364 .LLST10
     /tmp/ccb6PqEo.s:6668   .debug_loclists:0000000000000389 .LLST11
     /tmp/ccb6PqEo.s:7603   .debug_str:0000000000000620 .LASF230
     /tmp/ccb6PqEo.s:6692   .debug_loclists:00000000000003b8 .LLST12
     /tmp/ccb6PqEo.s:6716   .debug_loclists:00000000000003e7 .LLST13
     /tmp/ccb6PqEo.s:7198   .debug_rnglists:000000000000000c .LLRL14
     /tmp/ccb6PqEo.s:6728   .debug_loclists:00000000000003fe .LLST15
     /tmp/ccb6PqEo.s:336    .text._Z10ASCIIToIntPKhh:0000000000000066 .LVL43
     /tmp/ccb6PqEo.s:7371   .debug_str:0000000000000129 .LASF231
     /tmp/ccb6PqEo.s:7449   .debug_str:00000000000002be .LASF232
     /tmp/ccb6PqEo.s:91     .text._Z10intToASCIIiPhh:0000000000000000 .LFB16
     /tmp/ccb6PqEo.s:234    .text._Z10intToASCIIiPhh:00000000000000a4 .LFE16
     /tmp/ccb6PqEo.s:6799   .debug_loclists:000000000000046e .LLST4
     /tmp/ccb6PqEo.s:6863   .debug_loclists:00000000000004f5 .LLST5
     /tmp/ccb6PqEo.s:6893   .debug_loclists:0000000000000530 .LLST6
     /tmp/ccb6PqEo.s:6913   .debug_loclists:0000000000000555 .LLST7
     /tmp/ccb6PqEo.s:6959   .debug_loclists:00000000000005b2 .LLST8
     /tmp/ccb6PqEo.s:141    .text._Z10intToASCIIiPhh:000000000000003c .LVL14
     /tmp/ccb6PqEo.s:157    .text._Z10intToASCIIiPhh:0000000000000056 .LVL17
     /tmp/ccb6PqEo.s:7435   .debug_str:0000000000000268 .LASF233
     /tmp/ccb6PqEo.s:7471   .debug_str:0000000000000322 .LASF234
     /tmp/ccb6PqEo.s:14     .text._Z10hexToASCIIPKhhPh:0000000000000000 .LFB15
     /tmp/ccb6PqEo.s:80     .text._Z10hexToASCIIPKhhPh:0000000000000040 .LFE15
     /tmp/ccb6PqEo.s:7042   .debug_loclists:000000000000063a .LLST0
     /tmp/ccb6PqEo.s:7607   .debug_str:000000000000062d .LASF235
     /tmp/ccb6PqEo.s:7057   .debug_loclists:0000000000000654 .LLST1
     /tmp/ccb6PqEo.s:7079   .debug_loclists:000000000000067b .LLST2
     /tmp/ccb6PqEo.s:21     .text._Z10hexToASCIIPKhhPh:0000000000000000 .LBB46
     /tmp/ccb6PqEo.s:76     .text._Z10hexToASCIIPKhhPh:000000000000003e .LBE46
     /tmp/ccb6PqEo.s:7091   .debug_loclists:0000000000000692 .LLST3
     /tmp/ccb6PqEo.s:7753   .debug_str:0000000000000925 .LASF257
     /tmp/ccb6PqEo.s:7357   .debug_str:00000000000000d9 .LASF236
     /tmp/ccb6PqEo.s:7655   .debug_str:000000000000071d .LASF237
     /tmp/ccb6PqEo.s:7439   .debug_str:000000000000027d .LASF238
     /tmp/ccb6PqEo.s:7701   .debug_str:000000000000081e .LASF239
     /tmp/ccb6PqEo.s:417    .text._Z6delayTm:0000000000000000 .LFB19
     /tmp/ccb6PqEo.s:454    .text._Z6delayTm:000000000000001a .LFE19
     /tmp/ccb6PqEo.s:7122   .debug_loclists:00000000000006c2 .LLST20
GAS LISTING /tmp/ccb6PqEo.s 			page 80


     /tmp/ccb6PqEo.s:7137   .debug_loclists:00000000000006dc .LLST21
     /tmp/ccb6PqEo.s:7144   .debug_loclists:00000000000006e8 .LLST22
     /tmp/ccb6PqEo.s:461    .text._Z9flash_getv:0000000000000000 .LFB20
     /tmp/ccb6PqEo.s:471    .text._Z9flash_getv:000000000000000a .LFE20
     /tmp/ccb6PqEo.s:7827   .debug_str:0000000000000b3c .LASF240
     /tmp/ccb6PqEo.s:7569   .debug_str:0000000000000556 .LASF241
     /tmp/ccb6PqEo.s:7593   .debug_str:00000000000005f4 .LASF242
     /tmp/ccb6PqEo.s:1857   .text.EXTI7_0_IRQHandler:0000000000000020 .LVL164
     /tmp/ccb6PqEo.s:1869   .text.EXTI7_0_IRQHandler:0000000000000032 .LVL165
     /tmp/ccb6PqEo.s:1888   .text.EXTI7_0_IRQHandler:000000000000005c .LVL167
     /tmp/ccb6PqEo.s:1894   .text.EXTI7_0_IRQHandler:0000000000000064 .LVL168
     /tmp/ccb6PqEo.s:1351   .text.startup.main:0000000000000184 .LVL108
     /tmp/ccb6PqEo.s:1546   .text.startup.main:000000000000028c .LVL134
     /tmp/ccb6PqEo.s:1557   .text.startup.main:0000000000000298 .LVL136
     /tmp/ccb6PqEo.s:1584   .text.startup.main:00000000000002b8 .LVL140
     /tmp/ccb6PqEo.s:1567   .text.startup.main:00000000000002a4 .LVL137
     /tmp/ccb6PqEo.s:1570   .text.startup.main:00000000000002a8 .LVL138
     /tmp/ccb6PqEo.s:1254   .text.startup.main:0000000000000112 .LVL97
     /tmp/ccb6PqEo.s:1230   .text.startup.main:00000000000000fe .LVL92
     /tmp/ccb6PqEo.s:1241   .text.startup.main:0000000000000104 .LVL94
     /tmp/ccb6PqEo.s:1251   .text.startup.main:000000000000010e .LVL96
     /tmp/ccb6PqEo.s:1299   .text.startup.main:0000000000000140 .LVL104
     /tmp/ccb6PqEo.s:1277   .text.startup.main:000000000000012c .LVL99
     /tmp/ccb6PqEo.s:1286   .text.startup.main:0000000000000132 .LVL101
     /tmp/ccb6PqEo.s:1296   .text.startup.main:000000000000013c .LVL103
     /tmp/ccb6PqEo.s:1379   .text.startup.main:0000000000000192 .LVL111
     /tmp/ccb6PqEo.s:1376   .text.startup.main:000000000000018e .LVL110
     /tmp/ccb6PqEo.s:1446   .text.startup.main:00000000000001fe .LVL121
     /tmp/ccb6PqEo.s:1424   .text.startup.main:00000000000001ea .LVL116
     /tmp/ccb6PqEo.s:1433   .text.startup.main:00000000000001f0 .LVL118
     /tmp/ccb6PqEo.s:1443   .text.startup.main:00000000000001fa .LVL120
     /tmp/ccb6PqEo.s:1498   .text.startup.main:0000000000000230 .LVL129
     /tmp/ccb6PqEo.s:1476   .text.startup.main:000000000000021c .LVL124
     /tmp/ccb6PqEo.s:1485   .text.startup.main:0000000000000222 .LVL126
     /tmp/ccb6PqEo.s:1495   .text.startup.main:000000000000022c .LVL128
     /tmp/ccb6PqEo.s:1658   .text.startup.main:000000000000032c .LVL145
     /tmp/ccb6PqEo.s:1664   .text.startup.main:0000000000000330 .LVL146
     /tmp/ccb6PqEo.s:1670   .text.startup.main:0000000000000334 .LVL147
     /tmp/ccb6PqEo.s:1710   .text.startup.main:000000000000035a .LVL154
     /tmp/ccb6PqEo.s:1686   .text.startup.main:0000000000000342 .LVL149
     /tmp/ccb6PqEo.s:1697   .text.startup.main:000000000000034c .LVL151
     /tmp/ccb6PqEo.s:1707   .text.startup.main:0000000000000356 .LVL153
     /tmp/ccb6PqEo.s:1728   .text.startup.main:0000000000000366 .LVL156
     /tmp/ccb6PqEo.s:1734   .text.startup.main:000000000000036a .LVL157
     /tmp/ccb6PqEo.s:1740   .text.startup.main:000000000000036e .LVL158
     /tmp/ccb6PqEo.s:1019   .text.startup.main:0000000000000000 .LVL78
     /tmp/ccb6PqEo.s:1040   .text.startup.main:0000000000000012 .LVL79
     /tmp/ccb6PqEo.s:1066   .text.startup.main:0000000000000020 .LVL80
     /tmp/ccb6PqEo.s:1076   .text.startup.main:0000000000000026 .LVL81
     /tmp/ccb6PqEo.s:1088   .text.startup.main:000000000000002a .LVL82
     /tmp/ccb6PqEo.s:1094   .text.startup.main:000000000000002e .LVL83
     /tmp/ccb6PqEo.s:1100   .text.startup.main:0000000000000032 .LVL84
     /tmp/ccb6PqEo.s:919    .text.SystemInit:0000000000000134 .LVL71
     /tmp/ccb6PqEo.s:951    .text.SystemInit:0000000000000150 .LVL77
     /tmp/ccb6PqEo.s:926    .text.SystemInit:0000000000000136 .LVL72
     /tmp/ccb6PqEo.s:938    .text.SystemInit:0000000000000142 .LVL74
     /tmp/ccb6PqEo.s:948    .text.SystemInit:000000000000014c .LVL76
GAS LISTING /tmp/ccb6PqEo.s 			page 81


     /tmp/ccb6PqEo.s:481    .text._Z10flash_saveh:0000000000000000 .LVL60
     /tmp/ccb6PqEo.s:696    .text._Z10flash_saveh:00000000000000e2 .LVL67
     /tmp/ccb6PqEo.s:699    .text._Z10flash_saveh:00000000000000e4 .LVL68
     /tmp/ccb6PqEo.s:703    .text._Z10flash_saveh:00000000000000e6 .LVL69
     /tmp/ccb6PqEo.s:492    .text._Z10flash_saveh:0000000000000004 .LVL61
     /tmp/ccb6PqEo.s:498    .text._Z10flash_saveh:0000000000000008 .LVL62
     /tmp/ccb6PqEo.s:504    .text._Z10flash_saveh:000000000000000c .LVL63
     /tmp/ccb6PqEo.s:677    .text._Z10flash_saveh:00000000000000d8 .LVL64
     /tmp/ccb6PqEo.s:683    .text._Z10flash_saveh:00000000000000dc .LVL65
     /tmp/ccb6PqEo.s:689    .text._Z10flash_saveh:00000000000000e0 .LVL66
     /tmp/ccb6PqEo.s:373    .text._Z6str_eqPKhS0_h:0000000000000000 .LVL47
     /tmp/ccb6PqEo.s:381    .text._Z6str_eqPKhS0_h:0000000000000006 .LVL49
     /tmp/ccb6PqEo.s:379    .text._Z6str_eqPKhS0_h:0000000000000004 .LVL48
     /tmp/ccb6PqEo.s:385    .text._Z6str_eqPKhS0_h:000000000000000a .LVL50
     /tmp/ccb6PqEo.s:395    .text._Z6str_eqPKhS0_h:0000000000000014 .LVL51
     /tmp/ccb6PqEo.s:245    .text._Z10ASCIIToIntPKhh:0000000000000000 .LVL31
     /tmp/ccb6PqEo.s:261    .text._Z10ASCIIToIntPKhh:000000000000000e .LVL32
     /tmp/ccb6PqEo.s:273    .text._Z10ASCIIToIntPKhh:000000000000001c .LVL34
     /tmp/ccb6PqEo.s:351    .text._Z10ASCIIToIntPKhh:0000000000000070 .LVL45
     /tmp/ccb6PqEo.s:357    .text._Z10ASCIIToIntPKhh:0000000000000072 .LVL46
     /tmp/ccb6PqEo.s:264    .text._Z10ASCIIToIntPKhh:0000000000000010 .LVL33
     /tmp/ccb6PqEo.s:344    .text._Z10ASCIIToIntPKhh:000000000000006c .LVL44
     /tmp/ccb6PqEo.s:281    .text._Z10ASCIIToIntPKhh:0000000000000026 .LVL35
     /tmp/ccb6PqEo.s:297    .text._Z10ASCIIToIntPKhh:0000000000000038 .LVL38
     /tmp/ccb6PqEo.s:323    .text._Z10ASCIIToIntPKhh:0000000000000056 .LVL40
     /tmp/ccb6PqEo.s:331    .text._Z10ASCIIToIntPKhh:000000000000005e .LVL42
     /tmp/ccb6PqEo.s:290    .text._Z10ASCIIToIntPKhh:0000000000000030 .LVL36
     /tmp/ccb6PqEo.s:293    .text._Z10ASCIIToIntPKhh:0000000000000034 .LVL37
     /tmp/ccb6PqEo.s:320    .text._Z10ASCIIToIntPKhh:0000000000000054 .LVL39
     /tmp/ccb6PqEo.s:327    .text._Z10ASCIIToIntPKhh:000000000000005a .LVL41
     /tmp/ccb6PqEo.s:94     .text._Z10intToASCIIiPhh:0000000000000000 .LVL9
     /tmp/ccb6PqEo.s:121    .text._Z10intToASCIIiPhh:0000000000000020 .LVL11
     /tmp/ccb6PqEo.s:137    .text._Z10intToASCIIiPhh:0000000000000032 .LVL13
     /tmp/ccb6PqEo.s:146    .text._Z10intToASCIIiPhh:0000000000000046 .LVL15
     /tmp/ccb6PqEo.s:162    .text._Z10intToASCIIiPhh:000000000000005a .LVL18
     /tmp/ccb6PqEo.s:167    .text._Z10intToASCIIiPhh:0000000000000062 .LVL19
     /tmp/ccb6PqEo.s:171    .text._Z10intToASCIIiPhh:0000000000000064 .LVL20
     /tmp/ccb6PqEo.s:186    .text._Z10intToASCIIiPhh:0000000000000078 .LVL21
     /tmp/ccb6PqEo.s:191    .text._Z10intToASCIIiPhh:0000000000000080 .LVL22
     /tmp/ccb6PqEo.s:206    .text._Z10intToASCIIiPhh:000000000000008a .LVL25
     /tmp/ccb6PqEo.s:229    .text._Z10intToASCIIiPhh:00000000000000a0 .LVL30
     /tmp/ccb6PqEo.s:129    .text._Z10intToASCIIiPhh:000000000000002c .LVL12
     /tmp/ccb6PqEo.s:204    .text._Z10intToASCIIiPhh:0000000000000088 .LVL24
     /tmp/ccb6PqEo.s:215    .text._Z10intToASCIIiPhh:0000000000000092 .LVL27
     /tmp/ccb6PqEo.s:107    .text._Z10intToASCIIiPhh:000000000000000c .LVL10
     /tmp/ccb6PqEo.s:152    .text._Z10intToASCIIiPhh:000000000000004c .LVL16
     /tmp/ccb6PqEo.s:201    .text._Z10intToASCIIiPhh:0000000000000086 .LVL23
     /tmp/ccb6PqEo.s:213    .text._Z10intToASCIIiPhh:0000000000000090 .LVL26
     /tmp/ccb6PqEo.s:225    .text._Z10intToASCIIiPhh:000000000000009c .LVL29
     /tmp/ccb6PqEo.s:218    .text._Z10intToASCIIiPhh:0000000000000096 .LVL28
     /tmp/ccb6PqEo.s:18     .text._Z10hexToASCIIPKhhPh:0000000000000000 .LVL0
     /tmp/ccb6PqEo.s:30     .text._Z10hexToASCIIPKhhPh:000000000000000a .LVL2
     /tmp/ccb6PqEo.s:24     .text._Z10hexToASCIIPKhhPh:0000000000000002 .LVL1
     /tmp/ccb6PqEo.s:38     .text._Z10hexToASCIIPKhhPh:0000000000000010 .LVL3
     /tmp/ccb6PqEo.s:52     .text._Z10hexToASCIIPKhhPh:0000000000000024 .LVL4
     /tmp/ccb6PqEo.s:58     .text._Z10hexToASCIIPKhhPh:0000000000000028 .LVL6
     /tmp/ccb6PqEo.s:74     .text._Z10hexToASCIIPKhhPh:000000000000003e .LVL8
GAS LISTING /tmp/ccb6PqEo.s 			page 82


     /tmp/ccb6PqEo.s:55     .text._Z10hexToASCIIPKhhPh:0000000000000026 .LVL5
     /tmp/ccb6PqEo.s:70     .text._Z10hexToASCIIPKhhPh:0000000000000038 .LVL7
     /tmp/ccb6PqEo.s:421    .text._Z6delayTm:0000000000000000 .LVL53
     /tmp/ccb6PqEo.s:436    .text._Z6delayTm:000000000000000a .LVL56
     /tmp/ccb6PqEo.s:427    .text._Z6delayTm:0000000000000006 .LVL54
     /tmp/ccb6PqEo.s:441    .text._Z6delayTm:0000000000000012 .LVL57
     /tmp/ccb6PqEo.s:446    .text._Z6delayTm:0000000000000014 .LVL58
     /tmp/ccb6PqEo.s:449    .text._Z6delayTm:0000000000000018 .LVL59
     /tmp/ccb6PqEo.s:2082   .debug_info:0000000000000000 .Ldebug_info0
     /tmp/ccb6PqEo.s:248    .text._Z10ASCIIToIntPKhh:0000000000000000 .LBB47
     /tmp/ccb6PqEo.s:251    .text._Z10ASCIIToIntPKhh:0000000000000002 .LBE47
     /tmp/ccb6PqEo.s:265    .text._Z10ASCIIToIntPKhh:0000000000000010 .LBB48
     /tmp/ccb6PqEo.s:333    .text._Z10ASCIIToIntPKhh:000000000000005e .LBE48
     /tmp/ccb6PqEo.s:347    .text._Z10ASCIIToIntPKhh:000000000000006c .LBB49
     /tmp/ccb6PqEo.s:358    .text._Z10ASCIIToIntPKhh:0000000000000072 .LBE49
     /tmp/ccb6PqEo.s:1024   .text.startup.main:0000000000000000 .LBE57
     /tmp/ccb6PqEo.s:1034   .text.startup.main:0000000000000008 .LBB60
     /tmp/ccb6PqEo.s:1042   .text.startup.main:0000000000000012 .LBE60
     /tmp/ccb6PqEo.s:1048   .text.startup.main:0000000000000012 .LBE61
     /tmp/ccb6PqEo.s:1055   .text.startup.main:0000000000000012 .LBB67
     /tmp/ccb6PqEo.s:1061   .text.startup.main:0000000000000018 .LBE67
     /tmp/ccb6PqEo.s:1054   .text.startup.main:0000000000000012 .LBE64
     /tmp/ccb6PqEo.s:1062   .text.startup.main:0000000000000018 .LBB68
     /tmp/ccb6PqEo.s:1068   .text.startup.main:0000000000000020 .LBE68
     /tmp/ccb6PqEo.s:1122   .text.startup.main:0000000000000056 .LBE73
     /tmp/ccb6PqEo.s:1125   .text.startup.main:000000000000005a .LBB76
     /tmp/ccb6PqEo.s:1130   .text.startup.main:000000000000005e .LBE76
     /tmp/ccb6PqEo.s:1185   .text.startup.main:00000000000000a8 .LBE79
     /tmp/ccb6PqEo.s:1223   .text.startup.main:00000000000000f8 .LBB82
     /tmp/ccb6PqEo.s:1257   .text.startup.main:0000000000000112 .LBE82
     /tmp/ccb6PqEo.s:1328   .text.startup.main:0000000000000170 .LBE85
     /tmp/ccb6PqEo.s:1335   .text.startup.main:0000000000000174 .LBB93
     /tmp/ccb6PqEo.s:1340   .text.startup.main:0000000000000178 .LBE93
     /tmp/ccb6PqEo.s:1355   .text.startup.main:0000000000000184 .LBB95
     /tmp/ccb6PqEo.s:1359   .text.startup.main:0000000000000184 .LBE95
     /tmp/ccb6PqEo.s:1334   .text.startup.main:0000000000000174 .LBE89
     /tmp/ccb6PqEo.s:1341   .text.startup.main:0000000000000178 .LBB94
     /tmp/ccb6PqEo.s:1353   .text.startup.main:0000000000000184 .LBE94
     /tmp/ccb6PqEo.s:1361   .text.startup.main:0000000000000184 .LBB96
     /tmp/ccb6PqEo.s:1383   .text.startup.main:0000000000000192 .LBE96

UNDEFINED SYMBOLS
__umodsi3
__modsi3
__udivsi3
__divsi3
__mulsi3
_Z7led_offv
_ZN4uart5printEPKc
_Z6led_onv
_Z8sens_getv
_ZN4uart4sendEPhtPFvvEh
_ZN4uart4syncEv
_Z7pump_onv
_Z8pump_offv
_ZN4uart16interruptHandlerEv
_Z9btn_statev
GAS LISTING /tmp/ccb6PqEo.s 			page 83


_ZN4uartC1EP13USART_TypeDefii9u_stopbit9u_wordlen
