GAS LISTING /tmp/ccAZS1OZ.s 			page 1


   1              		.file	"main.cpp"
   2              		.option nopic
   3              		.attribute arch, "rv32e1p9_c2p0_zicsr"
   4              		.attribute unaligned_access, 0
   5              		.attribute stack_align, 4
   6              		.text
   7              	.Ltext0:
   8              		.file 0 "/home/ignat/projects/AutoWatering" "src/main.cpp"
   9              		.section	.text._Z10hexToASCIIPKhhPh,"ax",@progbits
  10              		.align	1
  11              		.globl	_Z10hexToASCIIPKhhPh
  13              	_Z10hexToASCIIPKhhPh:
  14              	.LFB15:
  15              		.file 1 "src/ASCII_fun.h"
   1:src/ASCII_fun.h **** #ifndef ASCII_FUN_H_
   2:src/ASCII_fun.h **** #define ASCII_FUN_H_
   3:src/ASCII_fun.h **** 
   4:src/ASCII_fun.h **** #include <stdint.h>
   5:src/ASCII_fun.h **** 
   6:src/ASCII_fun.h **** 
   7:src/ASCII_fun.h **** void hexToASCII(const uint8_t *data, uint8_t size, uint8_t *str) {
  16              		.loc 1 7 66
  17              		.cfi_startproc
  18              	.LVL0:
   8:src/ASCII_fun.h ****     uint8_t chr;
  19              		.loc 1 8 5
   9:src/ASCII_fun.h ****     for(int i = 0; i < size; i ++) {
  20              		.loc 1 9 5
  21              	.LBB32:
  22              		.loc 1 9 22
  23 0000 0506     		addi	a2,a2,1
  24              	.LVL1:
  25 0002 3303B500 		add	t1,a0,a1
  10:src/ASCII_fun.h ****         chr = data[i] >> 4;
  11:src/ASCII_fun.h ****         if(chr < 10)
  26              		.loc 1 11 9 is_stmt 0
  27 0006 A546     		li	a3,9
   9:src/ASCII_fun.h ****     for(int i = 0; i < size; i ++) {
  28              		.loc 1 9 22
  29 0008 9DC9     		beq	a1,zero,.L1
  30              	.LVL2:
  31              	.L7:
  10:src/ASCII_fun.h ****         chr = data[i] >> 4;
  32              		.loc 1 10 9 is_stmt 1
  12:src/ASCII_fun.h ****             str[i * 2] = '0' + chr;  // 0 - 9
  33              		.loc 1 12 13
  13:src/ASCII_fun.h ****         else
  14:src/ASCII_fun.h ****             str[i * 2] = 'A' + chr - 10;  // A - F
  15:src/ASCII_fun.h ****         chr = data[i] & 0x0F;
  16:src/ASCII_fun.h ****         if(chr < 10)
  17:src/ASCII_fun.h ****             str[i * 2 + 1] = '0' + chr;
  34              		.loc 1 17 13
  10:src/ASCII_fun.h ****         if(chr < 10)
  35              		.loc 1 10 13 is_stmt 0
  36 000a 83470500 		lbu	a5,0(a0)
  37 000e 9183     		srli	a5,a5,4
  38              	.LVL3:
GAS LISTING /tmp/ccAZS1OZ.s 			page 2


  11:src/ASCII_fun.h ****             str[i * 2] = '0' + chr;  // 0 - 9
  39              		.loc 1 11 9 is_stmt 1
  14:src/ASCII_fun.h ****         chr = data[i] & 0x0F;
  40              		.loc 1 14 36 is_stmt 0
  41 0010 13877703 		addi	a4,a5,55
  11:src/ASCII_fun.h ****             str[i * 2] = '0' + chr;  // 0 - 9
  42              		.loc 1 11 9
  43 0014 63E4F600 		bgtu	a5,a3,.L4
  12:src/ASCII_fun.h ****         else
  44              		.loc 1 12 30
  45 0018 13870703 		addi	a4,a5,48
  46              	.L4:
  12:src/ASCII_fun.h ****         else
  47              		.loc 1 12 24
  48 001c A30FE6FE 		sb	a4,-1(a2)
  15:src/ASCII_fun.h ****         if(chr < 10)
  49              		.loc 1 15 9 is_stmt 1
  15:src/ASCII_fun.h ****         if(chr < 10)
  50              		.loc 1 15 13 is_stmt 0
  51 0020 83470500 		lbu	a5,0(a0)
  52              	.LVL4:
   9:src/ASCII_fun.h ****         chr = data[i] >> 4;
  53              		.loc 1 9 22
  54 0024 0505     		addi	a0,a0,1
  55              	.LVL5:
  15:src/ASCII_fun.h ****         if(chr < 10)
  56              		.loc 1 15 13
  57 0026 BD8B     		andi	a5,a5,15
  58              	.LVL6:
  16:src/ASCII_fun.h ****             str[i * 2 + 1] = '0' + chr;
  59              		.loc 1 16 9 is_stmt 1
  18:src/ASCII_fun.h ****         else
  19:src/ASCII_fun.h ****             str[i * 2 + 1] = 'A' + chr - 10;
  60              		.loc 1 19 40 is_stmt 0
  61 0028 13877703 		addi	a4,a5,55
  16:src/ASCII_fun.h ****             str[i * 2 + 1] = '0' + chr;
  62              		.loc 1 16 9
  63 002c 63E4F600 		bgtu	a5,a3,.L6
  17:src/ASCII_fun.h ****         else
  64              		.loc 1 17 34
  65 0030 13870703 		addi	a4,a5,48
  66              	.L6:
  17:src/ASCII_fun.h ****         else
  67              		.loc 1 17 28
  68 0034 2300E600 		sb	a4,0(a2)
   9:src/ASCII_fun.h ****         chr = data[i] >> 4;
  69              		.loc 1 9 5 is_stmt 1
  70              	.LVL7:
   9:src/ASCII_fun.h ****         chr = data[i] >> 4;
  71              		.loc 1 9 22
  72 0038 0906     		addi	a2,a2,2
  73 003a E31865FC 		bne	a0,t1,.L7
  74              	.LVL8:
  75              	.L1:
  76              	.LBE32:
  20:src/ASCII_fun.h ****     }
  21:src/ASCII_fun.h ****     return;
GAS LISTING /tmp/ccAZS1OZ.s 			page 3


  22:src/ASCII_fun.h **** }
  77              		.loc 1 22 1 is_stmt 0
  78 003e 8280     		ret
  79              		.cfi_endproc
  80              	.LFE15:
  82              		.globl	__umodsi3
  83              		.globl	__modsi3
  84              		.globl	__udivsi3
  85              		.globl	__divsi3
  86              		.section	.text._Z10intToASCIIiPhh,"ax",@progbits
  87              		.align	1
  88              		.globl	_Z10intToASCIIiPhh
  90              	_Z10intToASCIIiPhh:
  91              	.LFB16:
  23:src/ASCII_fun.h **** void intToASCII(int val, uint8_t *str, uint8_t len) {
  92              		.loc 1 23 53 is_stmt 1
  93              		.cfi_startproc
  94              	.LVL9:
  95 0000 3111     		addi	sp,sp,-20
  96              		.cfi_def_cfa_offset 20
  97 0002 06C8     		sw	ra,16(sp)
  98 0004 22C6     		sw	s0,12(sp)
  99 0006 26C4     		sw	s1,8(sp)
 100              		.cfi_offset 1, -4
 101              		.cfi_offset 8, -8
 102              		.cfi_offset 9, -12
 103              		.loc 1 23 53 is_stmt 0
 104 0008 2EC0     		sw	a1,0(sp)
 105 000a AA87     		mv	a5,a0
  24:src/ASCII_fun.h ****     int sign = 0;
 106              		.loc 1 24 5 is_stmt 1
 107              	.LVL10:
  25:src/ASCII_fun.h ****     int i = len - 1;
 108              		.loc 1 25 5
  26:src/ASCII_fun.h ****     if(val == 0) {
 109              		.loc 1 26 5
 110 000c 59E1     		bne	a0,zero,.L13
  27:src/ASCII_fun.h ****         str[len - 1] = '0';
 111              		.loc 1 27 9
 112              		.loc 1 27 22 is_stmt 0
 113 000e 93060003 		li	a3,48
 114 0012 3387C500 		add	a4,a1,a2
 115 0016 A30FD7FE 		sb	a3,-1(a4)
  28:src/ASCII_fun.h ****         i --;
 116              		.loc 1 28 9 is_stmt 1
  24:src/ASCII_fun.h ****     int i = len - 1;
 117              		.loc 1 24 9 is_stmt 0
 118 001a 8144     		li	s1,0
 119              		.loc 1 28 11
 120 001c 9306E6FF 		addi	a3,a2,-2
 121              	.LVL11:
  29:src/ASCII_fun.h ****     }
  30:src/ASCII_fun.h ****     if(val < 0) {
 122              		.loc 1 30 5 is_stmt 1
 123              	.L15:
  31:src/ASCII_fun.h ****         sign = 1;
  32:src/ASCII_fun.h ****         val *= -1;
GAS LISTING /tmp/ccAZS1OZ.s 			page 4


  33:src/ASCII_fun.h ****     }
  34:src/ASCII_fun.h ****     for(; i >= 0; i --) {
 124              		.loc 1 34 13 discriminator 1
 125 0020 0247     		lw	a4,0(sp)
 126 0022 3304D700 		add	s0,a4,a3
 127 0026 63DF0602 		bge	a3,zero,.L19
 128 002a 99A8     		j	.L12
 129              	.LVL12:
 130              	.L26:
  35:src/ASCII_fun.h ****         if(val + sign > 0) {
  36:src/ASCII_fun.h ****             if(val == 0) {
  37:src/ASCII_fun.h ****                 str[i] = '-';
  38:src/ASCII_fun.h ****                 sign = 0;
  39:src/ASCII_fun.h ****             }
  40:src/ASCII_fun.h ****             else {
  41:src/ASCII_fun.h ****                 str[i] = '0' + (val % 10);
 131              		.loc 1 41 17
 132              		.loc 1 41 37 is_stmt 0
 133 002c A945     		li	a1,10
 134 002e 3E85     		mv	a0,a5
  36:src/ASCII_fun.h ****                 str[i] = '-';
 135              		.loc 1 36 13
 136 0030 A9CF     		beq	a5,zero,.L22
 137              	.LVL13:
 138 0032 3EC2     		sw	a5,4(sp)
 139              		.loc 1 41 37
 140 0034 97000000 		call	__modsi3
 140      E7800000 
 141              	.LVL14:
 142 003c 9247     		lw	a5,4(sp)
 143              		.loc 1 41 30
 144 003e 93060503 		addi	a3,a0,48
 145 0042 93F6F60F 		andi	a3,a3,0xff
 146              	.LVL15:
 147              	.L17:
  42:src/ASCII_fun.h ****             }
  43:src/ASCII_fun.h ****             val /= 10;
 148              		.loc 1 43 17
 149 0046 3E85     		mv	a0,a5
  37:src/ASCII_fun.h ****                 sign = 0;
 150              		.loc 1 37 24
 151 0048 2300D400 		sb	a3,0(s0)
 152              	.LVL16:
 153              		.loc 1 43 13 is_stmt 1
 154              		.loc 1 43 17 is_stmt 0
 155 004c A945     		li	a1,10
 156 004e 97000000 		call	__divsi3
 156      E7800000 
 157              	.LVL17:
  34:src/ASCII_fun.h ****         if(val + sign > 0) {
 158              		.loc 1 34 13
 159 0056 0247     		lw	a4,0(sp)
 160              		.loc 1 43 17
 161 0058 AA87     		mv	a5,a0
 162              	.LVL18:
  34:src/ASCII_fun.h ****         if(val + sign > 0) {
 163              		.loc 1 34 5 is_stmt 1
GAS LISTING /tmp/ccAZS1OZ.s 			page 5


  34:src/ASCII_fun.h ****         if(val + sign > 0) {
 164              		.loc 1 34 13
 165 005a 9306F4FF 		addi	a3,s0,-1
 166 005e 63018702 		beq	a4,s0,.L12
 167              	.LVL19:
 168              	.L23:
 169 0062 3684     		mv	s0,a3
 170              	.L19:
 171              	.LVL20:
  35:src/ASCII_fun.h ****             if(val == 0) {
 172              		.loc 1 35 9
  36:src/ASCII_fun.h ****                 str[i] = '-';
 173              		.loc 1 36 13
  44:src/ASCII_fun.h ****         }
  45:src/ASCII_fun.h ****         else {
  46:src/ASCII_fun.h ****             str[i] = ' ';
 174              		.loc 1 46 13
  35:src/ASCII_fun.h ****             if(val == 0) {
 175              		.loc 1 35 16 is_stmt 0
 176 0064 B3869700 		add	a3,a5,s1
  35:src/ASCII_fun.h ****             if(val == 0) {
 177              		.loc 1 35 9
 178 0068 F1F2     		bne	a3,zero,.L26
  34:src/ASCII_fun.h ****         if(val + sign > 0) {
 179              		.loc 1 34 13
 180 006a 0247     		lw	a4,0(sp)
 181              		.loc 1 46 20
 182 006c 93070002 		li	a5,32
 183 0070 2300F400 		sb	a5,0(s0)
 184 0074 8144     		li	s1,0
 185 0076 8147     		li	a5,0
 186              	.LVL21:
  34:src/ASCII_fun.h ****         if(val + sign > 0) {
 187              		.loc 1 34 5 is_stmt 1
  34:src/ASCII_fun.h ****         if(val + sign > 0) {
 188              		.loc 1 34 13
 189 0078 9306F4FF 		addi	a3,s0,-1
 190 007c E31387FE 		bne	a4,s0,.L23
 191              	.LVL22:
 192              	.L12:
  47:src/ASCII_fun.h ****         }
  48:src/ASCII_fun.h ****     }
  49:src/ASCII_fun.h ****     return;
  50:src/ASCII_fun.h **** }
 193              		.loc 1 50 1 is_stmt 0
 194 0080 C240     		lw	ra,16(sp)
 195              		.cfi_remember_state
 196              		.cfi_restore 1
 197 0082 3244     		lw	s0,12(sp)
 198              		.cfi_restore 8
 199 0084 A244     		lw	s1,8(sp)
 200              		.cfi_restore 9
 201              	.LVL23:
 202 0086 5101     		addi	sp,sp,20
 203              		.cfi_def_cfa_offset 0
 204              	.LVL24:
 205 0088 8280     		jr	ra
GAS LISTING /tmp/ccAZS1OZ.s 			page 6


 206              	.LVL25:
 207              	.L22:
 208              		.cfi_restore_state
  36:src/ASCII_fun.h ****                 str[i] = '-';
 209              		.loc 1 36 13
 210 008a 9306D002 		li	a3,45
  38:src/ASCII_fun.h ****             }
 211              		.loc 1 38 22
 212 008e 8144     		li	s1,0
 213              	.LVL26:
 214 0090 5DBF     		j	.L17
 215              	.LVL27:
 216              	.L13:
 217 0092 9306F6FF 		addi	a3,a2,-1
 218              	.LVL28:
  30:src/ASCII_fun.h ****         sign = 1;
 219              		.loc 1 30 5 is_stmt 1
  24:src/ASCII_fun.h ****     int i = len - 1;
 220              		.loc 1 24 9 is_stmt 0
 221 0096 8144     		li	s1,0
  30:src/ASCII_fun.h ****         sign = 1;
 222              		.loc 1 30 5
 223 0098 E35405F8 		bge	a0,zero,.L15
  31:src/ASCII_fun.h ****         val *= -1;
 224              		.loc 1 31 9 is_stmt 1
 225              	.LVL29:
  32:src/ASCII_fun.h ****     }
 226              		.loc 1 32 9
  32:src/ASCII_fun.h ****     }
 227              		.loc 1 32 13 is_stmt 0
 228 009c B307A040 		neg	a5,a0
 229              	.LVL30:
  31:src/ASCII_fun.h ****         val *= -1;
 230              		.loc 1 31 14
 231 00a0 8544     		li	s1,1
 232 00a2 BDBF     		j	.L15
 233              		.cfi_endproc
 234              	.LFE16:
 236              		.globl	__mulsi3
 237              		.section	.text._Z10ASCIIToIntPKhh,"ax",@progbits
 238              		.align	1
 239              		.globl	_Z10ASCIIToIntPKhh
 241              	_Z10ASCIIToIntPKhh:
 242              	.LFB17:
  51:src/ASCII_fun.h **** int ASCIIToInt(const uint8_t *str, uint8_t len) {
 243              		.loc 1 51 49 is_stmt 1
 244              		.cfi_startproc
 245              	.LVL31:
  52:src/ASCII_fun.h ****     int res = 0, sign = 1, tmp;
 246              		.loc 1 52 5
  53:src/ASCII_fun.h ****     for(int i = 0; i < len; i ++) {
 247              		.loc 1 53 5
 248              	.LBB33:
 249              		.loc 1 53 22
 250 0000 A5C9     		beq	a1,zero,.L33
 251              	.LBE33:
  51:src/ASCII_fun.h **** int ASCIIToInt(const uint8_t *str, uint8_t len) {
GAS LISTING /tmp/ccAZS1OZ.s 			page 7


 252              		.loc 1 51 49 is_stmt 0
 253 0002 5111     		addi	sp,sp,-12
 254              		.cfi_def_cfa_offset 12
 255 0004 3306B500 		add	a2,a0,a1
 256 0008 2A87     		mv	a4,a0
 257 000a 06C4     		sw	ra,8(sp)
 258              		.cfi_offset 1, -4
  52:src/ASCII_fun.h ****     int res = 0, sign = 1, tmp;
 259              		.loc 1 52 18
 260 000c 0545     		li	a0,1
 261              	.LVL32:
  52:src/ASCII_fun.h ****     int res = 0, sign = 1, tmp;
 262              		.loc 1 52 9
 263 000e 8145     		li	a1,0
 264              	.LVL33:
 265              	.LBB34:
  54:src/ASCII_fun.h ****         if(str[i] == '-') {
 266              		.loc 1 54 9
 267 0010 1303D002 		li	t1,45
  55:src/ASCII_fun.h ****             sign = -1;
  56:src/ASCII_fun.h ****             tmp = 0;
  57:src/ASCII_fun.h ****         }
  58:src/ASCII_fun.h ****         else if(str[i] == ' ') {
 268              		.loc 1 58 14
 269 0014 93020002 		li	t0,32
  59:src/ASCII_fun.h ****             tmp = 0;
  60:src/ASCII_fun.h ****         }
  61:src/ASCII_fun.h ****         else if(str[i] < '0' || str[i] > '9') {
 270              		.loc 1 61 14
 271 0018 A543     		li	t2,9
 272 001a 39A8     		j	.L32
 273              	.LVL34:
 274              	.L42:
  58:src/ASCII_fun.h ****             tmp = 0;
 275              		.loc 1 58 14
 276 001c 63885604 		beq	a3,t0,.L35
 277              		.loc 1 61 14
 278 0020 63EF1302 		bgtu	ra,t2,.L41
  62:src/ASCII_fun.h ****             return res * sign;
  63:src/ASCII_fun.h ****         }
  64:src/ASCII_fun.h ****         else {
  65:src/ASCII_fun.h ****             tmp = str[i] - '0';
 279              		.loc 1 65 17
 280 0024 BE86     		mv	a3,a5
 281              	.LVL35:
 282              	.L29:
  66:src/ASCII_fun.h ****         }
  67:src/ASCII_fun.h ****         res = res * 10 + tmp;
 283              		.loc 1 67 9 is_stmt 1 discriminator 2
 284              		.loc 1 67 19 is_stmt 0 discriminator 2
 285 0026 93972500 		slli	a5,a1,2
 286 002a AE97     		add	a5,a5,a1
 287 002c 8607     		slli	a5,a5,1
  53:src/ASCII_fun.h ****         if(str[i] == '-') {
 288              		.loc 1 53 22 discriminator 2
 289 002e 0507     		addi	a4,a4,1
 290              	.LVL36:
GAS LISTING /tmp/ccAZS1OZ.s 			page 8


 291              		.loc 1 67 13 discriminator 2
 292 0030 B385D700 		add	a1,a5,a3
 293              	.LVL37:
  53:src/ASCII_fun.h ****         if(str[i] == '-') {
 294              		.loc 1 53 5 is_stmt 1 discriminator 2
  53:src/ASCII_fun.h ****         if(str[i] == '-') {
 295              		.loc 1 53 22 discriminator 2
 296 0034 6305C702 		beq	a4,a2,.L41
 297              	.LVL38:
 298              	.L32:
  54:src/ASCII_fun.h ****             sign = -1;
 299              		.loc 1 54 9
  58:src/ASCII_fun.h ****             tmp = 0;
 300              		.loc 1 58 14
  61:src/ASCII_fun.h ****             return res * sign;
 301              		.loc 1 61 14
  65:src/ASCII_fun.h ****         }
 302              		.loc 1 65 13
  54:src/ASCII_fun.h ****             sign = -1;
 303              		.loc 1 54 17 is_stmt 0
 304 0038 83460700 		lbu	a3,0(a4)
  61:src/ASCII_fun.h ****             return res * sign;
 305              		.loc 1 61 30
 306 003c 938706FD 		addi	a5,a3,-48
  61:src/ASCII_fun.h ****             return res * sign;
 307              		.loc 1 61 14
 308 0040 93F0F70F 		andi	ra,a5,0xff
  54:src/ASCII_fun.h ****             sign = -1;
 309              		.loc 1 54 9
 310 0044 E39C66FC 		bne	a3,t1,.L42
 311              		.loc 1 67 19
 312 0048 93972500 		slli	a5,a1,2
 313 004c AE97     		add	a5,a5,a1
  56:src/ASCII_fun.h ****         }
 314              		.loc 1 56 17
 315 004e 8146     		li	a3,0
 316              		.loc 1 67 19
 317 0050 8607     		slli	a5,a5,1
  53:src/ASCII_fun.h ****         if(str[i] == '-') {
 318              		.loc 1 53 22
 319 0052 0507     		addi	a4,a4,1
 320              	.LVL39:
  55:src/ASCII_fun.h ****             tmp = 0;
 321              		.loc 1 55 18
 322 0054 7D55     		li	a0,-1
 323              	.LVL40:
 324              		.loc 1 67 9 is_stmt 1
 325              		.loc 1 67 13 is_stmt 0
 326 0056 B385D700 		add	a1,a5,a3
 327              	.LVL41:
  53:src/ASCII_fun.h ****         if(str[i] == '-') {
 328              		.loc 1 53 5 is_stmt 1
  53:src/ASCII_fun.h ****         if(str[i] == '-') {
 329              		.loc 1 53 22
 330 005a E31FC7FC 		bne	a4,a2,.L32
 331              	.LVL42:
 332              	.L41:
GAS LISTING /tmp/ccAZS1OZ.s 			page 9


 333              	.LBE34:
  68:src/ASCII_fun.h ****     }
  69:src/ASCII_fun.h ****     return res * sign;
 334              		.loc 1 69 18 is_stmt 0
 335 005e 97000000 		call	__mulsi3
 335      E7800000 
 336              	.LVL43:
  70:src/ASCII_fun.h **** }
 337              		.loc 1 70 1
 338 0066 A240     		lw	ra,8(sp)
 339              		.cfi_remember_state
 340              		.cfi_restore 1
 341 0068 3101     		addi	sp,sp,12
 342              		.cfi_def_cfa_offset 0
 343 006a 8280     		jr	ra
 344              	.LVL44:
 345              	.L35:
 346              		.cfi_restore_state
 347              	.LBB35:
  59:src/ASCII_fun.h ****         }
 348              		.loc 1 59 17
 349 006c 8146     		li	a3,0
 350 006e 65BF     		j	.L29
 351              	.LVL45:
 352              	.L33:
 353              		.cfi_def_cfa_offset 0
 354              		.cfi_restore 1
  53:src/ASCII_fun.h ****         if(str[i] == '-') {
 355              		.loc 1 53 22
 356 0070 0145     		li	a0,0
 357              	.LVL46:
 358              	.LBE35:
  69:src/ASCII_fun.h **** }
 359              		.loc 1 69 5 is_stmt 1
 360              		.loc 1 70 1 is_stmt 0
 361 0072 8280     		ret
 362              		.cfi_endproc
 363              	.LFE17:
 365              		.section	.text._Z6str_eqPKhS0_h,"ax",@progbits
 366              		.align	1
 367              		.globl	_Z6str_eqPKhS0_h
 369              	_Z6str_eqPKhS0_h:
 370              	.LFB18:
  71:src/ASCII_fun.h **** 
  72:src/ASCII_fun.h **** bool str_eq(const uint8_t *str1, const uint8_t *str2, uint8_t len) {
 371              		.loc 1 72 68 is_stmt 1
 372              		.cfi_startproc
 373              	.LVL47:
  73:src/ASCII_fun.h ****     for(uint8_t i = 0; i < len; i ++) {
 374              		.loc 1 73 5
 375              	.LBB36:
 376              		.loc 1 73 26
 377 0000 19CE     		beq	a2,zero,.L46
 378 0002 2A96     		add	a2,a0,a2
 379              	.LVL48:
 380 0004 19A0     		j	.L45
 381              	.LVL49:
GAS LISTING /tmp/ccAZS1OZ.s 			page 10


 382              	.L49:
 383              		.loc 1 73 26 is_stmt 0 discriminator 2
 384 0006 630CC500 		beq	a0,a2,.L46
 385              	.LVL50:
 386              	.L45:
  74:src/ASCII_fun.h ****         if(str1[i] != str2[i]) {
 387              		.loc 1 74 9 is_stmt 1
  73:src/ASCII_fun.h ****     for(uint8_t i = 0; i < len; i ++) {
 388              		.loc 1 73 5
  73:src/ASCII_fun.h ****     for(uint8_t i = 0; i < len; i ++) {
 389              		.loc 1 73 26
 390              		.loc 1 74 9 is_stmt 0
 391 000a 03470500 		lbu	a4,0(a0)
 392 000e 83C70500 		lbu	a5,0(a1)
  73:src/ASCII_fun.h ****     for(uint8_t i = 0; i < len; i ++) {
 393              		.loc 1 73 26
 394 0012 0505     		addi	a0,a0,1
 395              	.LVL51:
 396 0014 8505     		addi	a1,a1,1
 397              		.loc 1 74 9
 398 0016 E308F7FE 		beq	a4,a5,.L49
  75:src/ASCII_fun.h ****             return false;
 399              		.loc 1 75 20
 400 001a 0145     		li	a0,0
 401              	.LBE36:
  76:src/ASCII_fun.h ****         }
  77:src/ASCII_fun.h ****     }
  78:src/ASCII_fun.h ****     return true;
  79:src/ASCII_fun.h **** }
 402              		.loc 1 79 1
 403 001c 8280     		ret
 404              	.LVL52:
 405              	.L46:
  78:src/ASCII_fun.h **** }
 406              		.loc 1 78 12
 407 001e 0545     		li	a0,1
 408 0020 8280     		ret
 409              		.cfi_endproc
 410              	.LFE18:
 412              		.section	.text._Z6delayTm,"ax",@progbits
 413              		.align	1
 414              		.globl	_Z6delayTm
 416              	_Z6delayTm:
 417              	.LFB19:
 418              		.file 2 "src/main.cpp"
   1:src/main.cpp  **** /* configurations */
   2:src/main.cpp  **** #define AWTR_UPDATE_TIME 12   // [1 - 40 hours]
   3:src/main.cpp  **** #define AWTR_WATERING_TIME 2000   // [ms]
   4:src/main.cpp  **** 
   5:src/main.cpp  **** /* clock preferences. Don't change thoughtlessly! */
   6:src/main.cpp  **** #define F_HBCLK 187500
   7:src/main.cpp  **** #define UART_BAUDRATE 4800
   8:src/main.cpp  **** 
   9:src/main.cpp  **** #define MS_TO_TICKS(ms) ((uint32_t)(ms) * (F_HBCLK / 8000))
  10:src/main.cpp  **** #define TIMER_UPDATE MS_TO_TICKS(AWTR_UPDATE_TIME * 3600 * 1000)
  11:src/main.cpp  **** 
  12:src/main.cpp  **** /* Includes */
GAS LISTING /tmp/ccAZS1OZ.s 			page 11


  13:src/main.cpp  **** #include <ch32v00x.h>
  14:src/main.cpp  **** #include <uart.h>
  15:src/main.cpp  **** #include "GPIO.h"
  16:src/main.cpp  **** #include "ASCII_fun.h"
  17:src/main.cpp  **** 
  18:src/main.cpp  **** /* Global Variable */
  19:src/main.cpp  **** enum awtr_state_t {
  20:src/main.cpp  **** 	blink,
  21:src/main.cpp  **** 	waiting,
  22:src/main.cpp  **** 	click,
  23:src/main.cpp  **** 	hold,
  24:src/main.cpp  **** 	long_hold,
  25:src/main.cpp  **** 	toSleep,
  26:src/main.cpp  **** };
  27:src/main.cpp  **** volatile awtr_state_t awtr_state = click;
  28:src/main.cpp  **** uint8_t sens_val = 0;
  29:src/main.cpp  **** uint8_t sens_val_border = 50;
  30:src/main.cpp  **** 
  31:src/main.cpp  **** uart uart1(USART1, UART_BAUDRATE, F_HBCLK);
  32:src/main.cpp  **** uint8_t msg_click_dry[] = "Ground is dry: XXX\n";
  33:src/main.cpp  **** uint8_t msg_click_wet[] = "Ground is wet: XXX\n";
  34:src/main.cpp  **** uint8_t msg_hold[] = "New sens border: XXX\n";
  35:src/main.cpp  **** uint8_t msg_lhold[] = "Sensor value: XXX\n";
  36:src/main.cpp  **** 
  37:src/main.cpp  **** /* Program */
  38:src/main.cpp  **** void delayT(uint32_t val) {       // [val] ~= 0.042 sec
 419              		.loc 2 38 27 is_stmt 1
 420              		.cfi_startproc
 421              	.LVL53:
  39:src/main.cpp  **** 	uint32_t cnt_prev, cnt_cur;
 422              		.loc 2 39 2
  40:src/main.cpp  **** 	cnt_prev = SysTick->CNT;
 423              		.loc 2 40 2
 424              		.loc 2 40 11 is_stmt 0
 425 0000 37F700E0 		li	a4,-536809472
 426 0004 1C47     		lw	a5,8(a4)
 427              	.LVL54:
  41:src/main.cpp  **** 	cnt_cur = SysTick->CNT;
 428              		.loc 2 41 2 is_stmt 1
 429              		.loc 2 41 10 is_stmt 0
 430 0006 1847     		lw	a4,8(a4)
 431              	.LVL55:
  42:src/main.cpp  **** 	while(cnt_cur < cnt_prev + val) {
 432              		.loc 2 42 2 is_stmt 1
 433              		.loc 2 42 16
 434              		.loc 2 42 27 is_stmt 0
 435 0008 3E95     		add	a0,a5,a0
 436              	.LVL56:
 437              		.loc 2 42 16
 438 000a 6377A700 		bgeu	a4,a0,.L50
  43:src/main.cpp  **** 		cnt_cur = SysTick->CNT;
 439              		.loc 2 43 11
 440 000e 37F700E0 		li	a4,-536809472
 441              	.LVL57:
 442              	.L52:
 443              		.loc 2 43 3 is_stmt 1
 444              		.loc 2 43 11 is_stmt 0
GAS LISTING /tmp/ccAZS1OZ.s 			page 12


 445 0012 1C47     		lw	a5,8(a4)
 446              	.LVL58:
  42:src/main.cpp  **** 	while(cnt_cur < cnt_prev + val) {
 447              		.loc 2 42 16 is_stmt 1
 448 0014 E3EFA7FE 		bltu	a5,a0,.L52
 449              	.LVL59:
 450              	.L50:
  44:src/main.cpp  **** 	}
  45:src/main.cpp  **** 	return;
  46:src/main.cpp  **** }
 451              		.loc 2 46 1 is_stmt 0
 452 0018 8280     		ret
 453              		.cfi_endproc
 454              	.LFE19:
 456              		.section	.text._Z6ob_getv,"ax",@progbits
 457              		.align	1
 458              		.globl	_Z6ob_getv
 460              	_Z6ob_getv:
 461              	.LFB20:
  47:src/main.cpp  **** 
  48:src/main.cpp  **** uint8_t ob_get() {
 462              		.loc 2 48 18 is_stmt 1
 463              		.cfi_startproc
  49:src/main.cpp  **** 	return 0;
 464              		.loc 2 49 2
  50:src/main.cpp  **** }
 465              		.loc 2 50 1 is_stmt 0
 466 0000 0145     		li	a0,0
 467 0002 8280     		ret
 468              		.cfi_endproc
 469              	.LFE20:
 471              		.section	.text._Z6ob_seth,"ax",@progbits
 472              		.align	1
 473              		.globl	_Z6ob_seth
 475              	_Z6ob_seth:
 476              	.LFB21:
  51:src/main.cpp  **** void ob_set(uint8_t data) {
 477              		.loc 2 51 27 is_stmt 1
 478              		.cfi_startproc
 479              	.LVL60:
  52:src/main.cpp  **** 	return;
 480              		.loc 2 52 2
  53:src/main.cpp  **** }
 481              		.loc 2 53 1 is_stmt 0
 482 0000 8280     		ret
 483              		.cfi_endproc
 484              	.LFE21:
 486              		.section	.text.SystemInit,"ax",@progbits
 487              		.align	1
 488              		.globl	SystemInit
 490              	SystemInit:
 491              	.LFB22:
  54:src/main.cpp  **** 
  55:src/main.cpp  **** extern "C"{
  56:src/main.cpp  **** void SystemInit() {
 492              		.loc 2 56 19 is_stmt 1
 493              		.cfi_startproc
GAS LISTING /tmp/ccAZS1OZ.s 			page 13


  57:src/main.cpp  **** 	/*RCC*/
  58:src/main.cpp  **** 	RCC->CFGR0 &= ~(RCC_HPRE | RCC_ADCPRE);
 494              		.loc 2 58 2
 495              		.loc 2 58 7 is_stmt 0
 496 0000 B7170240 		li	a5,1073876992
 497 0004 D843     		lw	a4,4(a5)
 498              		.loc 2 58 13
 499 0006 D176     		li	a3,-49152
  56:src/main.cpp  **** 	/*RCC*/
 500              		.loc 2 56 19
 501 0008 5111     		addi	sp,sp,-12
 502              		.cfi_def_cfa_offset 12
 503              		.loc 2 58 13
 504 000a 9386F6F0 		addi	a3,a3,-241
  56:src/main.cpp  **** 	/*RCC*/
 505              		.loc 2 56 19
 506 000e 22C2     		sw	s0,4(sp)
 507 0010 26C0     		sw	s1,0(sp)
 508 0012 06C4     		sw	ra,8(sp)
 509              		.cfi_offset 8, -8
 510              		.cfi_offset 9, -12
 511              		.cfi_offset 1, -4
 512              		.loc 2 58 13
 513 0014 758F     		and	a4,a4,a3
 514 0016 D8C3     		sw	a4,4(a5)
  59:src/main.cpp  **** 	RCC->CFGR0 |= RCC_HPRE_DIV16 | RCC_ADCPRE_DIV2; //HBCLK = 1.5 MHz
 515              		.loc 2 59 2 is_stmt 1
 516              		.loc 2 59 7 is_stmt 0
 517 0018 D843     		lw	a4,4(a5)
  60:src/main.cpp  **** 	RCC->APB2PCENR |= RCC_IOPAEN | RCC_IOPCEN | RCC_IOPDEN | 
 518              		.loc 2 60 17
 519 001a 9166     		li	a3,16384
 520 001c 93865623 		addi	a3,a3,565
  59:src/main.cpp  **** 	RCC->CFGR0 |= RCC_HPRE_DIV16 | RCC_ADCPRE_DIV2; //HBCLK = 1.5 MHz
 521              		.loc 2 59 13
 522 0020 1367070B 		ori	a4,a4,176
 523 0024 D8C3     		sw	a4,4(a5)
 524              		.loc 2 60 2 is_stmt 1
 525              		.loc 2 60 7 is_stmt 0
 526 0026 984F     		lw	a4,24(a5)
  61:src/main.cpp  **** 	                  RCC_ADC1EN | RCC_USART1EN | RCC_AFIOEN;
  62:src/main.cpp  **** 	
  63:src/main.cpp  **** 	/*Timer*/
  64:src/main.cpp  **** 	SysTick->CNT = 0;
 527              		.loc 2 64 15
 528 0028 B7F400E0 		li	s1,-536809472
  65:src/main.cpp  **** 	SysTick->CMP = 0xFFFFFFFF;
  66:src/main.cpp  **** 	SysTick->CTLR = STK_STIE | STK_STRE | STK_STE;
  67:src/main.cpp  **** 	
  68:src/main.cpp  **** 	/*GPIO*/
  69:src/main.cpp  **** 	LED_PORT->CFGLR &= ~(IO_MASK << LED_GPIN);
 529              		.loc 2 69 12
 530 002c 37140140 		li	s0,1073811456
  60:src/main.cpp  **** 	                  RCC_ADC1EN | RCC_USART1EN | RCC_AFIOEN;
 531              		.loc 2 60 17
 532 0030 558F     		or	a4,a4,a3
 533 0032 98CF     		sw	a4,24(a5)
GAS LISTING /tmp/ccAZS1OZ.s 			page 14


  64:src/main.cpp  **** 	SysTick->CMP = 0xFFFFFFFF;
 534              		.loc 2 64 2 is_stmt 1
  64:src/main.cpp  **** 	SysTick->CMP = 0xFFFFFFFF;
 535              		.loc 2 64 15 is_stmt 0
 536 0034 23A40400 		sw	zero,8(s1)
  65:src/main.cpp  **** 	SysTick->CMP = 0xFFFFFFFF;
 537              		.loc 2 65 2 is_stmt 1
  65:src/main.cpp  **** 	SysTick->CMP = 0xFFFFFFFF;
 538              		.loc 2 65 15 is_stmt 0
 539 0038 FD57     		li	a5,-1
 540 003a 9CC8     		sw	a5,16(s1)
  66:src/main.cpp  **** 	
 541              		.loc 2 66 2 is_stmt 1
  66:src/main.cpp  **** 	
 542              		.loc 2 66 16 is_stmt 0
 543 003c AD47     		li	a5,11
 544 003e 9CC0     		sw	a5,0(s1)
 545              		.loc 2 69 2 is_stmt 1
 546              		.loc 2 69 12 is_stmt 0
 547 0040 1C40     		lw	a5,0(s0)
 548              		.loc 2 69 18
 549 0042 93F7F7F0 		andi	a5,a5,-241
 550 0046 1CC0     		sw	a5,0(s0)
  70:src/main.cpp  **** 	LED_PORT->CFGLR |= (IO_OUT_OD | IO_OUT_2M) << LED_GPIN;
 551              		.loc 2 70 2 is_stmt 1
 552              		.loc 2 70 12 is_stmt 0
 553 0048 1C40     		lw	a5,0(s0)
 554              		.loc 2 70 18
 555 004a 93E70706 		ori	a5,a5,96
 556 004e 1CC0     		sw	a5,0(s0)
  71:src/main.cpp  **** 	led_off();
 557              		.loc 2 71 2 is_stmt 1
 558              		.loc 2 71 9 is_stmt 0
 559 0050 97000000 		call	_Z7led_offv
 559      E7800000 
 560              	.LVL61:
  72:src/main.cpp  **** 
  73:src/main.cpp  **** 	PUMP_PORT->CFGLR &= ~(IO_MASK << PUMP_GPIN);
 561              		.loc 2 73 2 is_stmt 1
 562              		.loc 2 73 13 is_stmt 0
 563 0058 1C40     		lw	a5,0(s0)
 564              		.loc 2 73 19
 565 005a 7D76     		li	a2,-4096
 566 005c 1306F60F 		addi	a2,a2,255
 567 0060 F18F     		and	a5,a5,a2
 568 0062 1CC0     		sw	a5,0(s0)
  74:src/main.cpp  **** 	PUMP_PORT->CFGLR |= (IO_OUT_PP | IO_OUT_2M) << PUMP_GPIN;
 569              		.loc 2 74 2 is_stmt 1
 570              		.loc 2 74 13 is_stmt 0
 571 0064 1C40     		lw	a5,0(s0)
  75:src/main.cpp  **** 
  76:src/main.cpp  **** 	BTN_PORT->CFGLR &= ~(IO_MASK << BTN_GPIN);
 572              		.loc 2 76 18
 573 0066 3707F1FF 		li	a4,-983040
 574 006a 7D17     		addi	a4,a4,-1
  74:src/main.cpp  **** 	PUMP_PORT->CFGLR |= (IO_OUT_PP | IO_OUT_2M) << PUMP_GPIN;
 575              		.loc 2 74 19
GAS LISTING /tmp/ccAZS1OZ.s 			page 15


 576 006c 93E70720 		ori	a5,a5,512
 577 0070 1CC0     		sw	a5,0(s0)
 578              		.loc 2 76 2 is_stmt 1
 579              		.loc 2 76 12 is_stmt 0
 580 0072 1C40     		lw	a5,0(s0)
  77:src/main.cpp  **** 	BTN_PORT->CFGLR |= (IO_IN | IO_IN_PUD) << BTN_GPIN;
 581              		.loc 2 77 18
 582 0074 B7050800 		li	a1,524288
  78:src/main.cpp  **** 	BTN_PORT->BSHR = 1 << btn_pin;  //pull-up
  79:src/main.cpp  **** 	AFIO->EXTICR |= BTN_EXTI;
 583              		.loc 2 79 8
 584 0078 B7060140 		li	a3,1073807360
  76:src/main.cpp  **** 	BTN_PORT->CFGLR |= (IO_IN | IO_IN_PUD) << BTN_GPIN;
 585              		.loc 2 76 18
 586 007c F98F     		and	a5,a5,a4
 587 007e 1CC0     		sw	a5,0(s0)
  77:src/main.cpp  **** 	BTN_PORT->CFGLR |= (IO_IN | IO_IN_PUD) << BTN_GPIN;
 588              		.loc 2 77 2 is_stmt 1
  77:src/main.cpp  **** 	BTN_PORT->CFGLR |= (IO_IN | IO_IN_PUD) << BTN_GPIN;
 589              		.loc 2 77 12 is_stmt 0
 590 0080 1C40     		lw	a5,0(s0)
  77:src/main.cpp  **** 	BTN_PORT->CFGLR |= (IO_IN | IO_IN_PUD) << BTN_GPIN;
 591              		.loc 2 77 18
 592 0082 CD8F     		or	a5,a5,a1
 593 0084 1CC0     		sw	a5,0(s0)
  78:src/main.cpp  **** 	BTN_PORT->BSHR = 1 << btn_pin;  //pull-up
 594              		.loc 2 78 2 is_stmt 1
  78:src/main.cpp  **** 	BTN_PORT->BSHR = 1 << btn_pin;  //pull-up
 595              		.loc 2 78 17 is_stmt 0
 596 0086 C147     		li	a5,16
 597 0088 1CC8     		sw	a5,16(s0)
 598              		.loc 2 79 2 is_stmt 1
 599              		.loc 2 79 8 is_stmt 0
 600 008a 9C46     		lw	a5,8(a3)
 601              		.loc 2 79 15
 602 008c 93E70720 		ori	a5,a5,512
 603 0090 9CC6     		sw	a5,8(a3)
  80:src/main.cpp  **** 	EXTI->INTENR |= 1 << btn_pin;
 604              		.loc 2 80 2 is_stmt 1
 605              		.loc 2 80 8 is_stmt 0
 606 0092 83A70640 		lw	a5,1024(a3)
 607              		.loc 2 80 15
 608 0096 93E70701 		ori	a5,a5,16
 609 009a 23A0F640 		sw	a5,1024(a3)
  81:src/main.cpp  **** 	EXTI->FTENR |= 1 << btn_pin;
 610              		.loc 2 81 2 is_stmt 1
 611              		.loc 2 81 8 is_stmt 0
 612 009e 83A5C640 		lw	a1,1036(a3)
  82:src/main.cpp  **** 	EXTI->RTENR |= 1 << btn_pin;
  83:src/main.cpp  **** 	EXTI->INTFR |= 1 << btn_pin;
  84:src/main.cpp  **** 	EXTI->EVENR |= 1 << btn_pin;
  85:src/main.cpp  **** 
  86:src/main.cpp  **** 	SENS_PORT->CFGLR &= ~(IO_MASK << SENS_GPIN);
  87:src/main.cpp  **** 	SENS_PORT->CFGLR |= (IO_IN | IO_IN_AN) << SENS_GPIN;
  88:src/main.cpp  **** 
  89:src/main.cpp  **** 	UTX_PORT->CFGLR &= ~(IO_MASK << UTX_GPIN);
  90:src/main.cpp  **** 	UTX_PORT->CFGLR |= (IO_OUT_APP | IO_OUT_10M) << UTX_GPIN;
GAS LISTING /tmp/ccAZS1OZ.s 			page 16


  91:src/main.cpp  **** 	AFIO->PCFR1 |= UTX_REMAP;
  92:src/main.cpp  **** 
  93:src/main.cpp  **** 	/*ADC*/
  94:src/main.cpp  **** 	ADC1->CTLR1 |= 0;  //Single single-channel mode
 613              		.loc 2 94 8
 614 00a2 B7270140 		li	a5,1073815552
  81:src/main.cpp  **** 	EXTI->FTENR |= 1 << btn_pin;
 615              		.loc 2 81 14
 616 00a6 93E50501 		ori	a1,a1,16
 617 00aa 23A6B640 		sw	a1,1036(a3)
  82:src/main.cpp  **** 	EXTI->RTENR |= 1 << btn_pin;
 618              		.loc 2 82 2 is_stmt 1
  82:src/main.cpp  **** 	EXTI->RTENR |= 1 << btn_pin;
 619              		.loc 2 82 8 is_stmt 0
 620 00ae 83A58640 		lw	a1,1032(a3)
  82:src/main.cpp  **** 	EXTI->RTENR |= 1 << btn_pin;
 621              		.loc 2 82 14
 622 00b2 93E50501 		ori	a1,a1,16
 623 00b6 23A4B640 		sw	a1,1032(a3)
  83:src/main.cpp  **** 	EXTI->EVENR |= 1 << btn_pin;
 624              		.loc 2 83 2 is_stmt 1
  83:src/main.cpp  **** 	EXTI->EVENR |= 1 << btn_pin;
 625              		.loc 2 83 8 is_stmt 0
 626 00ba 83A54641 		lw	a1,1044(a3)
  83:src/main.cpp  **** 	EXTI->EVENR |= 1 << btn_pin;
 627              		.loc 2 83 14
 628 00be 93E50501 		ori	a1,a1,16
 629 00c2 23AAB640 		sw	a1,1044(a3)
  84:src/main.cpp  **** 
 630              		.loc 2 84 2 is_stmt 1
  84:src/main.cpp  **** 
 631              		.loc 2 84 8 is_stmt 0
 632 00c6 83A54640 		lw	a1,1028(a3)
  84:src/main.cpp  **** 
 633              		.loc 2 84 14
 634 00ca 93E50501 		ori	a1,a1,16
 635 00ce 23A2B640 		sw	a1,1028(a3)
  86:src/main.cpp  **** 	SENS_PORT->CFGLR |= (IO_IN | IO_IN_AN) << SENS_GPIN;
 636              		.loc 2 86 2 is_stmt 1
  86:src/main.cpp  **** 	SENS_PORT->CFGLR |= (IO_IN | IO_IN_AN) << SENS_GPIN;
 637              		.loc 2 86 13 is_stmt 0
 638 00d2 03270480 		lw	a4,-2048(s0)
  86:src/main.cpp  **** 	SENS_PORT->CFGLR |= (IO_IN | IO_IN_AN) << SENS_GPIN;
 639              		.loc 2 86 19
 640 00d6 718F     		and	a4,a4,a2
 641 00d8 2320E480 		sw	a4,-2048(s0)
  87:src/main.cpp  **** 
 642              		.loc 2 87 2 is_stmt 1
  87:src/main.cpp  **** 
 643              		.loc 2 87 13 is_stmt 0
 644 00dc 03270480 		lw	a4,-2048(s0)
  89:src/main.cpp  **** 	UTX_PORT->CFGLR |= (IO_OUT_APP | IO_OUT_10M) << UTX_GPIN;
 645              		.loc 2 89 18
 646 00e0 370600F1 		li	a2,-251658240
 647 00e4 7D16     		addi	a2,a2,-1
  87:src/main.cpp  **** 
 648              		.loc 2 87 19
GAS LISTING /tmp/ccAZS1OZ.s 			page 17


 649 00e6 2320E480 		sw	a4,-2048(s0)
  89:src/main.cpp  **** 	UTX_PORT->CFGLR |= (IO_OUT_APP | IO_OUT_10M) << UTX_GPIN;
 650              		.loc 2 89 2 is_stmt 1
  89:src/main.cpp  **** 	UTX_PORT->CFGLR |= (IO_OUT_APP | IO_OUT_10M) << UTX_GPIN;
 651              		.loc 2 89 12 is_stmt 0
 652 00ea 03270440 		lw	a4,1024(s0)
  89:src/main.cpp  **** 	UTX_PORT->CFGLR |= (IO_OUT_APP | IO_OUT_10M) << UTX_GPIN;
 653              		.loc 2 89 18
 654 00ee 718F     		and	a4,a4,a2
 655 00f0 2320E440 		sw	a4,1024(s0)
  90:src/main.cpp  **** 	AFIO->PCFR1 |= UTX_REMAP;
 656              		.loc 2 90 2 is_stmt 1
  90:src/main.cpp  **** 	AFIO->PCFR1 |= UTX_REMAP;
 657              		.loc 2 90 12 is_stmt 0
 658 00f4 03270440 		lw	a4,1024(s0)
  90:src/main.cpp  **** 	AFIO->PCFR1 |= UTX_REMAP;
 659              		.loc 2 90 18
 660 00f8 37060009 		li	a2,150994944
 661 00fc 518F     		or	a4,a4,a2
 662 00fe 2320E440 		sw	a4,1024(s0)
  91:src/main.cpp  **** 
 663              		.loc 2 91 2 is_stmt 1
  91:src/main.cpp  **** 
 664              		.loc 2 91 8 is_stmt 0
 665 0102 D842     		lw	a4,4(a3)
  91:src/main.cpp  **** 
 666              		.loc 2 91 14
 667 0104 37062000 		li	a2,2097152
 668 0108 518F     		or	a4,a4,a2
 669 010a D8C2     		sw	a4,4(a3)
 670              		.loc 2 94 2 is_stmt 1
 671              		.loc 2 94 8 is_stmt 0
 672 010c 03A74740 		lw	a4,1028(a5)
  95:src/main.cpp  **** 	ADC1->CTLR2 |= ADC_ALIGN | ADC_ADON;
 673              		.loc 2 95 14
 674 0110 8566     		li	a3,4096
 675 0112 93861680 		addi	a3,a3,-2047
  94:src/main.cpp  **** 	ADC1->CTLR2 |= ADC_ALIGN | ADC_ADON;
 676              		.loc 2 94 14
 677 0116 23A2E740 		sw	a4,1028(a5)
 678              		.loc 2 95 2 is_stmt 1
 679              		.loc 2 95 8 is_stmt 0
 680 011a 03A78740 		lw	a4,1032(a5)
 681              		.loc 2 95 14
 682 011e 558F     		or	a4,a4,a3
 683 0120 23A4E740 		sw	a4,1032(a5)
  96:src/main.cpp  **** 	ADC1->SAMPTR2 = 0;
 684              		.loc 2 96 2 is_stmt 1
 685              		.loc 2 96 16 is_stmt 0
 686 0124 23A80740 		sw	zero,1040(a5)
  97:src/main.cpp  **** 	ADC1->RSQR1 = 0;
 687              		.loc 2 97 2 is_stmt 1
 688              		.loc 2 97 14 is_stmt 0
 689 0128 23A60742 		sw	zero,1068(a5)
  98:src/main.cpp  **** 	ADC1->RSQR2 = 0;
 690              		.loc 2 98 2 is_stmt 1
 691              		.loc 2 98 14 is_stmt 0
GAS LISTING /tmp/ccAZS1OZ.s 			page 18


 692 012c 23A80742 		sw	zero,1072(a5)
  99:src/main.cpp  **** 	ADC1->RSQR3 = SENS_ADC_CHANNEL << 0;
 693              		.loc 2 99 2 is_stmt 1
 694              		.loc 2 99 14 is_stmt 0
 695 0130 23AA0742 		sw	zero,1076(a5)
 100:src/main.cpp  **** 
 101:src/main.cpp  **** 	/* RCC end*/
 102:src/main.cpp  **** 	delayT(MS_TO_TICKS(5000 * 8)); //for program chip (~ 5 sec)
 696              		.loc 2 102 2 is_stmt 1
 697              	.LVL62:
 698              	.LBB37:
 699              	.LBB38:
  39:src/main.cpp  **** 	cnt_prev = SysTick->CNT;
 700              		.loc 2 39 2
  40:src/main.cpp  **** 	cnt_cur = SysTick->CNT;
 701              		.loc 2 40 2
  40:src/main.cpp  **** 	cnt_cur = SysTick->CNT;
 702              		.loc 2 40 11 is_stmt 0
 703 0134 9844     		lw	a4,8(s1)
 704              	.LVL63:
  41:src/main.cpp  **** 	while(cnt_cur < cnt_prev + val) {
 705              		.loc 2 41 2 is_stmt 1
  42:src/main.cpp  **** 		cnt_cur = SysTick->CNT;
 706              		.loc 2 42 27 is_stmt 0
 707 0136 B7170E00 		li	a5,921600
  41:src/main.cpp  **** 	while(cnt_cur < cnt_prev + val) {
 708              		.loc 2 41 10
 709 013a 9444     		lw	a3,8(s1)
 710              	.LVL64:
  42:src/main.cpp  **** 		cnt_cur = SysTick->CNT;
 711              		.loc 2 42 2 is_stmt 1
  42:src/main.cpp  **** 		cnt_cur = SysTick->CNT;
 712              		.loc 2 42 16
  42:src/main.cpp  **** 		cnt_cur = SysTick->CNT;
 713              		.loc 2 42 27 is_stmt 0
 714 013c 9387079C 		addi	a5,a5,-1600
 715 0140 3E97     		add	a4,a4,a5
 716              	.LVL65:
  42:src/main.cpp  **** 		cnt_cur = SysTick->CNT;
 717              		.loc 2 42 16
 718 0142 63F7E600 		bgeu	a3,a4,.L57
  43:src/main.cpp  **** 	}
 719              		.loc 2 43 11
 720 0146 B7F600E0 		li	a3,-536809472
 721              	.LVL66:
 722              	.L58:
  43:src/main.cpp  **** 	}
 723              		.loc 2 43 3 is_stmt 1
  43:src/main.cpp  **** 	}
 724              		.loc 2 43 11 is_stmt 0
 725 014a 9C46     		lw	a5,8(a3)
 726              	.LVL67:
  42:src/main.cpp  **** 		cnt_cur = SysTick->CNT;
 727              		.loc 2 42 16 is_stmt 1
 728 014c E3EFE7FE 		bltu	a5,a4,.L58
 729              	.LVL68:
 730              	.L57:
GAS LISTING /tmp/ccAZS1OZ.s 			page 19


  45:src/main.cpp  **** }
 731              		.loc 2 45 2
 732              	.LBE38:
 733              	.LBE37:
 103:src/main.cpp  **** 	RCC->CFGR0 &= ~(RCC_HPRE | RCC_ADCPRE);
 734              		.loc 2 103 2
 735              		.loc 2 103 7 is_stmt 0
 736 0150 B7170240 		li	a5,1073876992
 737 0154 D843     		lw	a4,4(a5)
 738              		.loc 2 103 13
 739 0156 D176     		li	a3,-49152
 740 0158 9386F6F0 		addi	a3,a3,-241
 741 015c 758F     		and	a4,a4,a3
 742 015e D8C3     		sw	a4,4(a5)
 104:src/main.cpp  **** 	RCC->CFGR0 |= RCC_HPRE_DIV128 | RCC_ADCPRE_DIV2;  //HBCLK = 187.5 kHz
 743              		.loc 2 104 2 is_stmt 1
 744              		.loc 2 104 7 is_stmt 0
 745 0160 D843     		lw	a4,4(a5)
 105:src/main.cpp  **** 	SysTick->CNT = 0;
 106:src/main.cpp  **** 	SysTick->CMP = TIMER_UPDATE;
 107:src/main.cpp  **** }
 746              		.loc 2 107 1
 747 0162 A240     		lw	ra,8(sp)
 748              		.cfi_restore 1
 749 0164 1244     		lw	s0,4(sp)
 750              		.cfi_restore 8
 104:src/main.cpp  **** 	RCC->CFGR0 |= RCC_HPRE_DIV128 | RCC_ADCPRE_DIV2;  //HBCLK = 187.5 kHz
 751              		.loc 2 104 13
 752 0166 1367070E 		ori	a4,a4,224
 753 016a D8C3     		sw	a4,4(a5)
 105:src/main.cpp  **** 	SysTick->CNT = 0;
 754              		.loc 2 105 2 is_stmt 1
 105:src/main.cpp  **** 	SysTick->CNT = 0;
 755              		.loc 2 105 15 is_stmt 0
 756 016c B7F600E0 		li	a3,-536809472
 106:src/main.cpp  **** }
 757              		.loc 2 106 15
 758 0170 B727393B 		li	a5,993599488
 105:src/main.cpp  **** 	SysTick->CNT = 0;
 759              		.loc 2 105 15
 760 0174 23A40600 		sw	zero,8(a3)
 106:src/main.cpp  **** }
 761              		.loc 2 106 2 is_stmt 1
 106:src/main.cpp  **** }
 762              		.loc 2 106 15 is_stmt 0
 763 0178 93870720 		addi	a5,a5,512
 764 017c 9CCA     		sw	a5,16(a3)
 765              		.loc 2 107 1
 766 017e 8244     		lw	s1,0(sp)
 767              		.cfi_restore 9
 768 0180 3101     		addi	sp,sp,12
 769              		.cfi_def_cfa_offset 0
 770 0182 8280     		jr	ra
 771              		.cfi_endproc
 772              	.LFE22:
 774              		.section	.rodata.main.str1.4,"aMS",@progbits,1
 775              		.align	2
GAS LISTING /tmp/ccAZS1OZ.s 			page 20


 776              	.LC0:
 777 0000 55415254 		.string	"UART is work!!! \n"
 777      20697320 
 777      776F726B 
 777      21212120 
 777      0A00
 778 0012 0000     		.align	2
 779              	.LC1:
 780 0014 4D656173 		.string	"Measurement cycle, click button for exit\n"
 780      7572656D 
 780      656E7420 
 780      6379636C 
 780      652C2063 
 781              		.section	.text.startup.main,"ax",@progbits
 782              		.align	1
 783              		.globl	main
 785              	main:
 786              	.LFB23:
 108:src/main.cpp  **** }
 109:src/main.cpp  **** 
 110:src/main.cpp  **** int main(void)
 111:src/main.cpp  **** {
 787              		.loc 2 111 1 is_stmt 1
 788              		.cfi_startproc
 112:src/main.cpp  **** 	NVIC_EnableIRQ(SysTick_IRQn);
 789              		.loc 2 112 2
 790              	.LVL69:
 791              	.LBB39:
 792              	.LBB40:
 793              		.file 3 "src/core/core_riscv.h"
   1:src/core/core_riscv.h **** /********************************** (C) COPYRIGHT  *******************************
   2:src/core/core_riscv.h ****  * File Name          : ch32v00x.h
   3:src/core/core_riscv.h ****  * Author             : Shaperon
   4:src/core/core_riscv.h ****  * Version            : V1.0
   5:src/core/core_riscv.h ****  * Date               : 14/06/2026
   6:src/core/core_riscv.h ****  * Description        : CH32V00x Modified file
   7:src/core/core_riscv.h ****  *********************************************************************************
   8:src/core/core_riscv.h ****  * The original file was most likely copied from another chip somewhere 
   9:src/core/core_riscv.h ****  * does not match the datasheet, so I redid it.
  10:src/core/core_riscv.h ****  * P.S. I also cleaned up a bit of the junk, so this
  11:src/core/core_riscv.h ****  * **NOT INTERCHANGEABLE with the official SDK and SPL**
  12:src/core/core_riscv.h ****  * 
  13:src/core/core_riscv.h ****  * Оригинальный файл скорее всего скопипащен с другого
  14:src/core/core_riscv.h ****  * несоответствует даташиту, поэтому я его переделал.
  15:src/core/core_riscv.h ****  * p.s. Я в целом еще немного мусора почистил, так что это 
  16:src/core/core_riscv.h ****  * **НЕ ВЗАИМОЗАМЕНЯЕМО с оф. SDK и SPL** 
  17:src/core/core_riscv.h ****  *******************************************************************************/
  18:src/core/core_riscv.h **** #ifndef __CORE_RISCV_H__
  19:src/core/core_riscv.h **** #define __CORE_RISCV_H__
  20:src/core/core_riscv.h **** 
  21:src/core/core_riscv.h **** #ifdef __cplusplus
  22:src/core/core_riscv.h ****  extern "C" {
  23:src/core/core_riscv.h **** #endif
  24:src/core/core_riscv.h **** 
  25:src/core/core_riscv.h **** /* IO definitions */
  26:src/core/core_riscv.h **** #ifdef __cplusplus
  27:src/core/core_riscv.h ****   #define     __I     volatile                /*!< defines 'read only' permissions      */
GAS LISTING /tmp/ccAZS1OZ.s 			page 21


  28:src/core/core_riscv.h **** #else
  29:src/core/core_riscv.h ****   #define     __I     volatile const          /*!< defines 'read only' permissions     */
  30:src/core/core_riscv.h **** #endif
  31:src/core/core_riscv.h **** #define     __O     volatile                  /*!< defines 'write only' permissions     */
  32:src/core/core_riscv.h **** #define     __IO    volatile                  /*!< defines 'read / write' permissions   */
  33:src/core/core_riscv.h **** 
  34:src/core/core_riscv.h **** /* Standard Peripheral Library old types (maintained for legacy purpose) */
  35:src/core/core_riscv.h **** typedef __I uint32_t vuc32;  /* Read Only */
  36:src/core/core_riscv.h **** typedef __I uint16_t vuc16;  /* Read Only */
  37:src/core/core_riscv.h **** typedef __I uint8_t vuc8;   /* Read Only */
  38:src/core/core_riscv.h **** 
  39:src/core/core_riscv.h **** typedef const uint32_t uc32;  /* Read Only */
  40:src/core/core_riscv.h **** typedef const uint16_t uc16;  /* Read Only */
  41:src/core/core_riscv.h **** typedef const uint8_t uc8;   /* Read Only */
  42:src/core/core_riscv.h **** 
  43:src/core/core_riscv.h **** typedef __I int32_t vsc32;  /* Read Only */
  44:src/core/core_riscv.h **** typedef __I int16_t vsc16;  /* Read Only */
  45:src/core/core_riscv.h **** typedef __I int8_t vsc8;   /* Read Only */
  46:src/core/core_riscv.h **** 
  47:src/core/core_riscv.h **** typedef const int32_t sc32;  /* Read Only */
  48:src/core/core_riscv.h **** typedef const int16_t sc16;  /* Read Only */
  49:src/core/core_riscv.h **** typedef const int8_t sc8;   /* Read Only */
  50:src/core/core_riscv.h **** 
  51:src/core/core_riscv.h **** typedef __IO uint32_t  vu32;
  52:src/core/core_riscv.h **** typedef __IO uint16_t vu16;
  53:src/core/core_riscv.h **** typedef __IO uint8_t  vu8;
  54:src/core/core_riscv.h **** 
  55:src/core/core_riscv.h **** typedef uint32_t  u32;
  56:src/core/core_riscv.h **** typedef uint16_t u16;
  57:src/core/core_riscv.h **** typedef uint8_t  u8;
  58:src/core/core_riscv.h **** 
  59:src/core/core_riscv.h **** typedef __IO int32_t  vs32;
  60:src/core/core_riscv.h **** typedef __IO int16_t  vs16;
  61:src/core/core_riscv.h **** typedef __IO int8_t   vs8;
  62:src/core/core_riscv.h **** 
  63:src/core/core_riscv.h **** typedef int32_t  s32;
  64:src/core/core_riscv.h **** typedef int16_t s16;
  65:src/core/core_riscv.h **** typedef int8_t  s8;
  66:src/core/core_riscv.h **** 
  67:src/core/core_riscv.h **** typedef enum {NoREADY = 0, READY = !NoREADY} ErrorStatus;
  68:src/core/core_riscv.h **** 
  69:src/core/core_riscv.h **** typedef enum {DISABLE = 0, ENABLE = !DISABLE} FunctionalState;
  70:src/core/core_riscv.h **** 
  71:src/core/core_riscv.h **** typedef enum {RESET = 0, SET = !RESET} FlagStatus, ITStatus;
  72:src/core/core_riscv.h **** 
  73:src/core/core_riscv.h **** #define   RV_STATIC_INLINE  static  inline
  74:src/core/core_riscv.h **** 
  75:src/core/core_riscv.h **** /* memory mapped structure for Program Fast Interrupt Controller (PFIC) */
  76:src/core/core_riscv.h **** typedef struct{
  77:src/core/core_riscv.h ****     __I  uint32_t ISR[8];
  78:src/core/core_riscv.h ****     __I  uint32_t IPR[8];
  79:src/core/core_riscv.h ****     __IO uint32_t ITHRESDR;
  80:src/core/core_riscv.h ****     __IO uint32_t RESERVED;
  81:src/core/core_riscv.h ****     __IO uint32_t CFGR;
  82:src/core/core_riscv.h ****     __I  uint32_t GISR;
  83:src/core/core_riscv.h ****     __IO uint8_t VTFIDR[4];
  84:src/core/core_riscv.h ****     uint8_t RESERVED0[12];
GAS LISTING /tmp/ccAZS1OZ.s 			page 22


  85:src/core/core_riscv.h ****     __IO uint32_t VTFADDR[4];
  86:src/core/core_riscv.h ****     uint8_t RESERVED1[0x90];
  87:src/core/core_riscv.h ****     __O  uint32_t IENR[8];
  88:src/core/core_riscv.h ****     uint8_t RESERVED2[0x60];
  89:src/core/core_riscv.h ****     __O  uint32_t IRER[8];
  90:src/core/core_riscv.h ****     uint8_t RESERVED3[0x60];
  91:src/core/core_riscv.h ****     __O  uint32_t IPSR[8];
  92:src/core/core_riscv.h ****     uint8_t RESERVED4[0x60];
  93:src/core/core_riscv.h ****     __O  uint32_t IPRR[8];
  94:src/core/core_riscv.h ****     uint8_t RESERVED5[0x60];
  95:src/core/core_riscv.h ****     __IO uint32_t IACTR[8];
  96:src/core/core_riscv.h ****     uint8_t RESERVED6[0xE0];
  97:src/core/core_riscv.h ****     __IO uint8_t IPRIOR[256];
  98:src/core/core_riscv.h ****     uint8_t RESERVED7[0x810];
  99:src/core/core_riscv.h ****     __IO uint32_t SCTLR;
 100:src/core/core_riscv.h **** }PFIC_Type;
 101:src/core/core_riscv.h **** 
 102:src/core/core_riscv.h **** /* memory mapped structure for SysTick */
 103:src/core/core_riscv.h **** typedef struct
 104:src/core/core_riscv.h **** {
 105:src/core/core_riscv.h ****     __IO uint32_t CTLR;
 106:src/core/core_riscv.h ****     __IO uint32_t SR;
 107:src/core/core_riscv.h ****     __IO uint32_t CNT;
 108:src/core/core_riscv.h ****     uint32_t RESERVED0;
 109:src/core/core_riscv.h ****     __IO uint32_t CMP;
 110:src/core/core_riscv.h ****     uint32_t RESERVED1;
 111:src/core/core_riscv.h **** }SysTick_Type;
 112:src/core/core_riscv.h **** 
 113:src/core/core_riscv.h **** 
 114:src/core/core_riscv.h **** #define PFIC            ((PFIC_Type *) 0xE000E000 )
 115:src/core/core_riscv.h **** #define NVIC            PFIC
 116:src/core/core_riscv.h **** #define NVIC_KEY1       ((uint32_t)0xFA050000)
 117:src/core/core_riscv.h **** #define	NVIC_KEY2	    ((uint32_t)0xBCAF0000)
 118:src/core/core_riscv.h **** #define	NVIC_KEY3		((uint32_t)0xBEEF0000)
 119:src/core/core_riscv.h **** 
 120:src/core/core_riscv.h **** #define SysTick         ((SysTick_Type *) 0xE000F000)
 121:src/core/core_riscv.h **** /******************* SysTick Control Register *******************/
 122:src/core/core_riscv.h **** #define STK_STE         (uint32_t)0x00000001   //SysTick enable
 123:src/core/core_riscv.h **** #define STK_STIE        (uint32_t)0x00000002   //interrupt enable
 124:src/core/core_riscv.h **** #define STK_STCLK       (uint32_t)0x00000004   //prescaller
 125:src/core/core_riscv.h ****                                                //0 - HBCLK/8; 1 - HBCLK
 126:src/core/core_riscv.h **** #define STK_STRE        (uint32_t)0x00000008   //Auto-reload enable
 127:src/core/core_riscv.h ****                                                //0 - without; 1 - with
 128:src/core/core_riscv.h **** #define STK_SWIE        (uint32_t)0x80000000   //Software interrupt trigger enable
 129:src/core/core_riscv.h **** /******************* SysTick Status Register *******************/
 130:src/core/core_riscv.h **** #define STK_CNTIF       (uint32_t)0x00000001   //Comparison flag
 131:src/core/core_riscv.h **** 
 132:src/core/core_riscv.h **** 
 133:src/core/core_riscv.h **** /*********************************************************************
 134:src/core/core_riscv.h ****  * @fn      __enable_irq
 135:src/core/core_riscv.h ****  *
 136:src/core/core_riscv.h ****  * @brief   Enable Global Interrupt
 137:src/core/core_riscv.h ****  *
 138:src/core/core_riscv.h ****  * @return  none
 139:src/core/core_riscv.h ****  */
 140:src/core/core_riscv.h **** RV_STATIC_INLINE void __enable_irq()
 141:src/core/core_riscv.h **** {
GAS LISTING /tmp/ccAZS1OZ.s 			page 23


 142:src/core/core_riscv.h ****   uint32_t result;
 143:src/core/core_riscv.h **** 
 144:src/core/core_riscv.h ****   __asm volatile("csrr %0," "mstatus": "=r"(result));
 145:src/core/core_riscv.h ****   result |= 0x88;
 146:src/core/core_riscv.h ****   __asm volatile ("csrw mstatus, %0" : : "r" (result) );
 147:src/core/core_riscv.h **** }
 148:src/core/core_riscv.h **** 
 149:src/core/core_riscv.h **** /*********************************************************************
 150:src/core/core_riscv.h ****  * @fn      __disable_irq
 151:src/core/core_riscv.h ****  *
 152:src/core/core_riscv.h ****  * @brief   Disable Global Interrupt
 153:src/core/core_riscv.h ****  *
 154:src/core/core_riscv.h ****  * @return  none
 155:src/core/core_riscv.h ****  */
 156:src/core/core_riscv.h **** RV_STATIC_INLINE void __disable_irq()
 157:src/core/core_riscv.h **** {
 158:src/core/core_riscv.h ****   uint32_t result;
 159:src/core/core_riscv.h **** 
 160:src/core/core_riscv.h ****   __asm volatile("csrr %0," "mstatus": "=r"(result));
 161:src/core/core_riscv.h ****   result &= ~0x88;
 162:src/core/core_riscv.h ****   __asm volatile ("csrw mstatus, %0" : : "r" (result) );
 163:src/core/core_riscv.h **** }
 164:src/core/core_riscv.h **** 
 165:src/core/core_riscv.h **** /*********************************************************************
 166:src/core/core_riscv.h ****  * @fn      __NOP
 167:src/core/core_riscv.h ****  *
 168:src/core/core_riscv.h ****  * @brief   nop
 169:src/core/core_riscv.h ****  *
 170:src/core/core_riscv.h ****  * @return  none
 171:src/core/core_riscv.h ****  */
 172:src/core/core_riscv.h **** RV_STATIC_INLINE void __NOP()
 173:src/core/core_riscv.h **** {
 174:src/core/core_riscv.h ****   __asm volatile ("nop");
 175:src/core/core_riscv.h **** }
 176:src/core/core_riscv.h **** 
 177:src/core/core_riscv.h **** /*********************************************************************
 178:src/core/core_riscv.h ****  * @fn       NVIC_EnableIRQ
 179:src/core/core_riscv.h ****  *
 180:src/core/core_riscv.h ****  * @brief   Disable Interrupt
 181:src/core/core_riscv.h ****  *
 182:src/core/core_riscv.h ****  * @param   IRQn - Interrupt Numbers
 183:src/core/core_riscv.h ****  *
 184:src/core/core_riscv.h ****  * @return  none
 185:src/core/core_riscv.h ****  */
 186:src/core/core_riscv.h **** RV_STATIC_INLINE void NVIC_EnableIRQ(IRQn_Type IRQn)
 187:src/core/core_riscv.h **** {
 188:src/core/core_riscv.h ****   NVIC->IENR[((uint32_t)(IRQn) >> 5)] = (1 << ((uint32_t)(IRQn) & 0x1F));
 794              		.loc 3 188 3
 795              	.LBE40:
 796              	.LBE39:
 111:src/main.cpp  **** 	NVIC_EnableIRQ(SysTick_IRQn);
 797              		.loc 2 111 1 is_stmt 0
 798 0000 3111     		addi	sp,sp,-20
 799              		.cfi_def_cfa_offset 20
 800 0002 06C8     		sw	ra,16(sp)
 801 0004 22C6     		sw	s0,12(sp)
 802 0006 26C4     		sw	s1,8(sp)
GAS LISTING /tmp/ccAZS1OZ.s 			page 24


 803              		.cfi_offset 1, -4
 804              		.cfi_offset 8, -8
 805              		.cfi_offset 9, -12
 806              	.LBB42:
 807              	.LBB41:
 808              		.loc 3 188 39
 809 0008 B7E700E0 		li	a5,-536813568
 810 000c 0567     		li	a4,4096
 811 000e 23A0E710 		sw	a4,256(a5)
 812              	.LVL70:
 813              	.LBE41:
 814              	.LBE42:
 113:src/main.cpp  **** 	NVIC_EnableIRQ(USART1_IRQn);
 815              		.loc 2 113 2 is_stmt 1
 816              	.LBB43:
 817              	.LBB44:
 818              		.loc 3 188 3
 819              		.loc 3 188 39 is_stmt 0
 820 0012 0547     		li	a4,1
 821 0014 23A2E710 		sw	a4,260(a5)
 822              	.LVL71:
 823              	.LBE44:
 824              	.LBE43:
 114:src/main.cpp  **** 	NVIC_EnableIRQ(EXTI7_0_IRQn);
 825              		.loc 2 114 2 is_stmt 1
 826              	.LBB45:
 827              	.LBB46:
 828              		.loc 3 188 3
 829              		.loc 3 188 39 is_stmt 0
 830 0018 37071000 		li	a4,1048576
 831 001c 23A0E710 		sw	a4,256(a5)
 832              	.LVL72:
 833              	.LBE46:
 834              	.LBE45:
 115:src/main.cpp  **** 	NVIC_EnableIRQ(HardFault_IRQn);
 835              		.loc 2 115 2 is_stmt 1
 836              	.LBB47:
 837              	.LBB48:
 838              		.loc 3 188 3
 839              		.loc 3 188 39 is_stmt 0
 840 0020 2147     		li	a4,8
 841 0022 23A0E710 		sw	a4,256(a5)
 842              	.LVL73:
 843              	.LBE48:
 844              	.LBE47:
 116:src/main.cpp  **** 	
 117:src/main.cpp  **** 	__enable_irq();
 845              		.loc 2 117 2 is_stmt 1
 846              	.LBB49:
 847              	.LBB50:
 142:src/core/core_riscv.h **** 
 848              		.loc 3 142 3
 144:src/core/core_riscv.h ****   result |= 0x88;
 849              		.loc 3 144 3
 850              	 #APP
 851              	# 144 "src/core/core_riscv.h" 1
 852              		csrr a5,mstatus
GAS LISTING /tmp/ccAZS1OZ.s 			page 25


 853              	# 0 "" 2
 854              	.LVL74:
 145:src/core/core_riscv.h ****   __asm volatile ("csrw mstatus, %0" : : "r" (result) );
 855              		.loc 3 145 3
 146:src/core/core_riscv.h **** }
 856              		.loc 3 146 3
 145:src/core/core_riscv.h ****   __asm volatile ("csrw mstatus, %0" : : "r" (result) );
 857              		.loc 3 145 10 is_stmt 0
 858              	 #NO_APP
 859 002a 93E78708 		ori	a5,a5,136
 860              	.LVL75:
 146:src/core/core_riscv.h **** }
 861              		.loc 3 146 3
 862              	 #APP
 863              	# 146 "src/core/core_riscv.h" 1
 864              		csrw mstatus, a5
 865              	# 0 "" 2
 866              	.LVL76:
 867              	 #NO_APP
 868              	.LBE50:
 869              	.LBE49:
 118:src/main.cpp  **** 
 119:src/main.cpp  **** 	uart1.print("UART is work!!! \n");
 870              		.loc 2 119 2 is_stmt 1
 871              		.loc 2 119 13 is_stmt 0
 872 0032 B7070000 		lui	a5,%hi(uart1)
 873 0036 B7050000 		lui	a1,%hi(.LC0)
 874 003a 13850700 		addi	a0,a5,%lo(uart1)
 875 003e 93850500 		addi	a1,a1,%lo(.LC0)
 876 0042 97000000 		call	_ZN4uart5printEPKc
 876      E7800000 
 877              	.LVL77:
 120:src/main.cpp  **** 	sens_val_border = ob_get(); 
 878              		.loc 2 120 2 is_stmt 1
 879              		.loc 2 120 18 is_stmt 0
 880 004a B7070000 		lui	a5,%hi(sens_val_border)
 881 004e 23800700 		sb	zero,%lo(sens_val_border)(a5)
 882 0052 B7070000 		lui	a5,%hi(.L65)
 883 0056 93870700 		addi	a5,a5,%lo(.L65)
 884 005a 37040000 		lui	s0,%hi(awtr_state)
 885 005e 3EC2     		sw	a5,4(sp)
 886              	.LBB51:
 121:src/main.cpp  **** 	
 122:src/main.cpp  **** 	while(1) {
 123:src/main.cpp  **** 		switch(awtr_state) {
 887              		.loc 2 123 3
 888 0060 9144     		li	s1,4
 889              	.L63:
 890              	.LBE51:
 122:src/main.cpp  **** 		switch(awtr_state) {
 891              		.loc 2 122 2 is_stmt 1
 892              		.loc 2 123 3
 893              	.LBB67:
 894              		.loc 2 123 10 is_stmt 0
 895 0062 83270400 		lw	a5,%lo(awtr_state)(s0)
 896              		.loc 2 123 3
 897 0066 E3EEF4FE 		bgtu	a5,s1,.L63
GAS LISTING /tmp/ccAZS1OZ.s 			page 26


 898 006a 1247     		lw	a4,4(sp)
 899 006c 8A07     		slli	a5,a5,2
 900 006e BA97     		add	a5,a4,a5
 901 0070 9C43     		lw	a5,0(a5)
 902 0072 8287     		jr	a5
 903              		.section	.rodata.main,"a",@progbits
 904              		.align	2
 905              		.align	2
 906              	.L65:
 907 0000 00000000 		.word	.L69
 908 0004 00000000 		.word	.L68
 909 0008 00000000 		.word	.L67
 910 000c 00000000 		.word	.L66
 911 0010 00000000 		.word	.L64
 912              		.section	.text.startup.main
 913              	.L66:
 914              	.LBB52:
 124:src/main.cpp  **** 		case blink:
 125:src/main.cpp  **** 			led_on();
 126:src/main.cpp  **** 			delayT(MS_TO_TICKS(10));
 127:src/main.cpp  **** 			led_off();
 128:src/main.cpp  **** 			awtr_state = waiting;
 129:src/main.cpp  **** 			break;
 130:src/main.cpp  **** 		case waiting:
 131:src/main.cpp  **** 			uint32_t cnt_prev, cnt_cur;
 132:src/main.cpp  **** 			cnt_prev = SysTick->CNT;
 133:src/main.cpp  **** 			cnt_cur = SysTick->CNT;
 134:src/main.cpp  **** 			while(cnt_cur < cnt_prev + MS_TO_TICKS(4000) && awtr_state == waiting) {
 135:src/main.cpp  **** 				cnt_cur = SysTick->CNT;
 136:src/main.cpp  **** 			}
 137:src/main.cpp  **** 			break;
 138:src/main.cpp  **** 
 139:src/main.cpp  **** 		case click:
 140:src/main.cpp  **** 			sens_val = sens_get();
 141:src/main.cpp  **** 			if(sens_val > sens_val_border) {
 142:src/main.cpp  **** 				__disable_irq();
 143:src/main.cpp  **** 				pump_on();
 144:src/main.cpp  **** 				delayT(MS_TO_TICKS(AWTR_WATERING_TIME));
 145:src/main.cpp  **** 				pump_off();
 146:src/main.cpp  **** 				__enable_irq();
 147:src/main.cpp  **** 				intToASCII(sens_val, msg_click_dry + 15, 3);
 148:src/main.cpp  **** 				uart1.send(msg_click_dry, sizeof(msg_click_dry) - 1);
 149:src/main.cpp  **** 			}
 150:src/main.cpp  **** 			else {
 151:src/main.cpp  **** 				intToASCII(sens_val, msg_click_wet + 15, 3);
 152:src/main.cpp  **** 				uart1.send(msg_click_wet, sizeof(msg_click_wet) - 1);
 153:src/main.cpp  **** 			}
 154:src/main.cpp  **** 			awtr_state = toSleep;
 155:src/main.cpp  **** 			break;
 156:src/main.cpp  **** 		case hold:
 915              		.loc 2 156 3 is_stmt 1
 157:src/main.cpp  **** 			sens_val_border = sens_get();
 916              		.loc 2 157 4
 917              		.loc 2 157 30 is_stmt 0
 918 0074 97000000 		call	_Z8sens_getv
 918      E7800000 
 919              	.LVL78:
GAS LISTING /tmp/ccAZS1OZ.s 			page 27


 920              		.loc 2 157 20
 921 007c B7070000 		lui	a5,%hi(sens_val_border)
 922 0080 2380A700 		sb	a0,%lo(sens_val_border)(a5)
 158:src/main.cpp  **** 			ob_set(sens_val_border);
 923              		.loc 2 158 4 is_stmt 1
 159:src/main.cpp  **** 			led_on();
 924              		.loc 2 159 4
 925              		.loc 2 159 10 is_stmt 0
 926 0084 97000000 		call	_Z6led_onv
 926      E7800000 
 927              	.LVL79:
 160:src/main.cpp  **** 			intToASCII(sens_val_border, msg_hold + 17, 3);
 928              		.loc 2 160 4 is_stmt 1
 929              		.loc 2 160 14 is_stmt 0
 930 008c B7070000 		lui	a5,%hi(sens_val_border)
 931 0090 03C50700 		lbu	a0,%lo(sens_val_border)(a5)
 932 0094 B7070000 		lui	a5,%hi(msg_hold+17)
 933 0098 93851701 		addi	a1,a5,%lo(msg_hold+17)
 934 009c 0D46     		li	a2,3
 935 009e 97000000 		call	_Z10intToASCIIiPhh
 935      E7800000 
 936              	.LVL80:
 161:src/main.cpp  **** 			uart1.send(msg_hold, sizeof(msg_hold) - 1);
 937              		.loc 2 161 4 is_stmt 1
 938              		.loc 2 161 14 is_stmt 0
 939 00a6 B7070000 		lui	a5,%hi(msg_hold)
 940 00aa 93850700 		addi	a1,a5,%lo(msg_hold)
 941 00ae B7070000 		lui	a5,%hi(uart1)
 942 00b2 0147     		li	a4,0
 943 00b4 13850700 		addi	a0,a5,%lo(uart1)
 944 00b8 8146     		li	a3,0
 945 00ba 5546     		li	a2,21
 946 00bc 97000000 		call	_ZN4uart4sendEPhtPFvvEh
 946      E7800000 
 947              	.LVL81:
 162:src/main.cpp  **** 			delayT(MS_TO_TICKS(10));
 948              		.loc 2 162 4 is_stmt 1
 949              	.LBB53:
 950              	.LBB54:
  39:src/main.cpp  **** 	cnt_prev = SysTick->CNT;
 951              		.loc 2 39 2
  40:src/main.cpp  **** 	cnt_cur = SysTick->CNT;
 952              		.loc 2 40 2
  40:src/main.cpp  **** 	cnt_cur = SysTick->CNT;
 953              		.loc 2 40 11 is_stmt 0
 954 00c4 B7F700E0 		li	a5,-536809472
 955 00c8 9847     		lw	a4,8(a5)
 956              	.LVL82:
  41:src/main.cpp  **** 	while(cnt_cur < cnt_prev + val) {
 957              		.loc 2 41 2 is_stmt 1
  41:src/main.cpp  **** 	while(cnt_cur < cnt_prev + val) {
 958              		.loc 2 41 10 is_stmt 0
 959 00ca 9C47     		lw	a5,8(a5)
 960              	.LVL83:
  42:src/main.cpp  **** 		cnt_cur = SysTick->CNT;
 961              		.loc 2 42 2 is_stmt 1
  42:src/main.cpp  **** 		cnt_cur = SysTick->CNT;
GAS LISTING /tmp/ccAZS1OZ.s 			page 28


 962              		.loc 2 42 16
  42:src/main.cpp  **** 		cnt_cur = SysTick->CNT;
 963              		.loc 2 42 27 is_stmt 0
 964 00cc 1307670E 		addi	a4,a4,230
 965              	.LVL84:
  42:src/main.cpp  **** 		cnt_cur = SysTick->CNT;
 966              		.loc 2 42 16
 967 00d0 63F7E700 		bgeu	a5,a4,.L79
  43:src/main.cpp  **** 	}
 968              		.loc 2 43 11
 969 00d4 B7F600E0 		li	a3,-536809472
 970              	.LVL85:
 971              	.L80:
  43:src/main.cpp  **** 	}
 972              		.loc 2 43 3 is_stmt 1
  43:src/main.cpp  **** 	}
 973              		.loc 2 43 11 is_stmt 0
 974 00d8 9C46     		lw	a5,8(a3)
 975              	.LVL86:
  42:src/main.cpp  **** 		cnt_cur = SysTick->CNT;
 976              		.loc 2 42 16 is_stmt 1
 977 00da E3EFE7FE 		bltu	a5,a4,.L80
 978              	.LVL87:
 979              	.L79:
  45:src/main.cpp  **** }
 980              		.loc 2 45 2
 981              	.LBE54:
 982              	.LBE53:
 163:src/main.cpp  **** 			led_off();
 983              		.loc 2 163 4
 984              		.loc 2 163 11 is_stmt 0
 985 00de 97000000 		call	_Z7led_offv
 985      E7800000 
 986              	.LVL88:
 987 00e6 89A8     		j	.L92
 988              	.L67:
 139:src/main.cpp  **** 			sens_val = sens_get();
 989              		.loc 2 139 3 is_stmt 1
 140:src/main.cpp  **** 			if(sens_val > sens_val_border) {
 990              		.loc 2 140 4
 140:src/main.cpp  **** 			if(sens_val > sens_val_border) {
 991              		.loc 2 140 23 is_stmt 0
 992 00e8 97000000 		call	_Z8sens_getv
 992      E7800000 
 993              	.LVL89:
 141:src/main.cpp  **** 				__disable_irq();
 994              		.loc 2 141 4
 995 00f0 B7070000 		lui	a5,%hi(sens_val_border)
 996 00f4 83C70700 		lbu	a5,%lo(sens_val_border)(a5)
 140:src/main.cpp  **** 			if(sens_val > sens_val_border) {
 997              		.loc 2 140 13
 998 00f8 1375F50F 		andi	a0,a0,0xff
 999 00fc 37070000 		lui	a4,%hi(sens_val)
 1000 0100 2300A700 		sb	a0,%lo(sens_val)(a4)
 141:src/main.cpp  **** 				__disable_irq();
 1001              		.loc 2 141 4 is_stmt 1
 1002 0104 63E5A712 		bltu	a5,a0,.L93
GAS LISTING /tmp/ccAZS1OZ.s 			page 29


 151:src/main.cpp  **** 				uart1.send(msg_click_wet, sizeof(msg_click_wet) - 1);
 1003              		.loc 2 151 5
 151:src/main.cpp  **** 				uart1.send(msg_click_wet, sizeof(msg_click_wet) - 1);
 1004              		.loc 2 151 15 is_stmt 0
 1005 0108 B7070000 		lui	a5,%hi(msg_click_wet+15)
 1006 010c 9385F700 		addi	a1,a5,%lo(msg_click_wet+15)
 1007 0110 0D46     		li	a2,3
 1008 0112 97000000 		call	_Z10intToASCIIiPhh
 1008      E7800000 
 1009              	.LVL90:
 152:src/main.cpp  **** 			}
 1010              		.loc 2 152 5 is_stmt 1
 152:src/main.cpp  **** 			}
 1011              		.loc 2 152 15 is_stmt 0
 1012 011a B7070000 		lui	a5,%hi(msg_click_wet)
 1013 011e 93850700 		addi	a1,a5,%lo(msg_click_wet)
 1014 0122 B7070000 		lui	a5,%hi(uart1)
 1015 0126 0147     		li	a4,0
 1016 0128 8146     		li	a3,0
 1017 012a 4D46     		li	a2,19
 1018 012c 13850700 		addi	a0,a5,%lo(uart1)
 1019 0130 97000000 		call	_ZN4uart4sendEPhtPFvvEh
 1019      E7800000 
 1020              	.LVL91:
 154:src/main.cpp  **** 			break;
 1021              		.loc 2 154 4 is_stmt 1
 1022              	.L92:
 164:src/main.cpp  **** 			awtr_state = toSleep;
 1023              		.loc 2 164 4
 1024              		.loc 2 164 15 is_stmt 0
 1025 0138 9547     		li	a5,5
 1026 013a 2320F400 		sw	a5,%lo(awtr_state)(s0)
 165:src/main.cpp  **** 			break;
 1027              		.loc 2 165 4 is_stmt 1
 1028 013e 15B7     		j	.L63
 1029              	.L69:
 124:src/main.cpp  **** 			led_on();
 1030              		.loc 2 124 3
 125:src/main.cpp  **** 			delayT(MS_TO_TICKS(10));
 1031              		.loc 2 125 4
 125:src/main.cpp  **** 			delayT(MS_TO_TICKS(10));
 1032              		.loc 2 125 10 is_stmt 0
 1033 0140 97000000 		call	_Z6led_onv
 1033      E7800000 
 1034              	.LVL92:
 126:src/main.cpp  **** 			led_off();
 1035              		.loc 2 126 4 is_stmt 1
 1036              	.LBB55:
 1037              	.LBB56:
  39:src/main.cpp  **** 	cnt_prev = SysTick->CNT;
 1038              		.loc 2 39 2
  40:src/main.cpp  **** 	cnt_cur = SysTick->CNT;
 1039              		.loc 2 40 2
  40:src/main.cpp  **** 	cnt_cur = SysTick->CNT;
 1040              		.loc 2 40 11 is_stmt 0
 1041 0148 B7F700E0 		li	a5,-536809472
 1042 014c 9847     		lw	a4,8(a5)
GAS LISTING /tmp/ccAZS1OZ.s 			page 30


 1043              	.LVL93:
  41:src/main.cpp  **** 	while(cnt_cur < cnt_prev + val) {
 1044              		.loc 2 41 2 is_stmt 1
  41:src/main.cpp  **** 	while(cnt_cur < cnt_prev + val) {
 1045              		.loc 2 41 10 is_stmt 0
 1046 014e 9C47     		lw	a5,8(a5)
 1047              	.LVL94:
  42:src/main.cpp  **** 		cnt_cur = SysTick->CNT;
 1048              		.loc 2 42 2 is_stmt 1
  42:src/main.cpp  **** 		cnt_cur = SysTick->CNT;
 1049              		.loc 2 42 16
  42:src/main.cpp  **** 		cnt_cur = SysTick->CNT;
 1050              		.loc 2 42 27 is_stmt 0
 1051 0150 1307670E 		addi	a4,a4,230
 1052              	.LVL95:
  42:src/main.cpp  **** 		cnt_cur = SysTick->CNT;
 1053              		.loc 2 42 16
 1054 0154 63F7E700 		bgeu	a5,a4,.L70
  43:src/main.cpp  **** 	}
 1055              		.loc 2 43 11
 1056 0158 B7F600E0 		li	a3,-536809472
 1057              	.LVL96:
 1058              	.L71:
  43:src/main.cpp  **** 	}
 1059              		.loc 2 43 3 is_stmt 1
  43:src/main.cpp  **** 	}
 1060              		.loc 2 43 11 is_stmt 0
 1061 015c 9C46     		lw	a5,8(a3)
 1062              	.LVL97:
  42:src/main.cpp  **** 		cnt_cur = SysTick->CNT;
 1063              		.loc 2 42 16 is_stmt 1
 1064 015e E3EFE7FE 		bltu	a5,a4,.L71
 1065              	.LVL98:
 1066              	.L70:
  45:src/main.cpp  **** }
 1067              		.loc 2 45 2
 1068              	.LBE56:
 1069              	.LBE55:
 127:src/main.cpp  **** 			awtr_state = waiting;
 1070              		.loc 2 127 4
 127:src/main.cpp  **** 			awtr_state = waiting;
 1071              		.loc 2 127 11 is_stmt 0
 1072 0162 97000000 		call	_Z7led_offv
 1072      E7800000 
 1073              	.LVL99:
 128:src/main.cpp  **** 			break;
 1074              		.loc 2 128 4 is_stmt 1
 128:src/main.cpp  **** 			break;
 1075              		.loc 2 128 15 is_stmt 0
 1076 016a 8547     		li	a5,1
 1077 016c 2320F400 		sw	a5,%lo(awtr_state)(s0)
 129:src/main.cpp  **** 		case waiting:
 1078              		.loc 2 129 4 is_stmt 1
 1079 0170 CDBD     		j	.L63
 1080              	.L68:
 130:src/main.cpp  **** 			uint32_t cnt_prev, cnt_cur;
 1081              		.loc 2 130 3
GAS LISTING /tmp/ccAZS1OZ.s 			page 31


 131:src/main.cpp  **** 			cnt_prev = SysTick->CNT;
 1082              		.loc 2 131 4
 132:src/main.cpp  **** 			cnt_cur = SysTick->CNT;
 1083              		.loc 2 132 4
 132:src/main.cpp  **** 			cnt_cur = SysTick->CNT;
 1084              		.loc 2 132 13 is_stmt 0
 1085 0172 B7F700E0 		li	a5,-536809472
 1086 0176 9847     		lw	a4,8(a5)
 1087              	.LVL100:
 133:src/main.cpp  **** 			while(cnt_cur < cnt_prev + MS_TO_TICKS(4000) && awtr_state == waiting) {
 1088              		.loc 2 133 4 is_stmt 1
 133:src/main.cpp  **** 			while(cnt_cur < cnt_prev + MS_TO_TICKS(4000) && awtr_state == waiting) {
 1089              		.loc 2 133 12 is_stmt 0
 1090 0178 9447     		lw	a3,8(a5)
 1091              	.LVL101:
 134:src/main.cpp  **** 				cnt_cur = SysTick->CNT;
 1092              		.loc 2 134 4 is_stmt 1
 134:src/main.cpp  **** 				cnt_cur = SysTick->CNT;
 1093              		.loc 2 134 49
 134:src/main.cpp  **** 				cnt_cur = SysTick->CNT;
 1094              		.loc 2 134 29 is_stmt 0
 1095 017a D967     		li	a5,90112
 1096 017c 93870776 		addi	a5,a5,1888
 1097 0180 3E97     		add	a4,a4,a5
 1098              	.LVL102:
 134:src/main.cpp  **** 				cnt_cur = SysTick->CNT;
 1099              		.loc 2 134 49
 1100 0182 E3F0E6EE 		bgeu	a3,a4,.L63
 1101 0186 8546     		li	a3,1
 135:src/main.cpp  **** 			}
 1102              		.loc 2 135 13
 1103 0188 37F600E0 		li	a2,-536809472
 1104 018c 21A0     		j	.L74
 1105              	.L94:
 135:src/main.cpp  **** 			}
 1106              		.loc 2 135 5 is_stmt 1
 135:src/main.cpp  **** 			}
 1107              		.loc 2 135 13 is_stmt 0
 1108 018e 1C46     		lw	a5,8(a2)
 1109              	.LVL103:
 134:src/main.cpp  **** 				cnt_cur = SysTick->CNT;
 1110              		.loc 2 134 49 is_stmt 1
 1111 0190 E3F9E7EC 		bgeu	a5,a4,.L63
 1112              	.LVL104:
 1113              	.L74:
 134:src/main.cpp  **** 				cnt_cur = SysTick->CNT;
 1114              		.loc 2 134 63 is_stmt 0 discriminator 1
 1115 0194 83270400 		lw	a5,%lo(awtr_state)(s0)
 134:src/main.cpp  **** 				cnt_cur = SysTick->CNT;
 1116              		.loc 2 134 49 discriminator 1
 1117 0198 E38BD7FE 		beq	a5,a3,.L94
 1118 019c D9B5     		j	.L63
 1119              	.LVL105:
 1120              	.L64:
 166:src/main.cpp  **** 		case long_hold:
 1121              		.loc 2 166 3 is_stmt 1
 167:src/main.cpp  **** 			uart1.print("Measurement cycle, click button for exit\n");
GAS LISTING /tmp/ccAZS1OZ.s 			page 32


 1122              		.loc 2 167 4
 1123              		.loc 2 167 15 is_stmt 0
 1124 019e B7070000 		lui	a5,%hi(.LC1)
 1125 01a2 93850700 		addi	a1,a5,%lo(.LC1)
 1126 01a6 B7070000 		lui	a5,%hi(uart1)
 1127 01aa 13850700 		addi	a0,a5,%lo(uart1)
 1128 01ae 97000000 		call	_ZN4uart5printEPKc
 1128      E7800000 
 1129              	.LVL106:
 168:src/main.cpp  **** 			while(awtr_state == long_hold) {
 1130              		.loc 2 168 4 is_stmt 1
 1131              		.loc 2 168 21
 1132 01b6 83270400 		lw	a5,%lo(awtr_state)(s0)
 1133 01ba E39497EA 		bne	a5,s1,.L63
 1134              	.LBB57:
 1135              	.LBB58:
  42:src/main.cpp  **** 		cnt_cur = SysTick->CNT;
 1136              		.loc 2 42 27 is_stmt 0
 1137 01be 9967     		li	a5,24576
 1138 01c0 9387879D 		addi	a5,a5,-1576
 1139 01c4 3EC0     		sw	a5,0(sp)
 1140              	.L83:
 1141              	.LBE58:
 1142              	.LBE57:
 169:src/main.cpp  **** 				sens_val = sens_get();
 1143              		.loc 2 169 5 is_stmt 1
 1144              		.loc 2 169 24 is_stmt 0
 1145 01c6 97000000 		call	_Z8sens_getv
 1145      E7800000 
 1146              	.LVL107:
 170:src/main.cpp  **** 				intToASCII(sens_val, msg_lhold + 14, 3);
 1147              		.loc 2 170 15
 1148 01ce B7070000 		lui	a5,%hi(msg_lhold+14)
 169:src/main.cpp  **** 				sens_val = sens_get();
 1149              		.loc 2 169 14
 1150 01d2 1375F50F 		andi	a0,a0,0xff
 1151              		.loc 2 170 15
 1152 01d6 9385E700 		addi	a1,a5,%lo(msg_lhold+14)
 1153 01da 0D46     		li	a2,3
 169:src/main.cpp  **** 				sens_val = sens_get();
 1154              		.loc 2 169 14
 1155 01dc B7070000 		lui	a5,%hi(sens_val)
 1156 01e0 2380A700 		sb	a0,%lo(sens_val)(a5)
 1157              		.loc 2 170 5 is_stmt 1
 1158              		.loc 2 170 15 is_stmt 0
 1159 01e4 97000000 		call	_Z10intToASCIIiPhh
 1159      E7800000 
 1160              	.LVL108:
 171:src/main.cpp  **** 				uart1.send(msg_lhold, sizeof(msg_lhold) - 1);
 1161              		.loc 2 171 5 is_stmt 1
 1162              		.loc 2 171 15 is_stmt 0
 1163 01ec B7070000 		lui	a5,%hi(msg_lhold)
 1164 01f0 93850700 		addi	a1,a5,%lo(msg_lhold)
 1165 01f4 B7070000 		lui	a5,%hi(uart1)
 1166 01f8 0147     		li	a4,0
 1167 01fa 8146     		li	a3,0
 1168 01fc 13850700 		addi	a0,a5,%lo(uart1)
GAS LISTING /tmp/ccAZS1OZ.s 			page 33


 1169 0200 4946     		li	a2,18
 1170 0202 97000000 		call	_ZN4uart4sendEPhtPFvvEh
 1170      E7800000 
 1171              	.LVL109:
 172:src/main.cpp  **** 				delayT(MS_TO_TICKS(1000));
 1172              		.loc 2 172 5 is_stmt 1
 1173              	.LBB60:
 1174              	.LBB59:
  39:src/main.cpp  **** 	cnt_prev = SysTick->CNT;
 1175              		.loc 2 39 2
  40:src/main.cpp  **** 	cnt_cur = SysTick->CNT;
 1176              		.loc 2 40 2
  40:src/main.cpp  **** 	cnt_cur = SysTick->CNT;
 1177              		.loc 2 40 11 is_stmt 0
 1178 020a B7F700E0 		li	a5,-536809472
 1179 020e 9847     		lw	a4,8(a5)
 1180              	.LVL110:
  41:src/main.cpp  **** 	while(cnt_cur < cnt_prev + val) {
 1181              		.loc 2 41 2 is_stmt 1
  42:src/main.cpp  **** 		cnt_cur = SysTick->CNT;
 1182              		.loc 2 42 27 is_stmt 0
 1183 0210 8246     		lw	a3,0(sp)
  41:src/main.cpp  **** 	while(cnt_cur < cnt_prev + val) {
 1184              		.loc 2 41 10
 1185 0212 9C47     		lw	a5,8(a5)
 1186              	.LVL111:
  42:src/main.cpp  **** 		cnt_cur = SysTick->CNT;
 1187              		.loc 2 42 2 is_stmt 1
  42:src/main.cpp  **** 		cnt_cur = SysTick->CNT;
 1188              		.loc 2 42 16
  42:src/main.cpp  **** 		cnt_cur = SysTick->CNT;
 1189              		.loc 2 42 27 is_stmt 0
 1190 0214 3697     		add	a4,a4,a3
 1191              	.LVL112:
  42:src/main.cpp  **** 		cnt_cur = SysTick->CNT;
 1192              		.loc 2 42 16
 1193 0216 63F7E700 		bgeu	a5,a4,.L81
  43:src/main.cpp  **** 	}
 1194              		.loc 2 43 11
 1195 021a B7F600E0 		li	a3,-536809472
 1196              	.LVL113:
 1197              	.L82:
  43:src/main.cpp  **** 	}
 1198              		.loc 2 43 3 is_stmt 1
  43:src/main.cpp  **** 	}
 1199              		.loc 2 43 11 is_stmt 0
 1200 021e 9C46     		lw	a5,8(a3)
 1201              	.LVL114:
  42:src/main.cpp  **** 		cnt_cur = SysTick->CNT;
 1202              		.loc 2 42 16 is_stmt 1
 1203 0220 E3EFE7FE 		bltu	a5,a4,.L82
 1204              	.LVL115:
 1205              	.L81:
 1206              	.LBE59:
 1207              	.LBE60:
 168:src/main.cpp  **** 				sens_val = sens_get();
 1208              		.loc 2 168 21
GAS LISTING /tmp/ccAZS1OZ.s 			page 34


 1209 0224 83270400 		lw	a5,%lo(awtr_state)(s0)
 1210 0228 E38F97F8 		beq	a5,s1,.L83
 1211 022c 1DBD     		j	.L63
 1212              	.L93:
 142:src/main.cpp  **** 				pump_on();
 1213              		.loc 2 142 5
 1214              	.LBB61:
 1215              	.LBB62:
 158:src/core/core_riscv.h **** 
 1216              		.loc 3 158 3
 160:src/core/core_riscv.h ****   result &= ~0x88;
 1217              		.loc 3 160 3
 1218              	 #APP
 1219              	# 160 "src/core/core_riscv.h" 1
 1220              		csrr a5,mstatus
 1221              	# 0 "" 2
 1222              	.LVL116:
 161:src/core/core_riscv.h ****   __asm volatile ("csrw mstatus, %0" : : "r" (result) );
 1223              		.loc 3 161 3
 162:src/core/core_riscv.h **** }
 1224              		.loc 3 162 3
 161:src/core/core_riscv.h ****   __asm volatile ("csrw mstatus, %0" : : "r" (result) );
 1225              		.loc 3 161 10 is_stmt 0
 1226              	 #NO_APP
 1227 0232 93F777F7 		andi	a5,a5,-137
 1228              	.LVL117:
 162:src/core/core_riscv.h **** }
 1229              		.loc 3 162 3
 1230              	 #APP
 1231              	# 162 "src/core/core_riscv.h" 1
 1232              		csrw mstatus, a5
 1233              	# 0 "" 2
 1234              	.LVL118:
 1235              	 #NO_APP
 1236              	.LBE62:
 1237              	.LBE61:
 143:src/main.cpp  **** 				delayT(MS_TO_TICKS(AWTR_WATERING_TIME));
 1238              		.loc 2 143 5 is_stmt 1
 143:src/main.cpp  **** 				delayT(MS_TO_TICKS(AWTR_WATERING_TIME));
 1239              		.loc 2 143 12 is_stmt 0
 1240 023a 97000000 		call	_Z7pump_onv
 1240      E7800000 
 1241              	.LVL119:
 144:src/main.cpp  **** 				pump_off();
 1242              		.loc 2 144 5 is_stmt 1
 1243              	.LBB63:
 1244              	.LBB64:
  39:src/main.cpp  **** 	cnt_prev = SysTick->CNT;
 1245              		.loc 2 39 2
  40:src/main.cpp  **** 	cnt_cur = SysTick->CNT;
 1246              		.loc 2 40 2
  40:src/main.cpp  **** 	cnt_cur = SysTick->CNT;
 1247              		.loc 2 40 11 is_stmt 0
 1248 0242 B7F700E0 		li	a5,-536809472
 1249 0246 9847     		lw	a4,8(a5)
 1250              	.LVL120:
  41:src/main.cpp  **** 	while(cnt_cur < cnt_prev + val) {
GAS LISTING /tmp/ccAZS1OZ.s 			page 35


 1251              		.loc 2 41 2 is_stmt 1
  41:src/main.cpp  **** 	while(cnt_cur < cnt_prev + val) {
 1252              		.loc 2 41 10 is_stmt 0
 1253 0248 9447     		lw	a3,8(a5)
 1254              	.LVL121:
  42:src/main.cpp  **** 		cnt_cur = SysTick->CNT;
 1255              		.loc 2 42 2 is_stmt 1
  42:src/main.cpp  **** 		cnt_cur = SysTick->CNT;
 1256              		.loc 2 42 16
  42:src/main.cpp  **** 		cnt_cur = SysTick->CNT;
 1257              		.loc 2 42 27 is_stmt 0
 1258 024a AD67     		li	a5,45056
 1259 024c 9387073B 		addi	a5,a5,944
 1260 0250 3E97     		add	a4,a4,a5
 1261              	.LVL122:
  42:src/main.cpp  **** 		cnt_cur = SysTick->CNT;
 1262              		.loc 2 42 16
 1263 0252 63F7E600 		bgeu	a3,a4,.L76
  43:src/main.cpp  **** 	}
 1264              		.loc 2 43 11
 1265 0256 B7F600E0 		li	a3,-536809472
 1266              	.LVL123:
 1267              	.L77:
  43:src/main.cpp  **** 	}
 1268              		.loc 2 43 3 is_stmt 1
  43:src/main.cpp  **** 	}
 1269              		.loc 2 43 11 is_stmt 0
 1270 025a 9C46     		lw	a5,8(a3)
 1271              	.LVL124:
  42:src/main.cpp  **** 		cnt_cur = SysTick->CNT;
 1272              		.loc 2 42 16 is_stmt 1
 1273 025c E3EFE7FE 		bltu	a5,a4,.L77
 1274              	.LVL125:
 1275              	.L76:
  45:src/main.cpp  **** }
 1276              		.loc 2 45 2
 1277              	.LBE64:
 1278              	.LBE63:
 145:src/main.cpp  **** 				__enable_irq();
 1279              		.loc 2 145 5
 145:src/main.cpp  **** 				__enable_irq();
 1280              		.loc 2 145 13 is_stmt 0
 1281 0260 97000000 		call	_Z8pump_offv
 1281      E7800000 
 1282              	.LVL126:
 146:src/main.cpp  **** 				intToASCII(sens_val, msg_click_dry + 15, 3);
 1283              		.loc 2 146 5 is_stmt 1
 1284              	.LBB65:
 1285              	.LBB66:
 142:src/core/core_riscv.h **** 
 1286              		.loc 3 142 3
 144:src/core/core_riscv.h ****   result |= 0x88;
 1287              		.loc 3 144 3
 1288              	 #APP
 1289              	# 144 "src/core/core_riscv.h" 1
 1290              		csrr a5,mstatus
 1291              	# 0 "" 2
GAS LISTING /tmp/ccAZS1OZ.s 			page 36


 1292              	.LVL127:
 145:src/core/core_riscv.h ****   __asm volatile ("csrw mstatus, %0" : : "r" (result) );
 1293              		.loc 3 145 3
 146:src/core/core_riscv.h **** }
 1294              		.loc 3 146 3
 145:src/core/core_riscv.h ****   __asm volatile ("csrw mstatus, %0" : : "r" (result) );
 1295              		.loc 3 145 10 is_stmt 0
 1296              	 #NO_APP
 1297 026c 93E78708 		ori	a5,a5,136
 1298              	.LVL128:
 146:src/core/core_riscv.h **** }
 1299              		.loc 3 146 3
 1300              	 #APP
 1301              	# 146 "src/core/core_riscv.h" 1
 1302              		csrw mstatus, a5
 1303              	# 0 "" 2
 1304              	.LVL129:
 1305              	 #NO_APP
 1306              	.LBE66:
 1307              	.LBE65:
 147:src/main.cpp  **** 				uart1.send(msg_click_dry, sizeof(msg_click_dry) - 1);
 1308              		.loc 2 147 5 is_stmt 1
 147:src/main.cpp  **** 				uart1.send(msg_click_dry, sizeof(msg_click_dry) - 1);
 1309              		.loc 2 147 15 is_stmt 0
 1310 0274 B7070000 		lui	a5,%hi(sens_val)
 1311 0278 03C50700 		lbu	a0,%lo(sens_val)(a5)
 1312 027c B7070000 		lui	a5,%hi(msg_click_dry+15)
 1313 0280 9385F700 		addi	a1,a5,%lo(msg_click_dry+15)
 1314 0284 0D46     		li	a2,3
 1315 0286 97000000 		call	_Z10intToASCIIiPhh
 1315      E7800000 
 1316              	.LVL130:
 148:src/main.cpp  **** 			}
 1317              		.loc 2 148 5 is_stmt 1
 148:src/main.cpp  **** 			}
 1318              		.loc 2 148 15 is_stmt 0
 1319 028e B7070000 		lui	a5,%hi(msg_click_dry)
 1320 0292 93850700 		addi	a1,a5,%lo(msg_click_dry)
 1321 0296 B7070000 		lui	a5,%hi(uart1)
 1322 029a 0147     		li	a4,0
 1323 029c 8146     		li	a3,0
 1324 029e 4D46     		li	a2,19
 1325 02a0 13850700 		addi	a0,a5,%lo(uart1)
 1326 02a4 97000000 		call	_ZN4uart4sendEPhtPFvvEh
 1326      E7800000 
 1327              	.LVL131:
 1328 02ac 71B5     		j	.L92
 1329              	.LBE52:
 1330              	.LBE67:
 1331              		.cfi_endproc
 1332              	.LFE23:
 1334              		.section	.text.USART1_IRQHandler,"ax",@progbits
 1335              		.align	1
 1336              		.globl	USART1_IRQHandler
 1338              	USART1_IRQHandler:
 1339              	.LFB24:
 173:src/main.cpp  **** 			}
GAS LISTING /tmp/ccAZS1OZ.s 			page 37


 174:src/main.cpp  **** 			break;
 175:src/main.cpp  **** 
 176:src/main.cpp  **** 		case toSleep:
 177:src/main.cpp  **** 			// uart1.sync();
 178:src/main.cpp  **** 			break;
 179:src/main.cpp  **** 		}
 180:src/main.cpp  **** 	}
 181:src/main.cpp  **** 	return 0;
 182:src/main.cpp  **** }
 183:src/main.cpp  **** 
 184:src/main.cpp  **** /* Interrupts */
 185:src/main.cpp  **** extern "C"{
 186:src/main.cpp  **** __attribute((interrupt("WCH-Interrupt-fast")))
 187:src/main.cpp  **** void USART1_IRQHandler(void) {
 1340              		.loc 2 187 30 is_stmt 1
 1341              		.cfi_startproc
 188:src/main.cpp  ****     uart1.interruptHandler();
 1342              		.loc 2 188 5
 1343              		.loc 2 188 27 is_stmt 0
 1344 0000 37050000 		lui	a0,%hi(uart1)
 1345 0004 13050500 		addi	a0,a0,%lo(uart1)
 1346 0008 97000000 		call	_ZN4uart16interruptHandlerEv
 1346      E7800000 
 1347              	.LVL132:
 189:src/main.cpp  **** }
 1348              		.loc 2 189 1
 1349 0010 73002030 		mret
 1350              		.cfi_endproc
 1351              	.LFE24:
 1353              		.section	.rodata.SysTick_IRQHandler.str1.4,"aMS",@progbits,1
 1354              		.align	2
 1355              	.LC2:
 1356 0000 54696D65 		.string	"Timer update\n"
 1356      72207570 
 1356      64617465 
 1356      0A00
 1357              		.section	.text.SysTick_IRQHandler,"ax",@progbits
 1358              		.align	1
 1359              		.globl	SysTick_IRQHandler
 1361              	SysTick_IRQHandler:
 1362              	.LFB25:
 190:src/main.cpp  **** 
 191:src/main.cpp  **** __attribute((interrupt("WCH-Interrupt-fast")))
 192:src/main.cpp  **** void SysTick_IRQHandler(void) {
 1363              		.loc 2 192 31 is_stmt 1
 1364              		.cfi_startproc
 193:src/main.cpp  **** 	SysTick->SR = 0;
 1365              		.loc 2 193 2
 1366              		.loc 2 193 14 is_stmt 0
 1367 0000 B7F700E0 		li	a5,-536809472
 194:src/main.cpp  **** 	uart1.print("Timer update\n");
 1368              		.loc 2 194 13
 1369 0004 B7050000 		lui	a1,%hi(.LC2)
 1370 0008 37050000 		lui	a0,%hi(uart1)
 193:src/main.cpp  **** 	SysTick->SR = 0;
 1371              		.loc 2 193 14
 1372 000c 23A20700 		sw	zero,4(a5)
GAS LISTING /tmp/ccAZS1OZ.s 			page 38


 1373              		.loc 2 194 2 is_stmt 1
 1374              		.loc 2 194 13 is_stmt 0
 1375 0010 93850500 		addi	a1,a1,%lo(.LC2)
 1376 0014 13050500 		addi	a0,a0,%lo(uart1)
 1377 0018 97000000 		call	_ZN4uart5printEPKc
 1377      E7800000 
 1378              	.LVL133:
 195:src/main.cpp  **** 	awtr_state = blink;
 1379              		.loc 2 195 2 is_stmt 1
 1380              		.loc 2 195 13 is_stmt 0
 1381 0020 B7070000 		lui	a5,%hi(awtr_state)
 1382 0024 23A00700 		sw	zero,%lo(awtr_state)(a5)
 196:src/main.cpp  **** 	return;
 1383              		.loc 2 196 2 is_stmt 1
 197:src/main.cpp  **** }
 1384              		.loc 2 197 1 is_stmt 0
 1385 0028 73002030 		mret
 1386              		.cfi_endproc
 1387              	.LFE25:
 1389              		.section	.rodata.EXTI7_0_IRQHandler.str1.4,"aMS",@progbits,1
 1390              		.align	2
 1391              	.LC3:
 1392 0000 62757474 		.string	"button was pressed\n"
 1392      6F6E2077 
 1392      61732070 
 1392      72657373 
 1392      65640A00 
 1393              		.align	2
 1394              	.LC4:
 1395 0014 62757474 		.string	"button was released\n"
 1395      6F6E2077 
 1395      61732072 
 1395      656C6561 
 1395      7365640A 
 1396              		.section	.text.EXTI7_0_IRQHandler,"ax",@progbits
 1397              		.align	1
 1398              		.globl	EXTI7_0_IRQHandler
 1400              	EXTI7_0_IRQHandler:
 1401              	.LFB26:
 198:src/main.cpp  **** 
 199:src/main.cpp  **** __attribute((interrupt("WCH-Interrupt-fast")))
 200:src/main.cpp  **** void EXTI7_0_IRQHandler(void) {
 1402              		.loc 2 200 31 is_stmt 1
 1403              		.cfi_startproc
 201:src/main.cpp  **** 	EXTI->INTFR |= 1 << btn_pin;
 1404              		.loc 2 201 2
 1405              		.loc 2 201 8 is_stmt 0
 1406 0000 B7070140 		li	a5,1073807360
 1407 0004 03A74741 		lw	a4,1044(a5)
 1408              		.loc 2 201 14
 1409 0008 13670701 		ori	a4,a4,16
 1410 000c 23AAE740 		sw	a4,1044(a5)
 202:src/main.cpp  **** 	static uint32_t wait;
 1411              		.loc 2 202 2 is_stmt 1
 203:src/main.cpp  **** 
 204:src/main.cpp  **** 	static uint8_t btn_state_last = 0;
 1412              		.loc 2 204 2
GAS LISTING /tmp/ccAZS1OZ.s 			page 39


 205:src/main.cpp  **** 	uint8_t btn_state_new = btn_state();
 1413              		.loc 2 205 2
 1414              		.loc 2 205 35 is_stmt 0
 1415 0010 97000000 		call	_Z9btn_statev
 1415      E7800000 
 1416              	.LVL134:
 206:src/main.cpp  **** 	if(btn_state_new == btn_state_last) {
 1417              		.loc 2 206 19
 1418 0018 B7070000 		lui	a5,%hi(_ZZ18EXTI7_0_IRQHandlerE14btn_state_last)
 1419              		.loc 2 206 2
 1420 001c 03C70700 		lbu	a4,%lo(_ZZ18EXTI7_0_IRQHandlerE14btn_state_last)(a5)
 1421              	.LVL135:
 1422              		.loc 2 206 2 is_stmt 1
 1423 0020 630CA702 		beq	a4,a0,.L97
 207:src/main.cpp  **** 		return;
 208:src/main.cpp  **** 	}
 209:src/main.cpp  **** 	btn_state_last = btn_state_new;
 1424              		.loc 2 209 2
 1425              		.loc 2 209 17 is_stmt 0
 1426 0024 2380A700 		sb	a0,%lo(_ZZ18EXTI7_0_IRQHandlerE14btn_state_last)(a5)
 210:src/main.cpp  **** 
 211:src/main.cpp  **** 	if(btn_state_new) {
 1427              		.loc 2 211 2 is_stmt 1
 1428 0028 15C9     		beq	a0,zero,.L99
 212:src/main.cpp  **** 		uart1.print("button was pressed\n");
 1429              		.loc 2 212 3
 1430              		.loc 2 212 14 is_stmt 0
 1431 002a B7050000 		lui	a1,%hi(.LC3)
 1432 002e 37050000 		lui	a0,%hi(uart1)
 1433              	.LVL136:
 1434 0032 93850500 		addi	a1,a1,%lo(.LC3)
 1435 0036 13050500 		addi	a0,a0,%lo(uart1)
 1436 003a 97000000 		call	_ZN4uart5printEPKc
 1436      E7800000 
 1437              	.LVL137:
 213:src/main.cpp  **** 		awtr_state = blink;
 1438              		.loc 2 213 3 is_stmt 1
 1439              		.loc 2 213 14 is_stmt 0
 1440 0042 B7070000 		lui	a5,%hi(awtr_state)
 1441 0046 23A00700 		sw	zero,%lo(awtr_state)(a5)
 214:src/main.cpp  **** 		wait = SysTick->CNT;
 1442              		.loc 2 214 3 is_stmt 1
 1443              		.loc 2 214 19 is_stmt 0
 1444 004a B7F700E0 		li	a5,-536809472
 1445 004e 9847     		lw	a4,8(a5)
 1446              		.loc 2 214 8
 1447 0050 B7070000 		lui	a5,%hi(_ZZ18EXTI7_0_IRQHandlerE4wait)
 1448 0054 23A0E700 		sw	a4,%lo(_ZZ18EXTI7_0_IRQHandlerE4wait)(a5)
 1449              	.L97:
 215:src/main.cpp  **** 	}
 216:src/main.cpp  **** 	else {
 217:src/main.cpp  **** 		uart1.print("button was released\n");
 218:src/main.cpp  **** 		wait = SysTick->CNT - wait;
 219:src/main.cpp  **** 		if(wait < MS_TO_TICKS(10)) {
 220:src/main.cpp  **** 			awtr_state = toSleep;
 221:src/main.cpp  **** 		}
 222:src/main.cpp  **** 		else if(wait < MS_TO_TICKS(700)) {
GAS LISTING /tmp/ccAZS1OZ.s 			page 40


 223:src/main.cpp  **** 			awtr_state = click;
 224:src/main.cpp  **** 		}
 225:src/main.cpp  **** 		else if(wait < MS_TO_TICKS(3000)) {
 226:src/main.cpp  **** 			awtr_state = hold;
 227:src/main.cpp  **** 		}
 228:src/main.cpp  **** 		else {
 229:src/main.cpp  **** 			awtr_state = long_hold;
 230:src/main.cpp  **** 		}
 231:src/main.cpp  **** 	}
 232:src/main.cpp  **** 	return;
 233:src/main.cpp  **** }
 1450              		.loc 2 233 1
 1451 0058 73002030 		mret
 1452              	.LVL138:
 1453              	.L99:
 217:src/main.cpp  **** 		wait = SysTick->CNT - wait;
 1454              		.loc 2 217 3 is_stmt 1
 217:src/main.cpp  **** 		wait = SysTick->CNT - wait;
 1455              		.loc 2 217 14 is_stmt 0
 1456 005c B7050000 		lui	a1,%hi(.LC4)
 1457 0060 37050000 		lui	a0,%hi(uart1)
 1458              	.LVL139:
 1459 0064 93850500 		addi	a1,a1,%lo(.LC4)
 1460 0068 13050500 		addi	a0,a0,%lo(uart1)
 1461 006c 97000000 		call	_ZN4uart5printEPKc
 1461      E7800000 
 1462              	.LVL140:
 218:src/main.cpp  **** 		if(wait < MS_TO_TICKS(10)) {
 1463              		.loc 2 218 3 is_stmt 1
 218:src/main.cpp  **** 		if(wait < MS_TO_TICKS(10)) {
 1464              		.loc 2 218 23 is_stmt 0
 1465 0074 37070000 		lui	a4,%hi(_ZZ18EXTI7_0_IRQHandlerE4wait)
 218:src/main.cpp  **** 		if(wait < MS_TO_TICKS(10)) {
 1466              		.loc 2 218 19
 1467 0078 B7F700E0 		li	a5,-536809472
 1468 007c 9C47     		lw	a5,8(a5)
 218:src/main.cpp  **** 		if(wait < MS_TO_TICKS(10)) {
 1469              		.loc 2 218 23
 1470 007e 03260700 		lw	a2,%lo(_ZZ18EXTI7_0_IRQHandlerE4wait)(a4)
 219:src/main.cpp  **** 			awtr_state = toSleep;
 1471              		.loc 2 219 3
 1472 0082 9306500E 		li	a3,229
 218:src/main.cpp  **** 		if(wait < MS_TO_TICKS(10)) {
 1473              		.loc 2 218 23
 1474 0086 918F     		sub	a5,a5,a2
 218:src/main.cpp  **** 		if(wait < MS_TO_TICKS(10)) {
 1475              		.loc 2 218 8
 1476 0088 2320F700 		sw	a5,%lo(_ZZ18EXTI7_0_IRQHandlerE4wait)(a4)
 219:src/main.cpp  **** 			awtr_state = toSleep;
 1477              		.loc 2 219 3 is_stmt 1
 1478 008c 63FEF600 		bleu	a5,a3,.L103
 222:src/main.cpp  **** 			awtr_state = click;
 1479              		.loc 2 222 8
 1480 0090 1167     		li	a4,16384
 1481 0092 130737EE 		addi	a4,a4,-285
 1482 0096 6360F702 		bgtu	a5,a4,.L101
 223:src/main.cpp  **** 		}
GAS LISTING /tmp/ccAZS1OZ.s 			page 41


 1483              		.loc 2 223 4
 223:src/main.cpp  **** 		}
 1484              		.loc 2 223 15 is_stmt 0
 1485 009a B7070000 		lui	a5,%hi(awtr_state)
 1486 009e 0947     		li	a4,2
 1487 00a0 23A0E700 		sw	a4,%lo(awtr_state)(a5)
 1488              		.loc 2 233 1
 1489 00a4 73002030 		mret
 1490              	.L103:
 220:src/main.cpp  **** 		}
 1491              		.loc 2 220 4 is_stmt 1
 220:src/main.cpp  **** 		}
 1492              		.loc 2 220 15 is_stmt 0
 1493 00a8 B7070000 		lui	a5,%hi(awtr_state)
 1494 00ac 1547     		li	a4,5
 1495 00ae 23A0E700 		sw	a4,%lo(awtr_state)(a5)
 1496              		.loc 2 233 1
 1497 00b2 73002030 		mret
 1498              	.L101:
 225:src/main.cpp  **** 			awtr_state = hold;
 1499              		.loc 2 225 8 is_stmt 1
 1500 00b6 4567     		li	a4,69632
 1501 00b8 130777D8 		addi	a4,a4,-633
 1502 00bc 6369F700 		bgtu	a5,a4,.L102
 226:src/main.cpp  **** 		}
 1503              		.loc 2 226 4
 226:src/main.cpp  **** 		}
 1504              		.loc 2 226 15 is_stmt 0
 1505 00c0 B7070000 		lui	a5,%hi(awtr_state)
 1506 00c4 0D47     		li	a4,3
 1507 00c6 23A0E700 		sw	a4,%lo(awtr_state)(a5)
 1508              		.loc 2 233 1
 1509 00ca 73002030 		mret
 1510              	.L102:
 229:src/main.cpp  **** 		}
 1511              		.loc 2 229 4 is_stmt 1
 229:src/main.cpp  **** 		}
 1512              		.loc 2 229 15 is_stmt 0
 1513 00ce B7070000 		lui	a5,%hi(awtr_state)
 1514 00d2 1147     		li	a4,4
 1515 00d4 23A0E700 		sw	a4,%lo(awtr_state)(a5)
 1516              		.loc 2 233 1
 1517 00d8 73002030 		mret
 1518              		.cfi_endproc
 1519              	.LFE26:
 1521              		.section	.text.HardFault_Handler,"ax",@progbits
 1522              		.align	1
 1523              		.globl	HardFault_Handler
 1525              	HardFault_Handler:
 1526              	.LFB27:
 234:src/main.cpp  **** 
 235:src/main.cpp  **** __attribute((interrupt("WCH-Interrupt-fast")))
 236:src/main.cpp  **** void HardFault_Handler(void) {
 1527              		.loc 2 236 30 is_stmt 1
 1528              		.cfi_startproc
 237:src/main.cpp  **** 	led_on();
 1529              		.loc 2 237 2
GAS LISTING /tmp/ccAZS1OZ.s 			page 42


 1530              		.loc 2 237 8 is_stmt 0
 1531 0000 97000000 		call	_Z6led_onv
 1531      E7800000 
 1532              	.LVL141:
 1533              	.L105:
 238:src/main.cpp  **** 	while(1) {;}
 1534              		.loc 2 238 2 is_stmt 1 discriminator 1
 1535              		.loc 2 238 2 discriminator 1
 1536              		.loc 2 238 2 discriminator 1
 1537              		.loc 2 238 2 discriminator 1
 1538 0008 01A0     		j	.L105
 1539              		.cfi_endproc
 1540              	.LFE27:
 1542              		.section	.text.startup._GLOBAL__sub_I__Z10hexToASCIIPKhhPh,"ax",@progbits
 1543              		.align	1
 1545              	_GLOBAL__sub_I__Z10hexToASCIIPKhhPh:
 1546              	.LFB29:
 239:src/main.cpp  **** }
 240:src/main.cpp  **** }...
 1547              		.loc 2 240 1
 1548              		.cfi_startproc
 1549              	.LVL142:
 1550              	.LBB70:
 1551              	.LBB71:
  31:src/main.cpp  **** uart uart1(USART1, UART_BAUDRATE, F_HBCLK);
 1552              		.loc 2 31 42 is_stmt 0
 1553 0000 B7E60200 		li	a3,188416
 1554 0004 0566     		li	a2,4096
 1555 0006 B7450140 		li	a1,1073823744
 1556 000a 37050000 		lui	a0,%hi(uart1)
 1557 000e 8147     		li	a5,0
 1558 0010 0147     		li	a4,0
 1559 0012 9386C6C6 		addi	a3,a3,-916
 1560 0016 1306062C 		addi	a2,a2,704
 1561 001a 93850580 		addi	a1,a1,-2048
 1562 001e 13050500 		addi	a0,a0,%lo(uart1)
 1563 0022 17030000 		tail	_ZN4uartC1EP13USART_TypeDefii9u_stopbit9u_wordlen
 1563      67000300 
 1564              	.LVL143:
 1565              	.LBE71:
 1566              	.LBE70:
 1567              		.cfi_endproc
 1568              	.LFE29:
 1570              		.section	.init_array,"aw"
 1571              		.align	2
 1572 0000 00000000 		.word	_GLOBAL__sub_I__Z10hexToASCIIPKhhPh
 1573              		.section	.sbss._ZZ18EXTI7_0_IRQHandlerE14btn_state_last,"aw",@nobits
 1576              	_ZZ18EXTI7_0_IRQHandlerE14btn_state_last:
 1577 0000 00       		.zero	1
 1578              		.section	.sbss._ZZ18EXTI7_0_IRQHandlerE4wait,"aw",@nobits
 1579              		.align	2
 1582              	_ZZ18EXTI7_0_IRQHandlerE4wait:
 1583 0000 00000000 		.zero	4
 1584              		.globl	msg_lhold
 1585              		.section	.data.msg_lhold,"aw"
 1586              		.align	2
 1589              	msg_lhold:
GAS LISTING /tmp/ccAZS1OZ.s 			page 43


 1590 0000 53656E73 		.string	"Sensor value: XXX\n"
 1590      6F722076 
 1590      616C7565 
 1590      3A205858 
 1590      580A00
 1591              		.globl	msg_hold
 1592              		.section	.data.msg_hold,"aw"
 1593              		.align	2
 1596              	msg_hold:
 1597 0000 4E657720 		.string	"New sens border: XXX\n"
 1597      73656E73 
 1597      20626F72 
 1597      6465723A 
 1597      20585858 
 1598              		.globl	msg_click_wet
 1599              		.section	.data.msg_click_wet,"aw"
 1600              		.align	2
 1603              	msg_click_wet:
 1604 0000 47726F75 		.string	"Ground is wet: XXX\n"
 1604      6E642069 
 1604      73207765 
 1604      743A2058 
 1604      58580A00 
 1605              		.globl	msg_click_dry
 1606              		.section	.data.msg_click_dry,"aw"
 1607              		.align	2
 1610              	msg_click_dry:
 1611 0000 47726F75 		.string	"Ground is dry: XXX\n"
 1611      6E642069 
 1611      73206472 
 1611      793A2058 
 1611      58580A00 
 1612              		.globl	uart1
 1613              		.section	.bss.uart1,"aw",@nobits
 1614              		.align	2
 1617              	uart1:
 1618 0000 00000000 		.zero	220
 1618      00000000 
 1618      00000000 
 1618      00000000 
 1618      00000000 
 1619              		.globl	sens_val_border
 1620              		.section	.sdata.sens_val_border,"aw"
 1623              	sens_val_border:
 1624 0000 32       		.byte	50
 1625              		.globl	sens_val
 1626              		.section	.sbss.sens_val,"aw",@nobits
 1629              	sens_val:
 1630 0000 00       		.zero	1
 1631              		.globl	awtr_state
 1632              		.section	.sdata.awtr_state,"aw"
 1633              		.align	2
 1636              	awtr_state:
 1637 0000 02000000 		.word	2
 1638              		.text
 1639              	.Letext0:
 1640              		.file 4 "src/core/ch32v00x.h"
GAS LISTING /tmp/ccAZS1OZ.s 			page 44


 1641              		.file 5 "/opt/MRS_toolchain/riscv-wch-elf/include/machine/_default_types.h"
 1642              		.file 6 "/opt/MRS_toolchain/riscv-wch-elf/include/sys/_stdint.h"
 1643              		.file 7 "src/uart/uart.h"
 1644              		.file 8 "src/GPIO.h"
GAS LISTING /tmp/ccAZS1OZ.s 			page 45

