GAS LISTING /tmp/ccbRLEvi.s 			page 1


   1              		.file	"main.cpp"
   2              		.option nopic
   3              		.attribute arch, "rv32e1p9_c2p0_zicsr"
   4              		.attribute unaligned_access, 0
   5              		.attribute stack_align, 4
   6              		.text
   7              	.Ltext0:
   8              		.file 0 "/home/ignat/projects/AutoWatering" "src/main.cpp"
   9              		.section	.text._Z10hexToASCIIPKhhPh,"ax",@progbits
  10              		.align	1
  11              		.globl	_Z10hexToASCIIPKhhPh
  13              	_Z10hexToASCIIPKhhPh:
  14              	.LFB15:
  15              		.file 1 "src/ASCII_fun.h"
   1:src/ASCII_fun.h **** #ifndef ASCII_FUN_H_
   2:src/ASCII_fun.h **** #define ASCII_FUN_H_
   3:src/ASCII_fun.h **** 
   4:src/ASCII_fun.h **** #include <stdint.h>
   5:src/ASCII_fun.h **** 
   6:src/ASCII_fun.h **** 
   7:src/ASCII_fun.h **** void hexToASCII(const uint8_t *data, uint8_t size, uint8_t *str) {
  16              		.loc 1 7 66
  17              		.cfi_startproc
  18              	.LVL0:
   8:src/ASCII_fun.h ****     uint8_t chr;
  19              		.loc 1 8 5
   9:src/ASCII_fun.h ****     for(int i = 0; i < size; i ++) {
  20              		.loc 1 9 5
  21              	.LBB36:
  22              		.loc 1 9 22
  23 0000 0506     		addi	a2,a2,1
  24              	.LVL1:
  25 0002 3303B500 		add	t1,a0,a1
  10:src/ASCII_fun.h ****         chr = data[i] >> 4;
  11:src/ASCII_fun.h ****         if(chr < 10)
  26              		.loc 1 11 9 is_stmt 0
  27 0006 A546     		li	a3,9
   9:src/ASCII_fun.h ****     for(int i = 0; i < size; i ++) {
  28              		.loc 1 9 22
  29 0008 9DC9     		beq	a1,zero,.L1
  30              	.LVL2:
  31              	.L7:
  10:src/ASCII_fun.h ****         chr = data[i] >> 4;
  32              		.loc 1 10 9 is_stmt 1
  12:src/ASCII_fun.h ****             str[i * 2] = '0' + chr;  // 0 - 9
  33              		.loc 1 12 13
  13:src/ASCII_fun.h ****         else
  14:src/ASCII_fun.h ****             str[i * 2] = 'A' + chr - 10;  // A - F
  15:src/ASCII_fun.h ****         chr = data[i] & 0x0F;
  16:src/ASCII_fun.h ****         if(chr < 10)
  17:src/ASCII_fun.h ****             str[i * 2 + 1] = '0' + chr;
  34              		.loc 1 17 13
  10:src/ASCII_fun.h ****         if(chr < 10)
  35              		.loc 1 10 13 is_stmt 0
  36 000a 83470500 		lbu	a5,0(a0)
  37 000e 9183     		srli	a5,a5,4
  38              	.LVL3:
GAS LISTING /tmp/ccbRLEvi.s 			page 2


  11:src/ASCII_fun.h ****             str[i * 2] = '0' + chr;  // 0 - 9
  39              		.loc 1 11 9 is_stmt 1
  14:src/ASCII_fun.h ****         chr = data[i] & 0x0F;
  40              		.loc 1 14 36 is_stmt 0
  41 0010 13877703 		addi	a4,a5,55
  11:src/ASCII_fun.h ****             str[i * 2] = '0' + chr;  // 0 - 9
  42              		.loc 1 11 9
  43 0014 63E4F600 		bgtu	a5,a3,.L4
  12:src/ASCII_fun.h ****         else
  44              		.loc 1 12 30
  45 0018 13870703 		addi	a4,a5,48
  46              	.L4:
  12:src/ASCII_fun.h ****         else
  47              		.loc 1 12 24
  48 001c A30FE6FE 		sb	a4,-1(a2)
  15:src/ASCII_fun.h ****         if(chr < 10)
  49              		.loc 1 15 9 is_stmt 1
  15:src/ASCII_fun.h ****         if(chr < 10)
  50              		.loc 1 15 13 is_stmt 0
  51 0020 83470500 		lbu	a5,0(a0)
  52              	.LVL4:
   9:src/ASCII_fun.h ****         chr = data[i] >> 4;
  53              		.loc 1 9 22
  54 0024 0505     		addi	a0,a0,1
  55              	.LVL5:
  15:src/ASCII_fun.h ****         if(chr < 10)
  56              		.loc 1 15 13
  57 0026 BD8B     		andi	a5,a5,15
  58              	.LVL6:
  16:src/ASCII_fun.h ****             str[i * 2 + 1] = '0' + chr;
  59              		.loc 1 16 9 is_stmt 1
  18:src/ASCII_fun.h ****         else
  19:src/ASCII_fun.h ****             str[i * 2 + 1] = 'A' + chr - 10;
  60              		.loc 1 19 40 is_stmt 0
  61 0028 13877703 		addi	a4,a5,55
  16:src/ASCII_fun.h ****             str[i * 2 + 1] = '0' + chr;
  62              		.loc 1 16 9
  63 002c 63E4F600 		bgtu	a5,a3,.L6
  17:src/ASCII_fun.h ****         else
  64              		.loc 1 17 34
  65 0030 13870703 		addi	a4,a5,48
  66              	.L6:
  17:src/ASCII_fun.h ****         else
  67              		.loc 1 17 28
  68 0034 2300E600 		sb	a4,0(a2)
   9:src/ASCII_fun.h ****         chr = data[i] >> 4;
  69              		.loc 1 9 5 is_stmt 1
  70              	.LVL7:
   9:src/ASCII_fun.h ****         chr = data[i] >> 4;
  71              		.loc 1 9 22
  72 0038 0906     		addi	a2,a2,2
  73 003a E31865FC 		bne	a0,t1,.L7
  74              	.LVL8:
  75              	.L1:
  76              	.LBE36:
  20:src/ASCII_fun.h ****     }
  21:src/ASCII_fun.h ****     return;
GAS LISTING /tmp/ccbRLEvi.s 			page 3


  22:src/ASCII_fun.h **** }
  77              		.loc 1 22 1 is_stmt 0
  78 003e 8280     		ret
  79              		.cfi_endproc
  80              	.LFE15:
  82              		.globl	__umodsi3
  83              		.globl	__modsi3
  84              		.globl	__udivsi3
  85              		.globl	__divsi3
  86              		.section	.text._Z10intToASCIIiPhh,"ax",@progbits
  87              		.align	1
  88              		.globl	_Z10intToASCIIiPhh
  90              	_Z10intToASCIIiPhh:
  91              	.LFB16:
  23:src/ASCII_fun.h **** void intToASCII(int val, uint8_t *str, uint8_t len) {
  92              		.loc 1 23 53 is_stmt 1
  93              		.cfi_startproc
  94              	.LVL9:
  95 0000 3111     		addi	sp,sp,-20
  96              		.cfi_def_cfa_offset 20
  97 0002 06C8     		sw	ra,16(sp)
  98 0004 22C6     		sw	s0,12(sp)
  99 0006 26C4     		sw	s1,8(sp)
 100              		.cfi_offset 1, -4
 101              		.cfi_offset 8, -8
 102              		.cfi_offset 9, -12
 103              		.loc 1 23 53 is_stmt 0
 104 0008 2EC0     		sw	a1,0(sp)
 105 000a AA87     		mv	a5,a0
  24:src/ASCII_fun.h ****     int sign = 0;
 106              		.loc 1 24 5 is_stmt 1
 107              	.LVL10:
  25:src/ASCII_fun.h ****     int i = len - 1;
 108              		.loc 1 25 5
  26:src/ASCII_fun.h ****     if(val == 0) {
 109              		.loc 1 26 5
 110 000c 59E1     		bne	a0,zero,.L13
  27:src/ASCII_fun.h ****         str[len - 1] = '0';
 111              		.loc 1 27 9
 112              		.loc 1 27 22 is_stmt 0
 113 000e 93060003 		li	a3,48
 114 0012 3387C500 		add	a4,a1,a2
 115 0016 A30FD7FE 		sb	a3,-1(a4)
  28:src/ASCII_fun.h ****         i --;
 116              		.loc 1 28 9 is_stmt 1
  24:src/ASCII_fun.h ****     int i = len - 1;
 117              		.loc 1 24 9 is_stmt 0
 118 001a 8144     		li	s1,0
 119              		.loc 1 28 11
 120 001c 9306E6FF 		addi	a3,a2,-2
 121              	.LVL11:
  29:src/ASCII_fun.h ****     }
  30:src/ASCII_fun.h ****     if(val < 0) {
 122              		.loc 1 30 5 is_stmt 1
 123              	.L15:
  31:src/ASCII_fun.h ****         sign = 1;
  32:src/ASCII_fun.h ****         val *= -1;
GAS LISTING /tmp/ccbRLEvi.s 			page 4


  33:src/ASCII_fun.h ****     }
  34:src/ASCII_fun.h ****     for(; i >= 0; i --) {
 124              		.loc 1 34 13 discriminator 1
 125 0020 0247     		lw	a4,0(sp)
 126 0022 3304D700 		add	s0,a4,a3
 127 0026 63DF0602 		bge	a3,zero,.L19
 128 002a 99A8     		j	.L12
 129              	.LVL12:
 130              	.L26:
  35:src/ASCII_fun.h ****         if(val + sign > 0) {
  36:src/ASCII_fun.h ****             if(val == 0) {
  37:src/ASCII_fun.h ****                 str[i] = '-';
  38:src/ASCII_fun.h ****                 sign = 0;
  39:src/ASCII_fun.h ****             }
  40:src/ASCII_fun.h ****             else {
  41:src/ASCII_fun.h ****                 str[i] = '0' + (val % 10);
 131              		.loc 1 41 17
 132              		.loc 1 41 37 is_stmt 0
 133 002c A945     		li	a1,10
 134 002e 3E85     		mv	a0,a5
  36:src/ASCII_fun.h ****                 str[i] = '-';
 135              		.loc 1 36 13
 136 0030 A9CF     		beq	a5,zero,.L22
 137              	.LVL13:
 138 0032 3EC2     		sw	a5,4(sp)
 139              		.loc 1 41 37
 140 0034 97000000 		call	__modsi3
 140      E7800000 
 141              	.LVL14:
 142 003c 9247     		lw	a5,4(sp)
 143              		.loc 1 41 30
 144 003e 93060503 		addi	a3,a0,48
 145 0042 93F6F60F 		andi	a3,a3,0xff
 146              	.LVL15:
 147              	.L17:
  42:src/ASCII_fun.h ****             }
  43:src/ASCII_fun.h ****             val /= 10;
 148              		.loc 1 43 17
 149 0046 3E85     		mv	a0,a5
  37:src/ASCII_fun.h ****                 sign = 0;
 150              		.loc 1 37 24
 151 0048 2300D400 		sb	a3,0(s0)
 152              	.LVL16:
 153              		.loc 1 43 13 is_stmt 1
 154              		.loc 1 43 17 is_stmt 0
 155 004c A945     		li	a1,10
 156 004e 97000000 		call	__divsi3
 156      E7800000 
 157              	.LVL17:
  34:src/ASCII_fun.h ****         if(val + sign > 0) {
 158              		.loc 1 34 13
 159 0056 0247     		lw	a4,0(sp)
 160              		.loc 1 43 17
 161 0058 AA87     		mv	a5,a0
 162              	.LVL18:
  34:src/ASCII_fun.h ****         if(val + sign > 0) {
 163              		.loc 1 34 5 is_stmt 1
GAS LISTING /tmp/ccbRLEvi.s 			page 5


  34:src/ASCII_fun.h ****         if(val + sign > 0) {
 164              		.loc 1 34 13
 165 005a 9306F4FF 		addi	a3,s0,-1
 166 005e 63018702 		beq	a4,s0,.L12
 167              	.LVL19:
 168              	.L23:
 169 0062 3684     		mv	s0,a3
 170              	.L19:
 171              	.LVL20:
  35:src/ASCII_fun.h ****             if(val == 0) {
 172              		.loc 1 35 9
  36:src/ASCII_fun.h ****                 str[i] = '-';
 173              		.loc 1 36 13
  44:src/ASCII_fun.h ****         }
  45:src/ASCII_fun.h ****         else {
  46:src/ASCII_fun.h ****             str[i] = ' ';
 174              		.loc 1 46 13
  35:src/ASCII_fun.h ****             if(val == 0) {
 175              		.loc 1 35 16 is_stmt 0
 176 0064 B3869700 		add	a3,a5,s1
  35:src/ASCII_fun.h ****             if(val == 0) {
 177              		.loc 1 35 9
 178 0068 F1F2     		bne	a3,zero,.L26
  34:src/ASCII_fun.h ****         if(val + sign > 0) {
 179              		.loc 1 34 13
 180 006a 0247     		lw	a4,0(sp)
 181              		.loc 1 46 20
 182 006c 93070002 		li	a5,32
 183 0070 2300F400 		sb	a5,0(s0)
 184 0074 8144     		li	s1,0
 185 0076 8147     		li	a5,0
 186              	.LVL21:
  34:src/ASCII_fun.h ****         if(val + sign > 0) {
 187              		.loc 1 34 5 is_stmt 1
  34:src/ASCII_fun.h ****         if(val + sign > 0) {
 188              		.loc 1 34 13
 189 0078 9306F4FF 		addi	a3,s0,-1
 190 007c E31387FE 		bne	a4,s0,.L23
 191              	.LVL22:
 192              	.L12:
  47:src/ASCII_fun.h ****         }
  48:src/ASCII_fun.h ****     }
  49:src/ASCII_fun.h ****     return;
  50:src/ASCII_fun.h **** }
 193              		.loc 1 50 1 is_stmt 0
 194 0080 C240     		lw	ra,16(sp)
 195              		.cfi_remember_state
 196              		.cfi_restore 1
 197 0082 3244     		lw	s0,12(sp)
 198              		.cfi_restore 8
 199 0084 A244     		lw	s1,8(sp)
 200              		.cfi_restore 9
 201              	.LVL23:
 202 0086 5101     		addi	sp,sp,20
 203              		.cfi_def_cfa_offset 0
 204              	.LVL24:
 205 0088 8280     		jr	ra
GAS LISTING /tmp/ccbRLEvi.s 			page 6


 206              	.LVL25:
 207              	.L22:
 208              		.cfi_restore_state
  36:src/ASCII_fun.h ****                 str[i] = '-';
 209              		.loc 1 36 13
 210 008a 9306D002 		li	a3,45
  38:src/ASCII_fun.h ****             }
 211              		.loc 1 38 22
 212 008e 8144     		li	s1,0
 213              	.LVL26:
 214 0090 5DBF     		j	.L17
 215              	.LVL27:
 216              	.L13:
 217 0092 9306F6FF 		addi	a3,a2,-1
 218              	.LVL28:
  30:src/ASCII_fun.h ****         sign = 1;
 219              		.loc 1 30 5 is_stmt 1
  24:src/ASCII_fun.h ****     int i = len - 1;
 220              		.loc 1 24 9 is_stmt 0
 221 0096 8144     		li	s1,0
  30:src/ASCII_fun.h ****         sign = 1;
 222              		.loc 1 30 5
 223 0098 E35405F8 		bge	a0,zero,.L15
  31:src/ASCII_fun.h ****         val *= -1;
 224              		.loc 1 31 9 is_stmt 1
 225              	.LVL29:
  32:src/ASCII_fun.h ****     }
 226              		.loc 1 32 9
  32:src/ASCII_fun.h ****     }
 227              		.loc 1 32 13 is_stmt 0
 228 009c B307A040 		neg	a5,a0
 229              	.LVL30:
  31:src/ASCII_fun.h ****         val *= -1;
 230              		.loc 1 31 14
 231 00a0 8544     		li	s1,1
 232 00a2 BDBF     		j	.L15
 233              		.cfi_endproc
 234              	.LFE16:
 236              		.globl	__mulsi3
 237              		.section	.text._Z10ASCIIToIntPKhh,"ax",@progbits
 238              		.align	1
 239              		.globl	_Z10ASCIIToIntPKhh
 241              	_Z10ASCIIToIntPKhh:
 242              	.LFB17:
  51:src/ASCII_fun.h **** int ASCIIToInt(const uint8_t *str, uint8_t len) {
 243              		.loc 1 51 49 is_stmt 1
 244              		.cfi_startproc
 245              	.LVL31:
  52:src/ASCII_fun.h ****     int res = 0, sign = 1, tmp;
 246              		.loc 1 52 5
  53:src/ASCII_fun.h ****     for(int i = 0; i < len; i ++) {
 247              		.loc 1 53 5
 248              	.LBB37:
 249              		.loc 1 53 22
 250 0000 A5C9     		beq	a1,zero,.L33
 251              	.LBE37:
  51:src/ASCII_fun.h **** int ASCIIToInt(const uint8_t *str, uint8_t len) {
GAS LISTING /tmp/ccbRLEvi.s 			page 7


 252              		.loc 1 51 49 is_stmt 0
 253 0002 5111     		addi	sp,sp,-12
 254              		.cfi_def_cfa_offset 12
 255 0004 3306B500 		add	a2,a0,a1
 256 0008 2A87     		mv	a4,a0
 257 000a 06C4     		sw	ra,8(sp)
 258              		.cfi_offset 1, -4
  52:src/ASCII_fun.h ****     int res = 0, sign = 1, tmp;
 259              		.loc 1 52 18
 260 000c 0545     		li	a0,1
 261              	.LVL32:
  52:src/ASCII_fun.h ****     int res = 0, sign = 1, tmp;
 262              		.loc 1 52 9
 263 000e 8145     		li	a1,0
 264              	.LVL33:
 265              	.LBB38:
  54:src/ASCII_fun.h ****         if(str[i] == '-') {
 266              		.loc 1 54 9
 267 0010 1303D002 		li	t1,45
  55:src/ASCII_fun.h ****             sign = -1;
  56:src/ASCII_fun.h ****             tmp = 0;
  57:src/ASCII_fun.h ****         }
  58:src/ASCII_fun.h ****         else if(str[i] == ' ') {
 268              		.loc 1 58 14
 269 0014 93020002 		li	t0,32
  59:src/ASCII_fun.h ****             tmp = 0;
  60:src/ASCII_fun.h ****         }
  61:src/ASCII_fun.h ****         else if(str[i] < '0' || str[i] > '9') {
 270              		.loc 1 61 14
 271 0018 A543     		li	t2,9
 272 001a 39A8     		j	.L32
 273              	.LVL34:
 274              	.L42:
  58:src/ASCII_fun.h ****             tmp = 0;
 275              		.loc 1 58 14
 276 001c 63885604 		beq	a3,t0,.L35
 277              		.loc 1 61 14
 278 0020 63EF1302 		bgtu	ra,t2,.L41
  62:src/ASCII_fun.h ****             return res * sign;
  63:src/ASCII_fun.h ****         }
  64:src/ASCII_fun.h ****         else {
  65:src/ASCII_fun.h ****             tmp = str[i] - '0';
 279              		.loc 1 65 17
 280 0024 BE86     		mv	a3,a5
 281              	.LVL35:
 282              	.L29:
  66:src/ASCII_fun.h ****         }
  67:src/ASCII_fun.h ****         res = res * 10 + tmp;
 283              		.loc 1 67 9 is_stmt 1 discriminator 2
 284              		.loc 1 67 19 is_stmt 0 discriminator 2
 285 0026 93972500 		slli	a5,a1,2
 286 002a AE97     		add	a5,a5,a1
 287 002c 8607     		slli	a5,a5,1
  53:src/ASCII_fun.h ****         if(str[i] == '-') {
 288              		.loc 1 53 22 discriminator 2
 289 002e 0507     		addi	a4,a4,1
 290              	.LVL36:
GAS LISTING /tmp/ccbRLEvi.s 			page 8


 291              		.loc 1 67 13 discriminator 2
 292 0030 B385D700 		add	a1,a5,a3
 293              	.LVL37:
  53:src/ASCII_fun.h ****         if(str[i] == '-') {
 294              		.loc 1 53 5 is_stmt 1 discriminator 2
  53:src/ASCII_fun.h ****         if(str[i] == '-') {
 295              		.loc 1 53 22 discriminator 2
 296 0034 6305C702 		beq	a4,a2,.L41
 297              	.LVL38:
 298              	.L32:
  54:src/ASCII_fun.h ****             sign = -1;
 299              		.loc 1 54 9
  58:src/ASCII_fun.h ****             tmp = 0;
 300              		.loc 1 58 14
  61:src/ASCII_fun.h ****             return res * sign;
 301              		.loc 1 61 14
  65:src/ASCII_fun.h ****         }
 302              		.loc 1 65 13
  54:src/ASCII_fun.h ****             sign = -1;
 303              		.loc 1 54 17 is_stmt 0
 304 0038 83460700 		lbu	a3,0(a4)
  61:src/ASCII_fun.h ****             return res * sign;
 305              		.loc 1 61 30
 306 003c 938706FD 		addi	a5,a3,-48
  61:src/ASCII_fun.h ****             return res * sign;
 307              		.loc 1 61 14
 308 0040 93F0F70F 		andi	ra,a5,0xff
  54:src/ASCII_fun.h ****             sign = -1;
 309              		.loc 1 54 9
 310 0044 E39C66FC 		bne	a3,t1,.L42
 311              		.loc 1 67 19
 312 0048 93972500 		slli	a5,a1,2
 313 004c AE97     		add	a5,a5,a1
  56:src/ASCII_fun.h ****         }
 314              		.loc 1 56 17
 315 004e 8146     		li	a3,0
 316              		.loc 1 67 19
 317 0050 8607     		slli	a5,a5,1
  53:src/ASCII_fun.h ****         if(str[i] == '-') {
 318              		.loc 1 53 22
 319 0052 0507     		addi	a4,a4,1
 320              	.LVL39:
  55:src/ASCII_fun.h ****             tmp = 0;
 321              		.loc 1 55 18
 322 0054 7D55     		li	a0,-1
 323              	.LVL40:
 324              		.loc 1 67 9 is_stmt 1
 325              		.loc 1 67 13 is_stmt 0
 326 0056 B385D700 		add	a1,a5,a3
 327              	.LVL41:
  53:src/ASCII_fun.h ****         if(str[i] == '-') {
 328              		.loc 1 53 5 is_stmt 1
  53:src/ASCII_fun.h ****         if(str[i] == '-') {
 329              		.loc 1 53 22
 330 005a E31FC7FC 		bne	a4,a2,.L32
 331              	.LVL42:
 332              	.L41:
GAS LISTING /tmp/ccbRLEvi.s 			page 9


 333              	.LBE38:
  68:src/ASCII_fun.h ****     }
  69:src/ASCII_fun.h ****     return res * sign;
 334              		.loc 1 69 18 is_stmt 0
 335 005e 97000000 		call	__mulsi3
 335      E7800000 
 336              	.LVL43:
  70:src/ASCII_fun.h **** }
 337              		.loc 1 70 1
 338 0066 A240     		lw	ra,8(sp)
 339              		.cfi_remember_state
 340              		.cfi_restore 1
 341 0068 3101     		addi	sp,sp,12
 342              		.cfi_def_cfa_offset 0
 343 006a 8280     		jr	ra
 344              	.LVL44:
 345              	.L35:
 346              		.cfi_restore_state
 347              	.LBB39:
  59:src/ASCII_fun.h ****         }
 348              		.loc 1 59 17
 349 006c 8146     		li	a3,0
 350 006e 65BF     		j	.L29
 351              	.LVL45:
 352              	.L33:
 353              		.cfi_def_cfa_offset 0
 354              		.cfi_restore 1
  53:src/ASCII_fun.h ****         if(str[i] == '-') {
 355              		.loc 1 53 22
 356 0070 0145     		li	a0,0
 357              	.LVL46:
 358              	.LBE39:
  69:src/ASCII_fun.h **** }
 359              		.loc 1 69 5 is_stmt 1
 360              		.loc 1 70 1 is_stmt 0
 361 0072 8280     		ret
 362              		.cfi_endproc
 363              	.LFE17:
 365              		.section	.text._Z6str_eqPKhS0_h,"ax",@progbits
 366              		.align	1
 367              		.globl	_Z6str_eqPKhS0_h
 369              	_Z6str_eqPKhS0_h:
 370              	.LFB18:
  71:src/ASCII_fun.h **** 
  72:src/ASCII_fun.h **** bool str_eq(const uint8_t *str1, const uint8_t *str2, uint8_t len) {
 371              		.loc 1 72 68 is_stmt 1
 372              		.cfi_startproc
 373              	.LVL47:
  73:src/ASCII_fun.h ****     for(uint8_t i = 0; i < len; i ++) {
 374              		.loc 1 73 5
 375              	.LBB40:
 376              		.loc 1 73 26
 377 0000 19CE     		beq	a2,zero,.L46
 378 0002 2A96     		add	a2,a0,a2
 379              	.LVL48:
 380 0004 19A0     		j	.L45
 381              	.LVL49:
GAS LISTING /tmp/ccbRLEvi.s 			page 10


 382              	.L49:
 383              		.loc 1 73 26 is_stmt 0 discriminator 2
 384 0006 630CC500 		beq	a0,a2,.L46
 385              	.LVL50:
 386              	.L45:
  74:src/ASCII_fun.h ****         if(str1[i] != str2[i]) {
 387              		.loc 1 74 9 is_stmt 1
  73:src/ASCII_fun.h ****     for(uint8_t i = 0; i < len; i ++) {
 388              		.loc 1 73 5
  73:src/ASCII_fun.h ****     for(uint8_t i = 0; i < len; i ++) {
 389              		.loc 1 73 26
 390              		.loc 1 74 9 is_stmt 0
 391 000a 03470500 		lbu	a4,0(a0)
 392 000e 83C70500 		lbu	a5,0(a1)
  73:src/ASCII_fun.h ****     for(uint8_t i = 0; i < len; i ++) {
 393              		.loc 1 73 26
 394 0012 0505     		addi	a0,a0,1
 395              	.LVL51:
 396 0014 8505     		addi	a1,a1,1
 397              		.loc 1 74 9
 398 0016 E308F7FE 		beq	a4,a5,.L49
  75:src/ASCII_fun.h ****             return false;
 399              		.loc 1 75 20
 400 001a 0145     		li	a0,0
 401              	.LBE40:
  76:src/ASCII_fun.h ****         }
  77:src/ASCII_fun.h ****     }
  78:src/ASCII_fun.h ****     return true;
  79:src/ASCII_fun.h **** }
 402              		.loc 1 79 1
 403 001c 8280     		ret
 404              	.LVL52:
 405              	.L46:
  78:src/ASCII_fun.h **** }
 406              		.loc 1 78 12
 407 001e 0545     		li	a0,1
 408 0020 8280     		ret
 409              		.cfi_endproc
 410              	.LFE18:
 412              		.section	.text._Z6delayTm,"ax",@progbits
 413              		.align	1
 414              		.globl	_Z6delayTm
 416              	_Z6delayTm:
 417              	.LFB19:
 418              		.file 2 "src/main.cpp"
   1:src/main.cpp  **** /* configurations */
   2:src/main.cpp  **** #define AWTR_UPDATE_TIME 12   // [1 - 40 hours]
   3:src/main.cpp  **** #define AWTR_WATERING_TIME 2000   // [ms]
   4:src/main.cpp  **** 
   5:src/main.cpp  **** /* clock preferences. Don't change thoughtlessly! */
   6:src/main.cpp  **** #define F_HBCLK 187500
   7:src/main.cpp  **** #define UART_BAUDRATE 4800
   8:src/main.cpp  **** 
   9:src/main.cpp  **** #define MS_TO_TICKS(ms) ((uint32_t)(ms) * (F_HBCLK / 8000))
  10:src/main.cpp  **** #define TIMER_UPDATE MS_TO_TICKS(AWTR_UPDATE_TIME * 3600 * 1000)
  11:src/main.cpp  **** 
  12:src/main.cpp  **** /* Includes */
GAS LISTING /tmp/ccbRLEvi.s 			page 11


  13:src/main.cpp  **** #include <ch32v00x.h>
  14:src/main.cpp  **** #include <uart.h>
  15:src/main.cpp  **** #include "GPIO.h"
  16:src/main.cpp  **** #include "ASCII_fun.h"
  17:src/main.cpp  **** 
  18:src/main.cpp  **** /* Global Variable */
  19:src/main.cpp  **** enum awtr_state_t {
  20:src/main.cpp  **** 	blink,
  21:src/main.cpp  **** 	waiting,
  22:src/main.cpp  **** 	click,
  23:src/main.cpp  **** 	hold,
  24:src/main.cpp  **** 	long_hold,
  25:src/main.cpp  **** 	toSleep,
  26:src/main.cpp  **** };
  27:src/main.cpp  **** volatile awtr_state_t awtr_state = click;
  28:src/main.cpp  **** uint8_t sens_val = 0;
  29:src/main.cpp  **** uint8_t sens_val_border = 50;
  30:src/main.cpp  **** #define BORDER ((uint32_t*)0x08003FC0)
  31:src/main.cpp  **** 
  32:src/main.cpp  **** uart uart1(USART1, UART_BAUDRATE, F_HBCLK);
  33:src/main.cpp  **** uint8_t msg_click_dry[] = "Ground is dry: XXX\n";
  34:src/main.cpp  **** uint8_t msg_click_wet[] = "Ground is wet: XXX\n";
  35:src/main.cpp  **** uint8_t msg_hold[] = "(X) sens border: XXX\n";
  36:src/main.cpp  **** uint8_t msg_lhold[] = "Sensor value: XXX\n";
  37:src/main.cpp  **** 
  38:src/main.cpp  **** /* Program */
  39:src/main.cpp  **** void delayT(uint32_t val) {       // [val] ~= 0.042 sec
 419              		.loc 2 39 27 is_stmt 1
 420              		.cfi_startproc
 421              	.LVL53:
  40:src/main.cpp  **** 	uint32_t cnt_prev, cnt_cur;
 422              		.loc 2 40 2
  41:src/main.cpp  **** 	cnt_prev = SysTick->CNT;
 423              		.loc 2 41 2
 424              		.loc 2 41 11 is_stmt 0
 425 0000 37F700E0 		li	a4,-536809472
 426 0004 1C47     		lw	a5,8(a4)
 427              	.LVL54:
  42:src/main.cpp  **** 	cnt_cur = SysTick->CNT;
 428              		.loc 2 42 2 is_stmt 1
 429              		.loc 2 42 10 is_stmt 0
 430 0006 1847     		lw	a4,8(a4)
 431              	.LVL55:
  43:src/main.cpp  **** 	while(cnt_cur < cnt_prev + val) {
 432              		.loc 2 43 2 is_stmt 1
 433              		.loc 2 43 16
 434              		.loc 2 43 27 is_stmt 0
 435 0008 3E95     		add	a0,a5,a0
 436              	.LVL56:
 437              		.loc 2 43 16
 438 000a 6377A700 		bgeu	a4,a0,.L50
  44:src/main.cpp  **** 		cnt_cur = SysTick->CNT;
 439              		.loc 2 44 11
 440 000e 37F700E0 		li	a4,-536809472
 441              	.LVL57:
 442              	.L52:
 443              		.loc 2 44 3 is_stmt 1
GAS LISTING /tmp/ccbRLEvi.s 			page 12


 444              		.loc 2 44 11 is_stmt 0
 445 0012 1C47     		lw	a5,8(a4)
 446              	.LVL58:
  43:src/main.cpp  **** 	while(cnt_cur < cnt_prev + val) {
 447              		.loc 2 43 16 is_stmt 1
 448 0014 E3EFA7FE 		bltu	a5,a0,.L52
 449              	.LVL59:
 450              	.L50:
  45:src/main.cpp  **** 	}
  46:src/main.cpp  **** 	return;
  47:src/main.cpp  **** }
 451              		.loc 2 47 1 is_stmt 0
 452 0018 8280     		ret
 453              		.cfi_endproc
 454              	.LFE19:
 456              		.section	.text._Z9flash_getv,"ax",@progbits
 457              		.align	1
 458              		.globl	_Z9flash_getv
 460              	_Z9flash_getv:
 461              	.LFB20:
  48:src/main.cpp  **** 
  49:src/main.cpp  **** uint8_t flash_get() {
 462              		.loc 2 49 21 is_stmt 1
 463              		.cfi_startproc
  50:src/main.cpp  **** 	return *BORDER;
 464              		.loc 2 50 2
 465              		.loc 2 50 9 is_stmt 0
 466 0000 B7470008 		li	a5,134234112
  51:src/main.cpp  **** }
 467              		.loc 2 51 1
 468 0004 03C507FC 		lbu	a0,-64(a5)
 469 0008 8280     		ret
 470              		.cfi_endproc
 471              	.LFE20:
 473              		.section	.text._Z10flash_saveh,"ax",@progbits
 474              		.align	1
 475              		.globl	_Z10flash_saveh
 477              	_Z10flash_saveh:
 478              	.LFB21:
  52:src/main.cpp  **** uint8_t flash_save(uint8_t data) {
 479              		.loc 2 52 34 is_stmt 1
 480              		.cfi_startproc
 481              	.LVL60:
  53:src/main.cpp  **** 	__disable_irq();
 482              		.loc 2 53 2
 483              	.LBB41:
 484              	.LBB42:
 485              		.file 3 "src/core/core_riscv.h"
   1:src/core/core_riscv.h **** /********************************** (C) COPYRIGHT  *******************************
   2:src/core/core_riscv.h ****  * File Name          : ch32v00x.h
   3:src/core/core_riscv.h ****  * Author             : Shaperon
   4:src/core/core_riscv.h ****  * Version            : V1.0
   5:src/core/core_riscv.h ****  * Date               : 14/06/2026
   6:src/core/core_riscv.h ****  * Description        : CH32V00x Modified file
   7:src/core/core_riscv.h ****  *********************************************************************************
   8:src/core/core_riscv.h ****  * The original file was most likely copied from another chip somewhere 
   9:src/core/core_riscv.h ****  * does not match the datasheet, so I redid it.
GAS LISTING /tmp/ccbRLEvi.s 			page 13


  10:src/core/core_riscv.h ****  * P.S. I also cleaned up a bit of the junk, so this
  11:src/core/core_riscv.h ****  * **NOT INTERCHANGEABLE with the official SDK and SPL**
  12:src/core/core_riscv.h ****  * 
  13:src/core/core_riscv.h ****  * Оригинальный файл скорее всего скопипащен с другого
  14:src/core/core_riscv.h ****  * несоответствует даташиту, поэтому я его переделал.
  15:src/core/core_riscv.h ****  * p.s. Я в целом еще немного мусора почистил, так что это 
  16:src/core/core_riscv.h ****  * **НЕ ВЗАИМОЗАМЕНЯЕМО с оф. SDK и SPL** 
  17:src/core/core_riscv.h ****  *******************************************************************************/
  18:src/core/core_riscv.h **** #ifndef __CORE_RISCV_H__
  19:src/core/core_riscv.h **** #define __CORE_RISCV_H__
  20:src/core/core_riscv.h **** 
  21:src/core/core_riscv.h **** #ifdef __cplusplus
  22:src/core/core_riscv.h ****  extern "C" {
  23:src/core/core_riscv.h **** #endif
  24:src/core/core_riscv.h **** 
  25:src/core/core_riscv.h **** /* IO definitions */
  26:src/core/core_riscv.h **** #ifdef __cplusplus
  27:src/core/core_riscv.h ****   #define     __I     volatile                /*!< defines 'read only' permissions      */
  28:src/core/core_riscv.h **** #else
  29:src/core/core_riscv.h ****   #define     __I     volatile const          /*!< defines 'read only' permissions     */
  30:src/core/core_riscv.h **** #endif
  31:src/core/core_riscv.h **** #define     __O     volatile                  /*!< defines 'write only' permissions     */
  32:src/core/core_riscv.h **** #define     __IO    volatile                  /*!< defines 'read / write' permissions   */
  33:src/core/core_riscv.h **** 
  34:src/core/core_riscv.h **** /* Standard Peripheral Library old types (maintained for legacy purpose) */
  35:src/core/core_riscv.h **** typedef __I uint32_t vuc32;  /* Read Only */
  36:src/core/core_riscv.h **** typedef __I uint16_t vuc16;  /* Read Only */
  37:src/core/core_riscv.h **** typedef __I uint8_t vuc8;   /* Read Only */
  38:src/core/core_riscv.h **** 
  39:src/core/core_riscv.h **** typedef const uint32_t uc32;  /* Read Only */
  40:src/core/core_riscv.h **** typedef const uint16_t uc16;  /* Read Only */
  41:src/core/core_riscv.h **** typedef const uint8_t uc8;   /* Read Only */
  42:src/core/core_riscv.h **** 
  43:src/core/core_riscv.h **** typedef __I int32_t vsc32;  /* Read Only */
  44:src/core/core_riscv.h **** typedef __I int16_t vsc16;  /* Read Only */
  45:src/core/core_riscv.h **** typedef __I int8_t vsc8;   /* Read Only */
  46:src/core/core_riscv.h **** 
  47:src/core/core_riscv.h **** typedef const int32_t sc32;  /* Read Only */
  48:src/core/core_riscv.h **** typedef const int16_t sc16;  /* Read Only */
  49:src/core/core_riscv.h **** typedef const int8_t sc8;   /* Read Only */
  50:src/core/core_riscv.h **** 
  51:src/core/core_riscv.h **** typedef __IO uint32_t  vu32;
  52:src/core/core_riscv.h **** typedef __IO uint16_t vu16;
  53:src/core/core_riscv.h **** typedef __IO uint8_t  vu8;
  54:src/core/core_riscv.h **** 
  55:src/core/core_riscv.h **** typedef uint32_t  u32;
  56:src/core/core_riscv.h **** typedef uint16_t u16;
  57:src/core/core_riscv.h **** typedef uint8_t  u8;
  58:src/core/core_riscv.h **** 
  59:src/core/core_riscv.h **** typedef __IO int32_t  vs32;
  60:src/core/core_riscv.h **** typedef __IO int16_t  vs16;
  61:src/core/core_riscv.h **** typedef __IO int8_t   vs8;
  62:src/core/core_riscv.h **** 
  63:src/core/core_riscv.h **** typedef int32_t  s32;
  64:src/core/core_riscv.h **** typedef int16_t s16;
  65:src/core/core_riscv.h **** typedef int8_t  s8;
  66:src/core/core_riscv.h **** 
GAS LISTING /tmp/ccbRLEvi.s 			page 14


  67:src/core/core_riscv.h **** typedef enum {NoREADY = 0, READY = !NoREADY} ErrorStatus;
  68:src/core/core_riscv.h **** 
  69:src/core/core_riscv.h **** typedef enum {DISABLE = 0, ENABLE = !DISABLE} FunctionalState;
  70:src/core/core_riscv.h **** 
  71:src/core/core_riscv.h **** typedef enum {RESET = 0, SET = !RESET} FlagStatus, ITStatus;
  72:src/core/core_riscv.h **** 
  73:src/core/core_riscv.h **** #define   RV_STATIC_INLINE  static  inline
  74:src/core/core_riscv.h **** 
  75:src/core/core_riscv.h **** /* memory mapped structure for Program Fast Interrupt Controller (PFIC) */
  76:src/core/core_riscv.h **** typedef struct{
  77:src/core/core_riscv.h ****     __I  uint32_t ISR[8];
  78:src/core/core_riscv.h ****     __I  uint32_t IPR[8];
  79:src/core/core_riscv.h ****     __IO uint32_t ITHRESDR;
  80:src/core/core_riscv.h ****     __IO uint32_t RESERVED;
  81:src/core/core_riscv.h ****     __IO uint32_t CFGR;
  82:src/core/core_riscv.h ****     __I  uint32_t GISR;
  83:src/core/core_riscv.h ****     __IO uint8_t VTFIDR[4];
  84:src/core/core_riscv.h ****     uint8_t RESERVED0[12];
  85:src/core/core_riscv.h ****     __IO uint32_t VTFADDR[4];
  86:src/core/core_riscv.h ****     uint8_t RESERVED1[0x90];
  87:src/core/core_riscv.h ****     __O  uint32_t IENR[8];
  88:src/core/core_riscv.h ****     uint8_t RESERVED2[0x60];
  89:src/core/core_riscv.h ****     __O  uint32_t IRER[8];
  90:src/core/core_riscv.h ****     uint8_t RESERVED3[0x60];
  91:src/core/core_riscv.h ****     __O  uint32_t IPSR[8];
  92:src/core/core_riscv.h ****     uint8_t RESERVED4[0x60];
  93:src/core/core_riscv.h ****     __O  uint32_t IPRR[8];
  94:src/core/core_riscv.h ****     uint8_t RESERVED5[0x60];
  95:src/core/core_riscv.h ****     __IO uint32_t IACTR[8];
  96:src/core/core_riscv.h ****     uint8_t RESERVED6[0xE0];
  97:src/core/core_riscv.h ****     __IO uint8_t IPRIOR[256];
  98:src/core/core_riscv.h ****     uint8_t RESERVED7[0x810];
  99:src/core/core_riscv.h ****     __IO uint32_t SCTLR;
 100:src/core/core_riscv.h **** }PFIC_Type;
 101:src/core/core_riscv.h **** 
 102:src/core/core_riscv.h **** /* memory mapped structure for SysTick */
 103:src/core/core_riscv.h **** typedef struct
 104:src/core/core_riscv.h **** {
 105:src/core/core_riscv.h ****     __IO uint32_t CTLR;
 106:src/core/core_riscv.h ****     __IO uint32_t SR;
 107:src/core/core_riscv.h ****     __IO uint32_t CNT;
 108:src/core/core_riscv.h ****     uint32_t RESERVED0;
 109:src/core/core_riscv.h ****     __IO uint32_t CMP;
 110:src/core/core_riscv.h ****     uint32_t RESERVED1;
 111:src/core/core_riscv.h **** }SysTick_Type;
 112:src/core/core_riscv.h **** 
 113:src/core/core_riscv.h **** 
 114:src/core/core_riscv.h **** #define PFIC            ((PFIC_Type *) 0xE000E000 )
 115:src/core/core_riscv.h **** #define NVIC            PFIC
 116:src/core/core_riscv.h **** #define NVIC_KEY1       ((uint32_t)0xFA050000)
 117:src/core/core_riscv.h **** #define	NVIC_KEY2	    ((uint32_t)0xBCAF0000)
 118:src/core/core_riscv.h **** #define	NVIC_KEY3		((uint32_t)0xBEEF0000)
 119:src/core/core_riscv.h **** 
 120:src/core/core_riscv.h **** #define SysTick         ((SysTick_Type *) 0xE000F000)
 121:src/core/core_riscv.h **** /******************* SysTick Control Register *******************/
 122:src/core/core_riscv.h **** #define STK_STE         (uint32_t)0x00000001   //SysTick enable
 123:src/core/core_riscv.h **** #define STK_STIE        (uint32_t)0x00000002   //interrupt enable
GAS LISTING /tmp/ccbRLEvi.s 			page 15


 124:src/core/core_riscv.h **** #define STK_STCLK       (uint32_t)0x00000004   //prescaller
 125:src/core/core_riscv.h ****                                                //0 - HBCLK/8; 1 - HBCLK
 126:src/core/core_riscv.h **** #define STK_STRE        (uint32_t)0x00000008   //Auto-reload enable
 127:src/core/core_riscv.h ****                                                //0 - without; 1 - with
 128:src/core/core_riscv.h **** #define STK_SWIE        (uint32_t)0x80000000   //Software interrupt trigger enable
 129:src/core/core_riscv.h **** /******************* SysTick Status Register *******************/
 130:src/core/core_riscv.h **** #define STK_CNTIF       (uint32_t)0x00000001   //Comparison flag
 131:src/core/core_riscv.h **** 
 132:src/core/core_riscv.h **** 
 133:src/core/core_riscv.h **** /*********************************************************************
 134:src/core/core_riscv.h ****  * @fn      __enable_irq
 135:src/core/core_riscv.h ****  *
 136:src/core/core_riscv.h ****  * @brief   Enable Global Interrupt
 137:src/core/core_riscv.h ****  *
 138:src/core/core_riscv.h ****  * @return  none
 139:src/core/core_riscv.h ****  */
 140:src/core/core_riscv.h **** RV_STATIC_INLINE void __enable_irq()
 141:src/core/core_riscv.h **** {
 142:src/core/core_riscv.h ****   uint32_t result;
 143:src/core/core_riscv.h **** 
 144:src/core/core_riscv.h ****   __asm volatile("csrr %0," "mstatus": "=r"(result));
 145:src/core/core_riscv.h ****   result |= 0x88;
 146:src/core/core_riscv.h ****   __asm volatile ("csrw mstatus, %0" : : "r" (result) );
 147:src/core/core_riscv.h **** }
 148:src/core/core_riscv.h **** 
 149:src/core/core_riscv.h **** /*********************************************************************
 150:src/core/core_riscv.h ****  * @fn      __disable_irq
 151:src/core/core_riscv.h ****  *
 152:src/core/core_riscv.h ****  * @brief   Disable Global Interrupt
 153:src/core/core_riscv.h ****  *
 154:src/core/core_riscv.h ****  * @return  none
 155:src/core/core_riscv.h ****  */
 156:src/core/core_riscv.h **** RV_STATIC_INLINE void __disable_irq()
 157:src/core/core_riscv.h **** {
 158:src/core/core_riscv.h ****   uint32_t result;
 486              		.loc 3 158 3
 159:src/core/core_riscv.h **** 
 160:src/core/core_riscv.h ****   __asm volatile("csrr %0," "mstatus": "=r"(result));
 487              		.loc 3 160 3
 488              	 #APP
 489              	# 160 "src/core/core_riscv.h" 1
 161              	  result &= ~0x88;
 490              		csrr a5,mstatus
 491              	# 0 "" 2
 492              	.LVL61:
 493              		.loc 3 161 3
 162:src/core/core_riscv.h ****   __asm volatile ("csrw mstatus, %0" : : "r" (result) );
 494              		.loc 3 162 3
 161:src/core/core_riscv.h ****   __asm volatile ("csrw mstatus, %0" : : "r" (result) );
 495              		.loc 3 161 10 is_stmt 0
 496              	 #NO_APP
 497 0004 93F777F7 		andi	a5,a5,-137
 498              	.LVL62:
 499              		.loc 3 162 3
 500              	 #APP
 501              	# 162 "src/core/core_riscv.h" 1
 163              	}
GAS LISTING /tmp/ccbRLEvi.s 			page 16


 502              		csrw mstatus, a5
 503              	# 0 "" 2
 504              	.LVL63:
 505              	 #NO_APP
 506              	.LBE42:
 507              	.LBE41:
  54:src/main.cpp  **** 	FLASH->KEYR = 0x45670123;
 508              		.loc 2 54 2 is_stmt 1
 509              		.loc 2 54 14 is_stmt 0
 510 000c B7066745 		li	a3,1164378112
 511 0010 B7270240 		li	a5,1073881088
 512 0014 93863612 		addi	a3,a3,291
  55:src/main.cpp  **** 	FLASH->KEYR = 0xCDEF89AB;
 513              		.loc 2 55 14
 514 0018 3797EFCD 		li	a4,-839938048
  54:src/main.cpp  **** 	FLASH->KEYR = 0x45670123;
 515              		.loc 2 54 14
 516 001c D4C3     		sw	a3,4(a5)
 517              		.loc 2 55 2 is_stmt 1
 518              		.loc 2 55 14 is_stmt 0
 519 001e 1307B79A 		addi	a4,a4,-1621
 520 0022 D8C3     		sw	a4,4(a5)
  56:src/main.cpp  **** 	if(FLASH->CTLR & FLASH_CTLR_LOCK) {
 521              		.loc 2 56 2 is_stmt 1
 522              		.loc 2 56 12 is_stmt 0
 523 0024 904B     		lw	a2,16(a5)
 524              		.loc 2 56 17
 525 0026 13760608 		andi	a2,a2,128
 526              		.loc 2 56 2
 527 002a 4DEE     		bne	a2,zero,.L58
  57:src/main.cpp  **** 		return 1;
  58:src/main.cpp  **** 	}
  59:src/main.cpp  **** 	FLASH->MODEKEYR = 0x45670123;
 528              		.loc 2 59 2 is_stmt 1
 529              		.loc 2 59 18 is_stmt 0
 530 002c D4D3     		sw	a3,36(a5)
  60:src/main.cpp  **** 	FLASH->MODEKEYR = 0xCDEF89AB;
 531              		.loc 2 60 2 is_stmt 1
 532              		.loc 2 60 18 is_stmt 0
 533 002e D8D3     		sw	a4,36(a5)
  61:src/main.cpp  **** 	if(FLASH->CTLR & FLASH_CTLR_FLOCK) {
 534              		.loc 2 61 2 is_stmt 1
 535              		.loc 2 61 12 is_stmt 0
 536 0030 984B     		lw	a4,16(a5)
 537              		.loc 2 61 17
 538 0032 A166     		li	a3,32768
 539 0034 758F     		and	a4,a4,a3
 540              		.loc 2 61 2
 541 0036 5DE7     		bne	a4,zero,.L58
  62:src/main.cpp  **** 		return 1;
  63:src/main.cpp  **** 	}
  64:src/main.cpp  **** 
  65:src/main.cpp  **** 	FLASH->CTLR |= FLASH_CTLR_PAGE_ER;
 542              		.loc 2 65 2 is_stmt 1
 543              		.loc 2 65 9 is_stmt 0
 544 0038 984B     		lw	a4,16(a5)
 545              		.loc 2 65 14
GAS LISTING /tmp/ccbRLEvi.s 			page 17


 546 003a B7060200 		li	a3,131072
 547 003e 558F     		or	a4,a4,a3
 548 0040 98CB     		sw	a4,16(a5)
  66:src/main.cpp  **** 	FLASH->ADDR = 0x08003FC0;
 549              		.loc 2 66 2 is_stmt 1
 550              		.loc 2 66 14 is_stmt 0
 551 0042 37470008 		li	a4,134234112
 552 0046 130707FC 		addi	a4,a4,-64
 553 004a D8CB     		sw	a4,20(a5)
  67:src/main.cpp  **** 	FLASH->CTLR |= FLASH_CTLR_STRT;
 554              		.loc 2 67 2 is_stmt 1
 555              		.loc 2 67 9 is_stmt 0
 556 004c 944B     		lw	a3,16(a5)
  68:src/main.cpp  **** 	while(FLASH->STATR & FLASH_STATR_BSY) {;}
 557              		.loc 2 68 15
 558 004e 37270240 		li	a4,1073881088
  67:src/main.cpp  **** 	FLASH->CTLR |= FLASH_CTLR_STRT;
 559              		.loc 2 67 14
 560 0052 93E60604 		ori	a3,a3,64
 561 0056 94CB     		sw	a3,16(a5)
 562              		.loc 2 68 2 is_stmt 1
 563              	.L59:
 564              		.loc 2 68 21 discriminator 1
 565              		.loc 2 68 15 is_stmt 0 discriminator 1
 566 0058 5C47     		lw	a5,12(a4)
 567              		.loc 2 68 21 discriminator 1
 568 005a 858B     		andi	a5,a5,1
 569 005c F5FF     		bne	a5,zero,.L59
  69:src/main.cpp  **** 	FLASH->CTLR &= ~(FLASH_CTLR_PAGE_ER);
 570              		.loc 2 69 2 is_stmt 1
 571              		.loc 2 69 9 is_stmt 0
 572 005e 1C4B     		lw	a5,16(a4)
 573              		.loc 2 69 14
 574 0060 8176     		li	a3,-131072
 575 0062 FD16     		addi	a3,a3,-1
 576 0064 F58F     		and	a5,a5,a3
 577 0066 1CCB     		sw	a5,16(a4)
  70:src/main.cpp  **** 
  71:src/main.cpp  **** 	FLASH->CTLR |= FLASH_CTLR_PAGE_PG;
 578              		.loc 2 71 2 is_stmt 1
 579              		.loc 2 71 9 is_stmt 0
 580 0068 1C4B     		lw	a5,16(a4)
 581              		.loc 2 71 14
 582 006a C166     		li	a3,65536
  72:src/main.cpp  **** 	FLASH->CTLR |= FLASH_CTLR_BUF_RST;
 583              		.loc 2 72 14
 584 006c 37060800 		li	a2,524288
  71:src/main.cpp  **** 	FLASH->CTLR |= FLASH_CTLR_BUF_RST;
 585              		.loc 2 71 14
 586 0070 D58F     		or	a5,a5,a3
 587 0072 1CCB     		sw	a5,16(a4)
 588              		.loc 2 72 2 is_stmt 1
 589              		.loc 2 72 9 is_stmt 0
 590 0074 1C4B     		lw	a5,16(a4)
  73:src/main.cpp  **** 	while(FLASH->STATR & FLASH_STATR_BSY) {;}
 591              		.loc 2 73 15
 592 0076 B7260240 		li	a3,1073881088
GAS LISTING /tmp/ccbRLEvi.s 			page 18


  72:src/main.cpp  **** 	FLASH->CTLR |= FLASH_CTLR_BUF_RST;
 593              		.loc 2 72 14
 594 007a D18F     		or	a5,a5,a2
 595 007c 1CCB     		sw	a5,16(a4)
 596              		.loc 2 73 2 is_stmt 1
 597              	.L60:
 598              		.loc 2 73 21 discriminator 1
 599              		.loc 2 73 15 is_stmt 0 discriminator 1
 600 007e DC46     		lw	a5,12(a3)
 601              		.loc 2 73 21 discriminator 1
 602 0080 858B     		andi	a5,a5,1
 603 0082 F5FF     		bne	a5,zero,.L60
  74:src/main.cpp  **** 	*BORDER = (uint32_t)data;
 604              		.loc 2 74 2 is_stmt 1
  75:src/main.cpp  **** 	FLASH->CTLR |= FLASH_CTLR_BUF_LOAD;
 605              		.loc 2 75 9 is_stmt 0
 606 0084 9C4A     		lw	a5,16(a3)
 607              		.loc 2 75 14
 608 0086 37070400 		li	a4,262144
 609 008a D98F     		or	a5,a5,a4
  74:src/main.cpp  **** 	*BORDER = (uint32_t)data;
 610              		.loc 2 74 12
 611 008c 37470008 		li	a4,134234112
 612 0090 2320A7FC 		sw	a0,-64(a4)
 613              		.loc 2 75 2 is_stmt 1
 614              		.loc 2 75 14 is_stmt 0
 615 0094 9CCA     		sw	a5,16(a3)
  76:src/main.cpp  **** 	while(FLASH->STATR & FLASH_STATR_BSY) {;}
 616              		.loc 2 76 2 is_stmt 1
 617              		.loc 2 76 15 is_stmt 0
 618 0096 B7260240 		li	a3,1073881088
 619              	.L61:
 620              		.loc 2 76 21 is_stmt 1 discriminator 1
 621              		.loc 2 76 15 is_stmt 0 discriminator 1
 622 009a DC46     		lw	a5,12(a3)
 623              		.loc 2 76 21 discriminator 1
 624 009c 858B     		andi	a5,a5,1
 625 009e F5FF     		bne	a5,zero,.L61
  77:src/main.cpp  **** 	FLASH->ADDR = 0x08003FC0;
 626              		.loc 2 77 2 is_stmt 1
 627              		.loc 2 77 14 is_stmt 0
 628 00a0 B7470008 		li	a5,134234112
 629 00a4 938707FC 		addi	a5,a5,-64
 630 00a8 DCCA     		sw	a5,20(a3)
  78:src/main.cpp  **** 	FLASH->CTLR |= FLASH_CTLR_STRT;
 631              		.loc 2 78 2 is_stmt 1
 632              		.loc 2 78 9 is_stmt 0
 633 00aa 9C4A     		lw	a5,16(a3)
  79:src/main.cpp  **** 	while(FLASH->STATR & FLASH_STATR_BSY) {;}
 634              		.loc 2 79 15
 635 00ac 37270240 		li	a4,1073881088
  78:src/main.cpp  **** 	FLASH->CTLR |= FLASH_CTLR_STRT;
 636              		.loc 2 78 14
 637 00b0 93E70704 		ori	a5,a5,64
 638 00b4 9CCA     		sw	a5,16(a3)
 639              		.loc 2 79 2 is_stmt 1
 640              	.L62:
GAS LISTING /tmp/ccbRLEvi.s 			page 19


 641              		.loc 2 79 21 discriminator 1
 642              		.loc 2 79 15 is_stmt 0 discriminator 1
 643 00b6 5C47     		lw	a5,12(a4)
 644              		.loc 2 79 21 discriminator 1
 645 00b8 858B     		andi	a5,a5,1
 646 00ba F5FF     		bne	a5,zero,.L62
  80:src/main.cpp  **** 	FLASH->CTLR &= ~(FLASH_CTLR_PAGE_PG);
 647              		.loc 2 80 2 is_stmt 1
 648              		.loc 2 80 9 is_stmt 0
 649 00bc 1C4B     		lw	a5,16(a4)
 650              		.loc 2 80 14
 651 00be C176     		li	a3,-65536
 652 00c0 FD16     		addi	a3,a3,-1
 653 00c2 F58F     		and	a5,a5,a3
 654 00c4 1CCB     		sw	a5,16(a4)
  81:src/main.cpp  **** 	FLASH->CTLR |= FLASH_CTLR_LOCK;
 655              		.loc 2 81 2 is_stmt 1
 656              		.loc 2 81 9 is_stmt 0
 657 00c6 1C4B     		lw	a5,16(a4)
 658              		.loc 2 81 14
 659 00c8 93E70708 		ori	a5,a5,128
 660 00cc 1CCB     		sw	a5,16(a4)
  82:src/main.cpp  **** 	if(FLASH->STATR & FLASH_STATR_WRPRTERR) {
 661              		.loc 2 82 2 is_stmt 1
 662              		.loc 2 82 12 is_stmt 0
 663 00ce 5C47     		lw	a5,12(a4)
 664              		.loc 2 82 18
 665 00d0 C18B     		andi	a5,a5,16
 666              		.loc 2 82 2
 667 00d2 89EB     		bne	a5,zero,.L58
  83:src/main.cpp  **** 		return 1;
  84:src/main.cpp  **** 	}
  85:src/main.cpp  **** 	__enable_irq();
 668              		.loc 2 85 2 is_stmt 1
 669              	.LBB43:
 670              	.LBB44:
 142:src/core/core_riscv.h **** 
 671              		.loc 3 142 3
 144:src/core/core_riscv.h ****   result |= 0x88;
 672              		.loc 3 144 3
 673              	 #APP
 674              	# 144 "src/core/core_riscv.h" 1
 675              		csrr a5,mstatus
 676              	# 0 "" 2
 677              	.LVL64:
 145:src/core/core_riscv.h ****   __asm volatile ("csrw mstatus, %0" : : "r" (result) );
 678              		.loc 3 145 3
 146:src/core/core_riscv.h **** }
 679              		.loc 3 146 3
 145:src/core/core_riscv.h ****   __asm volatile ("csrw mstatus, %0" : : "r" (result) );
 680              		.loc 3 145 10 is_stmt 0
 681              	 #NO_APP
 682 00d8 93E78708 		ori	a5,a5,136
 683              	.LVL65:
 146:src/core/core_riscv.h **** }
 684              		.loc 3 146 3
 685              	 #APP
GAS LISTING /tmp/ccbRLEvi.s 			page 20


 686              	# 146 "src/core/core_riscv.h" 1
 687              		csrw mstatus, a5
 688              	# 0 "" 2
 689              	.LVL66:
 690              	 #NO_APP
 691              	.LBE44:
 692              	.LBE43:
  86:src/main.cpp  **** 	return 0;
 693              		.loc 2 86 2 is_stmt 1
 694              		.loc 2 86 9 is_stmt 0
 695 00e0 0145     		li	a0,0
 696              	.LVL67:
  87:src/main.cpp  **** }
 697              		.loc 2 87 1
 698 00e2 8280     		ret
 699              	.LVL68:
 700              	.L58:
  57:src/main.cpp  **** 	}
 701              		.loc 2 57 10
 702 00e4 0545     		li	a0,1
 703              	.LVL69:
 704 00e6 8280     		ret
 705              		.cfi_endproc
 706              	.LFE21:
 708              		.section	.text.SystemInit,"ax",@progbits
 709              		.align	1
 710              		.globl	SystemInit
 712              	SystemInit:
 713              	.LFB22:
  88:src/main.cpp  **** 
  89:src/main.cpp  **** extern "C"{
  90:src/main.cpp  **** void SystemInit() {
 714              		.loc 2 90 19 is_stmt 1
 715              		.cfi_startproc
  91:src/main.cpp  **** 	/*RCC*/
  92:src/main.cpp  **** 	RCC->CFGR0 &= ~(RCC_HPRE | RCC_ADCPRE);
 716              		.loc 2 92 2
 717              		.loc 2 92 7 is_stmt 0
 718 0000 B7170240 		li	a5,1073876992
 719 0004 D843     		lw	a4,4(a5)
 720              		.loc 2 92 13
 721 0006 D176     		li	a3,-49152
  90:src/main.cpp  **** 	/*RCC*/
 722              		.loc 2 90 19
 723 0008 5111     		addi	sp,sp,-12
 724              		.cfi_def_cfa_offset 12
 725              		.loc 2 92 13
 726 000a 9386F6F0 		addi	a3,a3,-241
  90:src/main.cpp  **** 	/*RCC*/
 727              		.loc 2 90 19
 728 000e 22C2     		sw	s0,4(sp)
 729 0010 26C0     		sw	s1,0(sp)
 730 0012 06C4     		sw	ra,8(sp)
 731              		.cfi_offset 8, -8
 732              		.cfi_offset 9, -12
 733              		.cfi_offset 1, -4
 734              		.loc 2 92 13
GAS LISTING /tmp/ccbRLEvi.s 			page 21


 735 0014 758F     		and	a4,a4,a3
 736 0016 D8C3     		sw	a4,4(a5)
  93:src/main.cpp  **** 	RCC->CFGR0 |= RCC_HPRE_DIV16 | RCC_ADCPRE_DIV2; //HBCLK = 1.5 MHz
 737              		.loc 2 93 2 is_stmt 1
 738              		.loc 2 93 7 is_stmt 0
 739 0018 D843     		lw	a4,4(a5)
  94:src/main.cpp  **** 	RCC->APB2PCENR |= RCC_IOPAEN | RCC_IOPCEN | RCC_IOPDEN | 
 740              		.loc 2 94 17
 741 001a 9166     		li	a3,16384
 742 001c 93865623 		addi	a3,a3,565
  93:src/main.cpp  **** 	RCC->CFGR0 |= RCC_HPRE_DIV16 | RCC_ADCPRE_DIV2; //HBCLK = 1.5 MHz
 743              		.loc 2 93 13
 744 0020 1367070B 		ori	a4,a4,176
 745 0024 D8C3     		sw	a4,4(a5)
 746              		.loc 2 94 2 is_stmt 1
 747              		.loc 2 94 7 is_stmt 0
 748 0026 984F     		lw	a4,24(a5)
  95:src/main.cpp  **** 	                  RCC_ADC1EN | RCC_USART1EN | RCC_AFIOEN;
  96:src/main.cpp  **** 	
  97:src/main.cpp  **** 	/*Timer*/
  98:src/main.cpp  **** 	SysTick->CNT = 0;
 749              		.loc 2 98 15
 750 0028 B7F400E0 		li	s1,-536809472
  99:src/main.cpp  **** 	SysTick->CMP = 0xFFFFFFFF;
 100:src/main.cpp  **** 	SysTick->CTLR = STK_STIE | STK_STRE | STK_STE;
 101:src/main.cpp  **** 	
 102:src/main.cpp  **** 	/*GPIO*/
 103:src/main.cpp  **** 	LED_PORT->CFGLR &= ~(IO_MASK << LED_GPIN);
 751              		.loc 2 103 12
 752 002c 37140140 		li	s0,1073811456
  94:src/main.cpp  **** 	                  RCC_ADC1EN | RCC_USART1EN | RCC_AFIOEN;
 753              		.loc 2 94 17
 754 0030 558F     		or	a4,a4,a3
 755 0032 98CF     		sw	a4,24(a5)
  98:src/main.cpp  **** 	SysTick->CMP = 0xFFFFFFFF;
 756              		.loc 2 98 2 is_stmt 1
  98:src/main.cpp  **** 	SysTick->CMP = 0xFFFFFFFF;
 757              		.loc 2 98 15 is_stmt 0
 758 0034 23A40400 		sw	zero,8(s1)
  99:src/main.cpp  **** 	SysTick->CMP = 0xFFFFFFFF;
 759              		.loc 2 99 2 is_stmt 1
  99:src/main.cpp  **** 	SysTick->CMP = 0xFFFFFFFF;
 760              		.loc 2 99 15 is_stmt 0
 761 0038 FD57     		li	a5,-1
 762 003a 9CC8     		sw	a5,16(s1)
 100:src/main.cpp  **** 	
 763              		.loc 2 100 2 is_stmt 1
 100:src/main.cpp  **** 	
 764              		.loc 2 100 16 is_stmt 0
 765 003c AD47     		li	a5,11
 766 003e 9CC0     		sw	a5,0(s1)
 767              		.loc 2 103 2 is_stmt 1
 768              		.loc 2 103 12 is_stmt 0
 769 0040 1C40     		lw	a5,0(s0)
 770              		.loc 2 103 18
 771 0042 93F7F7F0 		andi	a5,a5,-241
 772 0046 1CC0     		sw	a5,0(s0)
GAS LISTING /tmp/ccbRLEvi.s 			page 22


 104:src/main.cpp  **** 	LED_PORT->CFGLR |= (IO_OUT_OD | IO_OUT_2M) << LED_GPIN;
 773              		.loc 2 104 2 is_stmt 1
 774              		.loc 2 104 12 is_stmt 0
 775 0048 1C40     		lw	a5,0(s0)
 776              		.loc 2 104 18
 777 004a 93E70706 		ori	a5,a5,96
 778 004e 1CC0     		sw	a5,0(s0)
 105:src/main.cpp  **** 	led_off();
 779              		.loc 2 105 2 is_stmt 1
 780              		.loc 2 105 9 is_stmt 0
 781 0050 97000000 		call	_Z7led_offv
 781      E7800000 
 782              	.LVL70:
 106:src/main.cpp  **** 
 107:src/main.cpp  **** 	PUMP_PORT->CFGLR &= ~(IO_MASK << PUMP_GPIN);
 783              		.loc 2 107 2 is_stmt 1
 784              		.loc 2 107 13 is_stmt 0
 785 0058 1C40     		lw	a5,0(s0)
 786              		.loc 2 107 19
 787 005a 7D76     		li	a2,-4096
 788 005c 1306F60F 		addi	a2,a2,255
 789 0060 F18F     		and	a5,a5,a2
 790 0062 1CC0     		sw	a5,0(s0)
 108:src/main.cpp  **** 	PUMP_PORT->CFGLR |= (IO_OUT_PP | IO_OUT_2M) << PUMP_GPIN;
 791              		.loc 2 108 2 is_stmt 1
 792              		.loc 2 108 13 is_stmt 0
 793 0064 1C40     		lw	a5,0(s0)
 109:src/main.cpp  **** 
 110:src/main.cpp  **** 	BTN_PORT->CFGLR &= ~(IO_MASK << BTN_GPIN);
 794              		.loc 2 110 18
 795 0066 3707F1FF 		li	a4,-983040
 796 006a 7D17     		addi	a4,a4,-1
 108:src/main.cpp  **** 	PUMP_PORT->CFGLR |= (IO_OUT_PP | IO_OUT_2M) << PUMP_GPIN;
 797              		.loc 2 108 19
 798 006c 93E70720 		ori	a5,a5,512
 799 0070 1CC0     		sw	a5,0(s0)
 800              		.loc 2 110 2 is_stmt 1
 801              		.loc 2 110 12 is_stmt 0
 802 0072 1C40     		lw	a5,0(s0)
 111:src/main.cpp  **** 	BTN_PORT->CFGLR |= (IO_IN | IO_IN_PUD) << BTN_GPIN;
 803              		.loc 2 111 18
 804 0074 B7050800 		li	a1,524288
 112:src/main.cpp  **** 	BTN_PORT->BSHR = 1 << btn_pin;  //pull-up
 113:src/main.cpp  **** 	AFIO->EXTICR |= BTN_EXTI;
 805              		.loc 2 113 8
 806 0078 B7060140 		li	a3,1073807360
 110:src/main.cpp  **** 	BTN_PORT->CFGLR |= (IO_IN | IO_IN_PUD) << BTN_GPIN;
 807              		.loc 2 110 18
 808 007c F98F     		and	a5,a5,a4
 809 007e 1CC0     		sw	a5,0(s0)
 111:src/main.cpp  **** 	BTN_PORT->CFGLR |= (IO_IN | IO_IN_PUD) << BTN_GPIN;
 810              		.loc 2 111 2 is_stmt 1
 111:src/main.cpp  **** 	BTN_PORT->CFGLR |= (IO_IN | IO_IN_PUD) << BTN_GPIN;
 811              		.loc 2 111 12 is_stmt 0
 812 0080 1C40     		lw	a5,0(s0)
 111:src/main.cpp  **** 	BTN_PORT->CFGLR |= (IO_IN | IO_IN_PUD) << BTN_GPIN;
 813              		.loc 2 111 18
GAS LISTING /tmp/ccbRLEvi.s 			page 23


 814 0082 CD8F     		or	a5,a5,a1
 815 0084 1CC0     		sw	a5,0(s0)
 112:src/main.cpp  **** 	BTN_PORT->BSHR = 1 << btn_pin;  //pull-up
 816              		.loc 2 112 2 is_stmt 1
 112:src/main.cpp  **** 	BTN_PORT->BSHR = 1 << btn_pin;  //pull-up
 817              		.loc 2 112 17 is_stmt 0
 818 0086 C147     		li	a5,16
 819 0088 1CC8     		sw	a5,16(s0)
 820              		.loc 2 113 2 is_stmt 1
 821              		.loc 2 113 8 is_stmt 0
 822 008a 9C46     		lw	a5,8(a3)
 823              		.loc 2 113 15
 824 008c 93E70720 		ori	a5,a5,512
 825 0090 9CC6     		sw	a5,8(a3)
 114:src/main.cpp  **** 	EXTI->INTENR |= 1 << btn_pin;
 826              		.loc 2 114 2 is_stmt 1
 827              		.loc 2 114 8 is_stmt 0
 828 0092 83A70640 		lw	a5,1024(a3)
 829              		.loc 2 114 15
 830 0096 93E70701 		ori	a5,a5,16
 831 009a 23A0F640 		sw	a5,1024(a3)
 115:src/main.cpp  **** 	EXTI->FTENR |= 1 << btn_pin;
 832              		.loc 2 115 2 is_stmt 1
 833              		.loc 2 115 8 is_stmt 0
 834 009e 83A5C640 		lw	a1,1036(a3)
 116:src/main.cpp  **** 	EXTI->RTENR |= 1 << btn_pin;
 117:src/main.cpp  **** 	EXTI->INTFR |= 1 << btn_pin;
 118:src/main.cpp  **** 	EXTI->EVENR |= 1 << btn_pin;
 119:src/main.cpp  **** 
 120:src/main.cpp  **** 	SENS_PORT->CFGLR &= ~(IO_MASK << SENS_GPIN);
 121:src/main.cpp  **** 	SENS_PORT->CFGLR |= (IO_IN | IO_IN_AN) << SENS_GPIN;
 122:src/main.cpp  **** 
 123:src/main.cpp  **** 	UTX_PORT->CFGLR &= ~(IO_MASK << UTX_GPIN);
 124:src/main.cpp  **** 	UTX_PORT->CFGLR |= (IO_OUT_APP | IO_OUT_10M) << UTX_GPIN;
 125:src/main.cpp  **** 	AFIO->PCFR1 |= UTX_REMAP;
 126:src/main.cpp  **** 
 127:src/main.cpp  **** 	/*ADC*/
 128:src/main.cpp  **** 	ADC1->CTLR1 |= 0;  //Single single-channel mode
 835              		.loc 2 128 8
 836 00a2 B7270140 		li	a5,1073815552
 115:src/main.cpp  **** 	EXTI->FTENR |= 1 << btn_pin;
 837              		.loc 2 115 14
 838 00a6 93E50501 		ori	a1,a1,16
 839 00aa 23A6B640 		sw	a1,1036(a3)
 116:src/main.cpp  **** 	EXTI->RTENR |= 1 << btn_pin;
 840              		.loc 2 116 2 is_stmt 1
 116:src/main.cpp  **** 	EXTI->RTENR |= 1 << btn_pin;
 841              		.loc 2 116 8 is_stmt 0
 842 00ae 83A58640 		lw	a1,1032(a3)
 116:src/main.cpp  **** 	EXTI->RTENR |= 1 << btn_pin;
 843              		.loc 2 116 14
 844 00b2 93E50501 		ori	a1,a1,16
 845 00b6 23A4B640 		sw	a1,1032(a3)
 117:src/main.cpp  **** 	EXTI->EVENR |= 1 << btn_pin;
 846              		.loc 2 117 2 is_stmt 1
 117:src/main.cpp  **** 	EXTI->EVENR |= 1 << btn_pin;
 847              		.loc 2 117 8 is_stmt 0
GAS LISTING /tmp/ccbRLEvi.s 			page 24


 848 00ba 83A54641 		lw	a1,1044(a3)
 117:src/main.cpp  **** 	EXTI->EVENR |= 1 << btn_pin;
 849              		.loc 2 117 14
 850 00be 93E50501 		ori	a1,a1,16
 851 00c2 23AAB640 		sw	a1,1044(a3)
 118:src/main.cpp  **** 
 852              		.loc 2 118 2 is_stmt 1
 118:src/main.cpp  **** 
 853              		.loc 2 118 8 is_stmt 0
 854 00c6 83A54640 		lw	a1,1028(a3)
 118:src/main.cpp  **** 
 855              		.loc 2 118 14
 856 00ca 93E50501 		ori	a1,a1,16
 857 00ce 23A2B640 		sw	a1,1028(a3)
 120:src/main.cpp  **** 	SENS_PORT->CFGLR |= (IO_IN | IO_IN_AN) << SENS_GPIN;
 858              		.loc 2 120 2 is_stmt 1
 120:src/main.cpp  **** 	SENS_PORT->CFGLR |= (IO_IN | IO_IN_AN) << SENS_GPIN;
 859              		.loc 2 120 13 is_stmt 0
 860 00d2 03270480 		lw	a4,-2048(s0)
 120:src/main.cpp  **** 	SENS_PORT->CFGLR |= (IO_IN | IO_IN_AN) << SENS_GPIN;
 861              		.loc 2 120 19
 862 00d6 718F     		and	a4,a4,a2
 863 00d8 2320E480 		sw	a4,-2048(s0)
 121:src/main.cpp  **** 
 864              		.loc 2 121 2 is_stmt 1
 121:src/main.cpp  **** 
 865              		.loc 2 121 13 is_stmt 0
 866 00dc 03270480 		lw	a4,-2048(s0)
 123:src/main.cpp  **** 	UTX_PORT->CFGLR |= (IO_OUT_APP | IO_OUT_10M) << UTX_GPIN;
 867              		.loc 2 123 18
 868 00e0 370600F1 		li	a2,-251658240
 869 00e4 7D16     		addi	a2,a2,-1
 121:src/main.cpp  **** 
 870              		.loc 2 121 19
 871 00e6 2320E480 		sw	a4,-2048(s0)
 123:src/main.cpp  **** 	UTX_PORT->CFGLR |= (IO_OUT_APP | IO_OUT_10M) << UTX_GPIN;
 872              		.loc 2 123 2 is_stmt 1
 123:src/main.cpp  **** 	UTX_PORT->CFGLR |= (IO_OUT_APP | IO_OUT_10M) << UTX_GPIN;
 873              		.loc 2 123 12 is_stmt 0
 874 00ea 03270440 		lw	a4,1024(s0)
 123:src/main.cpp  **** 	UTX_PORT->CFGLR |= (IO_OUT_APP | IO_OUT_10M) << UTX_GPIN;
 875              		.loc 2 123 18
 876 00ee 718F     		and	a4,a4,a2
 877 00f0 2320E440 		sw	a4,1024(s0)
 124:src/main.cpp  **** 	AFIO->PCFR1 |= UTX_REMAP;
 878              		.loc 2 124 2 is_stmt 1
 124:src/main.cpp  **** 	AFIO->PCFR1 |= UTX_REMAP;
 879              		.loc 2 124 12 is_stmt 0
 880 00f4 03270440 		lw	a4,1024(s0)
 124:src/main.cpp  **** 	AFIO->PCFR1 |= UTX_REMAP;
 881              		.loc 2 124 18
 882 00f8 37060009 		li	a2,150994944
 883 00fc 518F     		or	a4,a4,a2
 884 00fe 2320E440 		sw	a4,1024(s0)
 125:src/main.cpp  **** 
 885              		.loc 2 125 2 is_stmt 1
 125:src/main.cpp  **** 
GAS LISTING /tmp/ccbRLEvi.s 			page 25


 886              		.loc 2 125 8 is_stmt 0
 887 0102 D842     		lw	a4,4(a3)
 125:src/main.cpp  **** 
 888              		.loc 2 125 14
 889 0104 37062000 		li	a2,2097152
 890 0108 518F     		or	a4,a4,a2
 891 010a D8C2     		sw	a4,4(a3)
 892              		.loc 2 128 2 is_stmt 1
 893              		.loc 2 128 8 is_stmt 0
 894 010c 03A74740 		lw	a4,1028(a5)
 129:src/main.cpp  **** 	ADC1->CTLR2 |= ADC_ALIGN | ADC_ADON;
 895              		.loc 2 129 14
 896 0110 8566     		li	a3,4096
 897 0112 93861680 		addi	a3,a3,-2047
 128:src/main.cpp  **** 	ADC1->CTLR2 |= ADC_ALIGN | ADC_ADON;
 898              		.loc 2 128 14
 899 0116 23A2E740 		sw	a4,1028(a5)
 900              		.loc 2 129 2 is_stmt 1
 901              		.loc 2 129 8 is_stmt 0
 902 011a 03A78740 		lw	a4,1032(a5)
 903              		.loc 2 129 14
 904 011e 558F     		or	a4,a4,a3
 905 0120 23A4E740 		sw	a4,1032(a5)
 130:src/main.cpp  **** 	ADC1->SAMPTR2 = 0;
 906              		.loc 2 130 2 is_stmt 1
 907              		.loc 2 130 16 is_stmt 0
 908 0124 23A80740 		sw	zero,1040(a5)
 131:src/main.cpp  **** 	ADC1->RSQR1 = 0;
 909              		.loc 2 131 2 is_stmt 1
 910              		.loc 2 131 14 is_stmt 0
 911 0128 23A60742 		sw	zero,1068(a5)
 132:src/main.cpp  **** 	ADC1->RSQR2 = 0;
 912              		.loc 2 132 2 is_stmt 1
 913              		.loc 2 132 14 is_stmt 0
 914 012c 23A80742 		sw	zero,1072(a5)
 133:src/main.cpp  **** 	ADC1->RSQR3 = SENS_ADC_CHANNEL << 0;
 915              		.loc 2 133 2 is_stmt 1
 916              		.loc 2 133 14 is_stmt 0
 917 0130 23AA0742 		sw	zero,1076(a5)
 134:src/main.cpp  **** 
 135:src/main.cpp  **** 	/* RCC end*/
 136:src/main.cpp  **** 	delayT(MS_TO_TICKS(5000 * 8)); //for program chip (~ 5 sec)
 918              		.loc 2 136 2 is_stmt 1
 919              	.LVL71:
 920              	.LBB45:
 921              	.LBB46:
  40:src/main.cpp  **** 	cnt_prev = SysTick->CNT;
 922              		.loc 2 40 2
  41:src/main.cpp  **** 	cnt_cur = SysTick->CNT;
 923              		.loc 2 41 2
  41:src/main.cpp  **** 	cnt_cur = SysTick->CNT;
 924              		.loc 2 41 11 is_stmt 0
 925 0134 9844     		lw	a4,8(s1)
 926              	.LVL72:
  42:src/main.cpp  **** 	while(cnt_cur < cnt_prev + val) {
 927              		.loc 2 42 2 is_stmt 1
  43:src/main.cpp  **** 		cnt_cur = SysTick->CNT;
GAS LISTING /tmp/ccbRLEvi.s 			page 26


 928              		.loc 2 43 27 is_stmt 0
 929 0136 B7170E00 		li	a5,921600
  42:src/main.cpp  **** 	while(cnt_cur < cnt_prev + val) {
 930              		.loc 2 42 10
 931 013a 9444     		lw	a3,8(s1)
 932              	.LVL73:
  43:src/main.cpp  **** 		cnt_cur = SysTick->CNT;
 933              		.loc 2 43 2 is_stmt 1
  43:src/main.cpp  **** 		cnt_cur = SysTick->CNT;
 934              		.loc 2 43 16
  43:src/main.cpp  **** 		cnt_cur = SysTick->CNT;
 935              		.loc 2 43 27 is_stmt 0
 936 013c 9387079C 		addi	a5,a5,-1600
 937 0140 3E97     		add	a4,a4,a5
 938              	.LVL74:
  43:src/main.cpp  **** 		cnt_cur = SysTick->CNT;
 939              		.loc 2 43 16
 940 0142 63F7E600 		bgeu	a3,a4,.L68
  44:src/main.cpp  **** 	}
 941              		.loc 2 44 11
 942 0146 B7F600E0 		li	a3,-536809472
 943              	.LVL75:
 944              	.L69:
  44:src/main.cpp  **** 	}
 945              		.loc 2 44 3 is_stmt 1
  44:src/main.cpp  **** 	}
 946              		.loc 2 44 11 is_stmt 0
 947 014a 9C46     		lw	a5,8(a3)
 948              	.LVL76:
  43:src/main.cpp  **** 		cnt_cur = SysTick->CNT;
 949              		.loc 2 43 16 is_stmt 1
 950 014c E3EFE7FE 		bltu	a5,a4,.L69
 951              	.LVL77:
 952              	.L68:
  46:src/main.cpp  **** }
 953              		.loc 2 46 2
 954              	.LBE46:
 955              	.LBE45:
 137:src/main.cpp  **** 	RCC->CFGR0 &= ~(RCC_HPRE | RCC_ADCPRE);
 956              		.loc 2 137 2
 957              		.loc 2 137 7 is_stmt 0
 958 0150 B7170240 		li	a5,1073876992
 959 0154 D843     		lw	a4,4(a5)
 960              		.loc 2 137 13
 961 0156 D176     		li	a3,-49152
 962 0158 9386F6F0 		addi	a3,a3,-241
 963 015c 758F     		and	a4,a4,a3
 964 015e D8C3     		sw	a4,4(a5)
 138:src/main.cpp  **** 	RCC->CFGR0 |= RCC_HPRE_DIV128 | RCC_ADCPRE_DIV2;  //HBCLK = 187.5 kHz
 965              		.loc 2 138 2 is_stmt 1
 966              		.loc 2 138 7 is_stmt 0
 967 0160 D843     		lw	a4,4(a5)
 139:src/main.cpp  **** 	SysTick->CNT = 0;
 140:src/main.cpp  **** 	SysTick->CMP = TIMER_UPDATE;
 141:src/main.cpp  **** }
 968              		.loc 2 141 1
 969 0162 A240     		lw	ra,8(sp)
GAS LISTING /tmp/ccbRLEvi.s 			page 27


 970              		.cfi_restore 1
 971 0164 1244     		lw	s0,4(sp)
 972              		.cfi_restore 8
 138:src/main.cpp  **** 	RCC->CFGR0 |= RCC_HPRE_DIV128 | RCC_ADCPRE_DIV2;  //HBCLK = 187.5 kHz
 973              		.loc 2 138 13
 974 0166 1367070E 		ori	a4,a4,224
 975 016a D8C3     		sw	a4,4(a5)
 139:src/main.cpp  **** 	SysTick->CNT = 0;
 976              		.loc 2 139 2 is_stmt 1
 139:src/main.cpp  **** 	SysTick->CNT = 0;
 977              		.loc 2 139 15 is_stmt 0
 978 016c B7F600E0 		li	a3,-536809472
 140:src/main.cpp  **** }
 979              		.loc 2 140 15
 980 0170 B727393B 		li	a5,993599488
 139:src/main.cpp  **** 	SysTick->CNT = 0;
 981              		.loc 2 139 15
 982 0174 23A40600 		sw	zero,8(a3)
 140:src/main.cpp  **** }
 983              		.loc 2 140 2 is_stmt 1
 140:src/main.cpp  **** }
 984              		.loc 2 140 15 is_stmt 0
 985 0178 93870720 		addi	a5,a5,512
 986 017c 9CCA     		sw	a5,16(a3)
 987              		.loc 2 141 1
 988 017e 8244     		lw	s1,0(sp)
 989              		.cfi_restore 9
 990 0180 3101     		addi	sp,sp,12
 991              		.cfi_def_cfa_offset 0
 992 0182 8280     		jr	ra
 993              		.cfi_endproc
 994              	.LFE22:
 996              		.section	.rodata.main.str1.4,"aMS",@progbits,1
 997              		.align	2
 998              	.LC0:
 999 0000 55415254 		.string	"UART is work!!! \n"
 999      20697320 
 999      776F726B 
 999      21212120 
 999      0A00
 1000 0012 0000     		.align	2
 1001              	.LC1:
 1002 0014 4D656173 		.string	"Measurement cycle, click button for exit\n"
 1002      7572656D 
 1002      656E7420 
 1002      6379636C 
 1002      652C2063 
 1003              		.section	.text.startup.main,"ax",@progbits
 1004              		.align	1
 1005              		.globl	main
 1007              	main:
 1008              	.LFB23:
 142:src/main.cpp  **** }
 143:src/main.cpp  **** 
 144:src/main.cpp  **** int main(void)
 145:src/main.cpp  **** {
 1009              		.loc 2 145 1 is_stmt 1
GAS LISTING /tmp/ccbRLEvi.s 			page 28


 1010              		.cfi_startproc
 146:src/main.cpp  **** 	uint8_t tmp;
 1011              		.loc 2 146 2
 147:src/main.cpp  **** 	NVIC_EnableIRQ(SysTick_IRQn);
 1012              		.loc 2 147 2
 1013              	.LVL78:
 1014              	.LBB47:
 1015              	.LBB48:
 164:src/core/core_riscv.h **** 
 165:src/core/core_riscv.h **** /*********************************************************************
 166:src/core/core_riscv.h ****  * @fn      __NOP
 167:src/core/core_riscv.h ****  *
 168:src/core/core_riscv.h ****  * @brief   nop
 169:src/core/core_riscv.h ****  *
 170:src/core/core_riscv.h ****  * @return  none
 171:src/core/core_riscv.h ****  */
 172:src/core/core_riscv.h **** RV_STATIC_INLINE void __NOP()
 173:src/core/core_riscv.h **** {
 174:src/core/core_riscv.h ****   __asm volatile ("nop");
 175:src/core/core_riscv.h **** }
 176:src/core/core_riscv.h **** 
 177:src/core/core_riscv.h **** /*********************************************************************
 178:src/core/core_riscv.h ****  * @fn       NVIC_EnableIRQ
 179:src/core/core_riscv.h ****  *
 180:src/core/core_riscv.h ****  * @brief   Disable Interrupt
 181:src/core/core_riscv.h ****  *
 182:src/core/core_riscv.h ****  * @param   IRQn - Interrupt Numbers
 183:src/core/core_riscv.h ****  *
 184:src/core/core_riscv.h ****  * @return  none
 185:src/core/core_riscv.h ****  */
 186:src/core/core_riscv.h **** RV_STATIC_INLINE void NVIC_EnableIRQ(IRQn_Type IRQn)
 187:src/core/core_riscv.h **** {
 188:src/core/core_riscv.h ****   NVIC->IENR[((uint32_t)(IRQn) >> 5)] = (1 << ((uint32_t)(IRQn) & 0x1F));
 1016              		.loc 3 188 3
 1017              	.LBE48:
 1018              	.LBE47:
 145:src/main.cpp  **** 	uint8_t tmp;
 1019              		.loc 2 145 1 is_stmt 0
 1020 0000 3111     		addi	sp,sp,-20
 1021              		.cfi_def_cfa_offset 20
 1022 0002 06C8     		sw	ra,16(sp)
 1023 0004 22C6     		sw	s0,12(sp)
 1024 0006 26C4     		sw	s1,8(sp)
 1025              		.cfi_offset 1, -4
 1026              		.cfi_offset 8, -8
 1027              		.cfi_offset 9, -12
 1028              	.LBB50:
 1029              	.LBB49:
 1030              		.loc 3 188 39
 1031 0008 B7E700E0 		li	a5,-536813568
 1032 000c 0567     		li	a4,4096
 1033 000e 23A0E710 		sw	a4,256(a5)
 1034              	.LVL79:
 1035              	.LBE49:
 1036              	.LBE50:
 148:src/main.cpp  **** 	NVIC_EnableIRQ(USART1_IRQn);
 1037              		.loc 2 148 2 is_stmt 1
GAS LISTING /tmp/ccbRLEvi.s 			page 29


 1038              	.LBB51:
 1039              	.LBB52:
 1040              		.loc 3 188 3
 1041              		.loc 3 188 39 is_stmt 0
 1042 0012 0547     		li	a4,1
 1043 0014 23A2E710 		sw	a4,260(a5)
 1044              	.LVL80:
 1045              	.LBE52:
 1046              	.LBE51:
 149:src/main.cpp  **** 	NVIC_EnableIRQ(EXTI7_0_IRQn);
 1047              		.loc 2 149 2 is_stmt 1
 1048              	.LBB53:
 1049              	.LBB54:
 1050              		.loc 3 188 3
 1051              		.loc 3 188 39 is_stmt 0
 1052 0018 37071000 		li	a4,1048576
 1053 001c 23A0E710 		sw	a4,256(a5)
 1054              	.LVL81:
 1055              	.LBE54:
 1056              	.LBE53:
 150:src/main.cpp  **** 	NVIC_EnableIRQ(HardFault_IRQn);
 1057              		.loc 2 150 2 is_stmt 1
 1058              	.LBB55:
 1059              	.LBB56:
 1060              		.loc 3 188 3
 1061              		.loc 3 188 39 is_stmt 0
 1062 0020 2147     		li	a4,8
 1063 0022 23A0E710 		sw	a4,256(a5)
 1064              	.LVL82:
 1065              	.LBE56:
 1066              	.LBE55:
 151:src/main.cpp  **** 	
 152:src/main.cpp  **** 	__enable_irq();
 1067              		.loc 2 152 2 is_stmt 1
 1068              	.LBB57:
 1069              	.LBB58:
 142:src/core/core_riscv.h **** 
 1070              		.loc 3 142 3
 144:src/core/core_riscv.h ****   result |= 0x88;
 1071              		.loc 3 144 3
 1072              	 #APP
 1073              	# 144 "src/core/core_riscv.h" 1
 1074              		csrr a5,mstatus
 1075              	# 0 "" 2
 1076              	.LVL83:
 145:src/core/core_riscv.h ****   __asm volatile ("csrw mstatus, %0" : : "r" (result) );
 1077              		.loc 3 145 3
 146:src/core/core_riscv.h **** }
 1078              		.loc 3 146 3
 145:src/core/core_riscv.h ****   __asm volatile ("csrw mstatus, %0" : : "r" (result) );
 1079              		.loc 3 145 10 is_stmt 0
 1080              	 #NO_APP
 1081 002a 93E78708 		ori	a5,a5,136
 1082              	.LVL84:
 146:src/core/core_riscv.h **** }
 1083              		.loc 3 146 3
 1084              	 #APP
GAS LISTING /tmp/ccbRLEvi.s 			page 30


 1085              	# 146 "src/core/core_riscv.h" 1
 1086              		csrw mstatus, a5
 1087              	# 0 "" 2
 1088              	.LVL85:
 1089              	 #NO_APP
 1090              	.LBE58:
 1091              	.LBE57:
 153:src/main.cpp  **** 
 154:src/main.cpp  **** 	uart1.print("UART is work!!! \n");
 1092              		.loc 2 154 2 is_stmt 1
 1093              		.loc 2 154 13 is_stmt 0
 1094 0032 B7070000 		lui	a5,%hi(uart1)
 1095 0036 B7050000 		lui	a1,%hi(.LC0)
 1096 003a 13850700 		addi	a0,a5,%lo(uart1)
 1097 003e 93850500 		addi	a1,a1,%lo(.LC0)
 1098 0042 97000000 		call	_ZN4uart5printEPKc
 1098      E7800000 
 1099              	.LVL86:
 155:src/main.cpp  **** 	sens_val_border = flash_get(); 
 1100              		.loc 2 155 2 is_stmt 1
 1101              	.LBB59:
 1102              	.LBB60:
  50:src/main.cpp  **** }
 1103              		.loc 2 50 2
  50:src/main.cpp  **** }
 1104              		.loc 2 50 9 is_stmt 0
 1105 004a B7470008 		li	a5,134234112
  50:src/main.cpp  **** }
 1106              		.loc 2 50 10
 1107 004e 83A707FC 		lw	a5,-64(a5)
 1108 0052 37070000 		lui	a4,%hi(sens_val_border)
 1109 0056 37040000 		lui	s0,%hi(awtr_state)
 1110 005a 2300F700 		sb	a5,%lo(sens_val_border)(a4)
 1111 005e B7070000 		lui	a5,%hi(.L76)
 1112 0062 93870700 		addi	a5,a5,%lo(.L76)
 1113 0066 3EC2     		sw	a5,4(sp)
 1114              	.LBE60:
 1115              	.LBE59:
 1116              	.LBB61:
 156:src/main.cpp  **** 	
 157:src/main.cpp  **** 	while(1) {
 158:src/main.cpp  **** 		switch(awtr_state) {
 1117              		.loc 2 158 3
 1118 0068 9144     		li	s1,4
 1119              	.L74:
 1120              	.LBE61:
 157:src/main.cpp  **** 		switch(awtr_state) {
 1121              		.loc 2 157 2 is_stmt 1
 1122              		.loc 2 158 3
 1123              	.LBB81:
 1124              		.loc 2 158 10 is_stmt 0
 1125 006a 83270400 		lw	a5,%lo(awtr_state)(s0)
 1126              		.loc 2 158 3
 1127 006e E3EEF4FE 		bgtu	a5,s1,.L74
 1128 0072 1247     		lw	a4,4(sp)
 1129 0074 8A07     		slli	a5,a5,2
 1130 0076 BA97     		add	a5,a4,a5
GAS LISTING /tmp/ccbRLEvi.s 			page 31


 1131 0078 9C43     		lw	a5,0(a5)
 1132 007a 8287     		jr	a5
 1133              		.section	.rodata.main,"a",@progbits
 1134              		.align	2
 1135              		.align	2
 1136              	.L76:
 1137 0000 00000000 		.word	.L80
 1138 0004 00000000 		.word	.L79
 1139 0008 00000000 		.word	.L78
 1140 000c 00000000 		.word	.L77
 1141 0010 00000000 		.word	.L75
 1142              		.section	.text.startup.main
 1143              	.L77:
 1144              	.LBB62:
 159:src/main.cpp  **** 		case blink:
 160:src/main.cpp  **** 			led_on();
 161:src/main.cpp  **** 			delayT(MS_TO_TICKS(10));
 162:src/main.cpp  **** 			led_off();
 163:src/main.cpp  **** 			awtr_state = waiting;
 164:src/main.cpp  **** 			break;
 165:src/main.cpp  **** 		case waiting:
 166:src/main.cpp  **** 			uint32_t cnt_prev, cnt_cur;
 167:src/main.cpp  **** 			cnt_prev = SysTick->CNT;
 168:src/main.cpp  **** 			cnt_cur = SysTick->CNT;
 169:src/main.cpp  **** 			while(cnt_cur < cnt_prev + MS_TO_TICKS(4000) && awtr_state == waiting) {
 170:src/main.cpp  **** 				cnt_cur = SysTick->CNT;
 171:src/main.cpp  **** 			}
 172:src/main.cpp  **** 			break;
 173:src/main.cpp  **** 
 174:src/main.cpp  **** 		case click:
 175:src/main.cpp  **** 			sens_val = sens_get();
 176:src/main.cpp  **** 			if(sens_val > sens_val_border) {
 177:src/main.cpp  **** 				__disable_irq();
 178:src/main.cpp  **** 				pump_on();
 179:src/main.cpp  **** 				delayT(MS_TO_TICKS(AWTR_WATERING_TIME));
 180:src/main.cpp  **** 				pump_off();
 181:src/main.cpp  **** 				__enable_irq();
 182:src/main.cpp  **** 				intToASCII(sens_val, msg_click_dry + 15, 3);
 183:src/main.cpp  **** 				uart1.send(msg_click_dry, sizeof(msg_click_dry) - 1);
 184:src/main.cpp  **** 			}
 185:src/main.cpp  **** 			else {
 186:src/main.cpp  **** 				intToASCII(sens_val, msg_click_wet + 15, 3);
 187:src/main.cpp  **** 				uart1.send(msg_click_wet, sizeof(msg_click_wet) - 1);
 188:src/main.cpp  **** 			}
 189:src/main.cpp  **** 			awtr_state = toSleep;
 190:src/main.cpp  **** 			break;
 191:src/main.cpp  **** 		case hold:
 1145              		.loc 2 191 3 is_stmt 1
 192:src/main.cpp  **** 			sens_val_border = sens_get();
 1146              		.loc 2 192 4
 1147              		.loc 2 192 30 is_stmt 0
 1148 007c 97000000 		call	_Z8sens_getv
 1148      E7800000 
 1149              	.LVL87:
 1150              		.loc 2 192 20
 1151 0084 B7070000 		lui	a5,%hi(sens_val_border)
 1152 0088 1375F50F 		andi	a0,a0,0xff
GAS LISTING /tmp/ccbRLEvi.s 			page 32


 1153 008c 2380A700 		sb	a0,%lo(sens_val_border)(a5)
 193:src/main.cpp  **** 			tmp = flash_save(sens_val_border);
 1154              		.loc 2 193 4 is_stmt 1
 1155              		.loc 2 193 20 is_stmt 0
 1156 0090 97000000 		call	_Z10flash_saveh
 1156      E7800000 
 1157              	.LVL88:
 1158              	.LBB63:
 1159              	.LBB64:
  50:src/main.cpp  **** }
 1160              		.loc 2 50 9
 1161 0098 B7470008 		li	a5,134234112
  50:src/main.cpp  **** }
 1162              		.loc 2 50 10
 1163 009c 83A707FC 		lw	a5,-64(a5)
 1164 00a0 37070000 		lui	a4,%hi(sens_val_border)
 1165              	.LBE64:
 1166              	.LBE63:
 1167              		.loc 2 193 20
 1168 00a4 2AC0     		sw	a0,0(sp)
 1169              	.LVL89:
 194:src/main.cpp  **** 			sens_val_border = flash_get();
 1170              		.loc 2 194 4 is_stmt 1
 1171              	.LBB66:
 1172              	.LBB65:
  50:src/main.cpp  **** }
 1173              		.loc 2 50 2
  50:src/main.cpp  **** }
 1174              		.loc 2 50 10 is_stmt 0
 1175 00a6 2300F700 		sb	a5,%lo(sens_val_border)(a4)
 1176              	.LBE65:
 1177              	.LBE66:
 195:src/main.cpp  **** 			led_on();
 1178              		.loc 2 195 4 is_stmt 1
 1179              		.loc 2 195 10 is_stmt 0
 1180 00aa 97000000 		call	_Z6led_onv
 1180      E7800000 
 1181              	.LVL90:
 196:src/main.cpp  **** 			intToASCII(tmp, msg_hold + 1, 1);
 1182              		.loc 2 196 4 is_stmt 1
 1183              		.loc 2 196 14 is_stmt 0
 1184 00b2 0245     		lw	a0,0(sp)
 1185 00b4 B7060000 		lui	a3,%hi(msg_hold+1)
 1186 00b8 93851600 		addi	a1,a3,%lo(msg_hold+1)
 1187 00bc 0546     		li	a2,1
 1188 00be 97000000 		call	_Z10intToASCIIiPhh
 1188      E7800000 
 1189              	.LVL91:
 197:src/main.cpp  **** 			intToASCII(sens_val_border, msg_hold + 17, 3);
 1190              		.loc 2 197 4 is_stmt 1
 1191              		.loc 2 197 14 is_stmt 0
 1192 00c6 37070000 		lui	a4,%hi(sens_val_border)
 1193 00ca 03450700 		lbu	a0,%lo(sens_val_border)(a4)
 1194 00ce B7070000 		lui	a5,%hi(msg_hold+17)
 1195 00d2 93851701 		addi	a1,a5,%lo(msg_hold+17)
 1196 00d6 0D46     		li	a2,3
 1197 00d8 97000000 		call	_Z10intToASCIIiPhh
GAS LISTING /tmp/ccbRLEvi.s 			page 33


 1197      E7800000 
 1198              	.LVL92:
 198:src/main.cpp  **** 			uart1.send(msg_hold, sizeof(msg_hold) - 1);
 1199              		.loc 2 198 4 is_stmt 1
 1200              		.loc 2 198 14 is_stmt 0
 1201 00e0 B7070000 		lui	a5,%hi(msg_hold)
 1202 00e4 93850700 		addi	a1,a5,%lo(msg_hold)
 1203 00e8 B7070000 		lui	a5,%hi(uart1)
 1204 00ec 0147     		li	a4,0
 1205 00ee 13850700 		addi	a0,a5,%lo(uart1)
 1206 00f2 8146     		li	a3,0
 1207 00f4 5546     		li	a2,21
 1208 00f6 97000000 		call	_ZN4uart4sendEPhtPFvvEh
 1208      E7800000 
 1209              	.LVL93:
 199:src/main.cpp  **** 			delayT(MS_TO_TICKS(10));
 1210              		.loc 2 199 4 is_stmt 1
 1211              	.LBB67:
 1212              	.LBB68:
  40:src/main.cpp  **** 	cnt_prev = SysTick->CNT;
 1213              		.loc 2 40 2
  41:src/main.cpp  **** 	cnt_cur = SysTick->CNT;
 1214              		.loc 2 41 2
  41:src/main.cpp  **** 	cnt_cur = SysTick->CNT;
 1215              		.loc 2 41 11 is_stmt 0
 1216 00fe B7F700E0 		li	a5,-536809472
 1217 0102 9847     		lw	a4,8(a5)
 1218              	.LVL94:
  42:src/main.cpp  **** 	while(cnt_cur < cnt_prev + val) {
 1219              		.loc 2 42 2 is_stmt 1
  42:src/main.cpp  **** 	while(cnt_cur < cnt_prev + val) {
 1220              		.loc 2 42 10 is_stmt 0
 1221 0104 9C47     		lw	a5,8(a5)
 1222              	.LVL95:
  43:src/main.cpp  **** 		cnt_cur = SysTick->CNT;
 1223              		.loc 2 43 2 is_stmt 1
  43:src/main.cpp  **** 		cnt_cur = SysTick->CNT;
 1224              		.loc 2 43 16
  43:src/main.cpp  **** 		cnt_cur = SysTick->CNT;
 1225              		.loc 2 43 27 is_stmt 0
 1226 0106 1307670E 		addi	a4,a4,230
 1227              	.LVL96:
  43:src/main.cpp  **** 		cnt_cur = SysTick->CNT;
 1228              		.loc 2 43 16
 1229 010a 63F7E700 		bgeu	a5,a4,.L90
  44:src/main.cpp  **** 	}
 1230              		.loc 2 44 11
 1231 010e B7F600E0 		li	a3,-536809472
 1232              	.LVL97:
 1233              	.L91:
  44:src/main.cpp  **** 	}
 1234              		.loc 2 44 3 is_stmt 1
  44:src/main.cpp  **** 	}
 1235              		.loc 2 44 11 is_stmt 0
 1236 0112 9C46     		lw	a5,8(a3)
 1237              	.LVL98:
  43:src/main.cpp  **** 		cnt_cur = SysTick->CNT;
GAS LISTING /tmp/ccbRLEvi.s 			page 34


 1238              		.loc 2 43 16 is_stmt 1
 1239 0114 E3EFE7FE 		bltu	a5,a4,.L91
 1240              	.LVL99:
 1241              	.L90:
  46:src/main.cpp  **** }
 1242              		.loc 2 46 2
 1243              	.LBE68:
 1244              	.LBE67:
 200:src/main.cpp  **** 			led_off();
 1245              		.loc 2 200 4
 1246              		.loc 2 200 11 is_stmt 0
 1247 0118 97000000 		call	_Z7led_offv
 1247      E7800000 
 1248              	.LVL100:
 1249 0120 89A8     		j	.L103
 1250              	.LVL101:
 1251              	.L78:
 174:src/main.cpp  **** 			sens_val = sens_get();
 1252              		.loc 2 174 3 is_stmt 1
 175:src/main.cpp  **** 			if(sens_val > sens_val_border) {
 1253              		.loc 2 175 4
 175:src/main.cpp  **** 			if(sens_val > sens_val_border) {
 1254              		.loc 2 175 23 is_stmt 0
 1255 0122 97000000 		call	_Z8sens_getv
 1255      E7800000 
 1256              	.LVL102:
 176:src/main.cpp  **** 				__disable_irq();
 1257              		.loc 2 176 4
 1258 012a B7070000 		lui	a5,%hi(sens_val_border)
 1259 012e 83C70700 		lbu	a5,%lo(sens_val_border)(a5)
 175:src/main.cpp  **** 			if(sens_val > sens_val_border) {
 1260              		.loc 2 175 13
 1261 0132 1375F50F 		andi	a0,a0,0xff
 1262 0136 37070000 		lui	a4,%hi(sens_val)
 1263 013a 2300A700 		sb	a0,%lo(sens_val)(a4)
 176:src/main.cpp  **** 				__disable_irq();
 1264              		.loc 2 176 4 is_stmt 1
 1265 013e 63E5A712 		bltu	a5,a0,.L104
 186:src/main.cpp  **** 				uart1.send(msg_click_wet, sizeof(msg_click_wet) - 1);
 1266              		.loc 2 186 5
 186:src/main.cpp  **** 				uart1.send(msg_click_wet, sizeof(msg_click_wet) - 1);
 1267              		.loc 2 186 15 is_stmt 0
 1268 0142 B7070000 		lui	a5,%hi(msg_click_wet+15)
 1269 0146 9385F700 		addi	a1,a5,%lo(msg_click_wet+15)
 1270 014a 0D46     		li	a2,3
 1271 014c 97000000 		call	_Z10intToASCIIiPhh
 1271      E7800000 
 1272              	.LVL103:
 187:src/main.cpp  **** 			}
 1273              		.loc 2 187 5 is_stmt 1
 187:src/main.cpp  **** 			}
 1274              		.loc 2 187 15 is_stmt 0
 1275 0154 B7070000 		lui	a5,%hi(msg_click_wet)
 1276 0158 93850700 		addi	a1,a5,%lo(msg_click_wet)
 1277 015c B7070000 		lui	a5,%hi(uart1)
 1278 0160 0147     		li	a4,0
 1279 0162 8146     		li	a3,0
GAS LISTING /tmp/ccbRLEvi.s 			page 35


 1280 0164 4D46     		li	a2,19
 1281 0166 13850700 		addi	a0,a5,%lo(uart1)
 1282 016a 97000000 		call	_ZN4uart4sendEPhtPFvvEh
 1282      E7800000 
 1283              	.LVL104:
 189:src/main.cpp  **** 			break;
 1284              		.loc 2 189 4 is_stmt 1
 1285              	.L103:
 201:src/main.cpp  **** 			awtr_state = toSleep;
 1286              		.loc 2 201 4
 1287              		.loc 2 201 15 is_stmt 0
 1288 0172 9547     		li	a5,5
 1289 0174 2320F400 		sw	a5,%lo(awtr_state)(s0)
 202:src/main.cpp  **** 			break;
 1290              		.loc 2 202 4 is_stmt 1
 1291 0178 CDBD     		j	.L74
 1292              	.L80:
 159:src/main.cpp  **** 			led_on();
 1293              		.loc 2 159 3
 160:src/main.cpp  **** 			delayT(MS_TO_TICKS(10));
 1294              		.loc 2 160 4
 160:src/main.cpp  **** 			delayT(MS_TO_TICKS(10));
 1295              		.loc 2 160 10 is_stmt 0
 1296 017a 97000000 		call	_Z6led_onv
 1296      E7800000 
 1297              	.LVL105:
 161:src/main.cpp  **** 			led_off();
 1298              		.loc 2 161 4 is_stmt 1
 1299              	.LBB69:
 1300              	.LBB70:
  40:src/main.cpp  **** 	cnt_prev = SysTick->CNT;
 1301              		.loc 2 40 2
  41:src/main.cpp  **** 	cnt_cur = SysTick->CNT;
 1302              		.loc 2 41 2
  41:src/main.cpp  **** 	cnt_cur = SysTick->CNT;
 1303              		.loc 2 41 11 is_stmt 0
 1304 0182 B7F700E0 		li	a5,-536809472
 1305 0186 9847     		lw	a4,8(a5)
 1306              	.LVL106:
  42:src/main.cpp  **** 	while(cnt_cur < cnt_prev + val) {
 1307              		.loc 2 42 2 is_stmt 1
  42:src/main.cpp  **** 	while(cnt_cur < cnt_prev + val) {
 1308              		.loc 2 42 10 is_stmt 0
 1309 0188 9C47     		lw	a5,8(a5)
 1310              	.LVL107:
  43:src/main.cpp  **** 		cnt_cur = SysTick->CNT;
 1311              		.loc 2 43 2 is_stmt 1
  43:src/main.cpp  **** 		cnt_cur = SysTick->CNT;
 1312              		.loc 2 43 16
  43:src/main.cpp  **** 		cnt_cur = SysTick->CNT;
 1313              		.loc 2 43 27 is_stmt 0
 1314 018a 1307670E 		addi	a4,a4,230
 1315              	.LVL108:
  43:src/main.cpp  **** 		cnt_cur = SysTick->CNT;
 1316              		.loc 2 43 16
 1317 018e 63F7E700 		bgeu	a5,a4,.L81
  44:src/main.cpp  **** 	}
GAS LISTING /tmp/ccbRLEvi.s 			page 36


 1318              		.loc 2 44 11
 1319 0192 B7F600E0 		li	a3,-536809472
 1320              	.LVL109:
 1321              	.L82:
  44:src/main.cpp  **** 	}
 1322              		.loc 2 44 3 is_stmt 1
  44:src/main.cpp  **** 	}
 1323              		.loc 2 44 11 is_stmt 0
 1324 0196 9C46     		lw	a5,8(a3)
 1325              	.LVL110:
  43:src/main.cpp  **** 		cnt_cur = SysTick->CNT;
 1326              		.loc 2 43 16 is_stmt 1
 1327 0198 E3EFE7FE 		bltu	a5,a4,.L82
 1328              	.LVL111:
 1329              	.L81:
  46:src/main.cpp  **** }
 1330              		.loc 2 46 2
 1331              	.LBE70:
 1332              	.LBE69:
 162:src/main.cpp  **** 			awtr_state = waiting;
 1333              		.loc 2 162 4
 162:src/main.cpp  **** 			awtr_state = waiting;
 1334              		.loc 2 162 11 is_stmt 0
 1335 019c 97000000 		call	_Z7led_offv
 1335      E7800000 
 1336              	.LVL112:
 163:src/main.cpp  **** 			break;
 1337              		.loc 2 163 4 is_stmt 1
 163:src/main.cpp  **** 			break;
 1338              		.loc 2 163 15 is_stmt 0
 1339 01a4 8547     		li	a5,1
 1340 01a6 2320F400 		sw	a5,%lo(awtr_state)(s0)
 164:src/main.cpp  **** 		case waiting:
 1341              		.loc 2 164 4 is_stmt 1
 1342 01aa C1B5     		j	.L74
 1343              	.L79:
 165:src/main.cpp  **** 			uint32_t cnt_prev, cnt_cur;
 1344              		.loc 2 165 3
 166:src/main.cpp  **** 			cnt_prev = SysTick->CNT;
 1345              		.loc 2 166 4
 167:src/main.cpp  **** 			cnt_cur = SysTick->CNT;
 1346              		.loc 2 167 4
 167:src/main.cpp  **** 			cnt_cur = SysTick->CNT;
 1347              		.loc 2 167 13 is_stmt 0
 1348 01ac B7F700E0 		li	a5,-536809472
 1349 01b0 9847     		lw	a4,8(a5)
 1350              	.LVL113:
 168:src/main.cpp  **** 			while(cnt_cur < cnt_prev + MS_TO_TICKS(4000) && awtr_state == waiting) {
 1351              		.loc 2 168 4 is_stmt 1
 168:src/main.cpp  **** 			while(cnt_cur < cnt_prev + MS_TO_TICKS(4000) && awtr_state == waiting) {
 1352              		.loc 2 168 12 is_stmt 0
 1353 01b2 9447     		lw	a3,8(a5)
 1354              	.LVL114:
 169:src/main.cpp  **** 				cnt_cur = SysTick->CNT;
 1355              		.loc 2 169 4 is_stmt 1
 169:src/main.cpp  **** 				cnt_cur = SysTick->CNT;
 1356              		.loc 2 169 49
GAS LISTING /tmp/ccbRLEvi.s 			page 37


 169:src/main.cpp  **** 				cnt_cur = SysTick->CNT;
 1357              		.loc 2 169 29 is_stmt 0
 1358 01b4 D967     		li	a5,90112
 1359 01b6 93870776 		addi	a5,a5,1888
 1360 01ba 3E97     		add	a4,a4,a5
 1361              	.LVL115:
 169:src/main.cpp  **** 				cnt_cur = SysTick->CNT;
 1362              		.loc 2 169 49
 1363 01bc E3F7E6EA 		bgeu	a3,a4,.L74
 1364 01c0 8546     		li	a3,1
 170:src/main.cpp  **** 			}
 1365              		.loc 2 170 13
 1366 01c2 37F600E0 		li	a2,-536809472
 1367 01c6 21A0     		j	.L85
 1368              	.L105:
 170:src/main.cpp  **** 			}
 1369              		.loc 2 170 5 is_stmt 1
 170:src/main.cpp  **** 			}
 1370              		.loc 2 170 13 is_stmt 0
 1371 01c8 1C46     		lw	a5,8(a2)
 1372              	.LVL116:
 169:src/main.cpp  **** 				cnt_cur = SysTick->CNT;
 1373              		.loc 2 169 49 is_stmt 1
 1374 01ca E3F0E7EA 		bgeu	a5,a4,.L74
 1375              	.LVL117:
 1376              	.L85:
 169:src/main.cpp  **** 				cnt_cur = SysTick->CNT;
 1377              		.loc 2 169 63 is_stmt 0 discriminator 1
 1378 01ce 83270400 		lw	a5,%lo(awtr_state)(s0)
 169:src/main.cpp  **** 				cnt_cur = SysTick->CNT;
 1379              		.loc 2 169 49 discriminator 1
 1380 01d2 E38BD7FE 		beq	a5,a3,.L105
 1381 01d6 51BD     		j	.L74
 1382              	.LVL118:
 1383              	.L75:
 203:src/main.cpp  **** 		case long_hold:
 1384              		.loc 2 203 3 is_stmt 1
 204:src/main.cpp  **** 			uart1.print("Measurement cycle, click button for exit\n");
 1385              		.loc 2 204 4
 1386              		.loc 2 204 15 is_stmt 0
 1387 01d8 B7070000 		lui	a5,%hi(.LC1)
 1388 01dc 93850700 		addi	a1,a5,%lo(.LC1)
 1389 01e0 B7070000 		lui	a5,%hi(uart1)
 1390 01e4 13850700 		addi	a0,a5,%lo(uart1)
 1391 01e8 97000000 		call	_ZN4uart5printEPKc
 1391      E7800000 
 1392              	.LVL119:
 205:src/main.cpp  **** 			while(awtr_state == long_hold) {
 1393              		.loc 2 205 4 is_stmt 1
 1394              		.loc 2 205 21
 1395 01f0 83270400 		lw	a5,%lo(awtr_state)(s0)
 1396 01f4 E39B97E6 		bne	a5,s1,.L74
 1397              	.LBB71:
 1398              	.LBB72:
  43:src/main.cpp  **** 		cnt_cur = SysTick->CNT;
 1399              		.loc 2 43 27 is_stmt 0
 1400 01f8 9967     		li	a5,24576
GAS LISTING /tmp/ccbRLEvi.s 			page 38


 1401 01fa 9387879D 		addi	a5,a5,-1576
 1402 01fe 3EC0     		sw	a5,0(sp)
 1403              	.L94:
 1404              	.LBE72:
 1405              	.LBE71:
 206:src/main.cpp  **** 				sens_val = sens_get();
 1406              		.loc 2 206 5 is_stmt 1
 1407              		.loc 2 206 24 is_stmt 0
 1408 0200 97000000 		call	_Z8sens_getv
 1408      E7800000 
 1409              	.LVL120:
 207:src/main.cpp  **** 				intToASCII(sens_val, msg_lhold + 14, 3);
 1410              		.loc 2 207 15
 1411 0208 B7070000 		lui	a5,%hi(msg_lhold+14)
 206:src/main.cpp  **** 				sens_val = sens_get();
 1412              		.loc 2 206 14
 1413 020c 1375F50F 		andi	a0,a0,0xff
 1414              		.loc 2 207 15
 1415 0210 9385E700 		addi	a1,a5,%lo(msg_lhold+14)
 1416 0214 0D46     		li	a2,3
 206:src/main.cpp  **** 				sens_val = sens_get();
 1417              		.loc 2 206 14
 1418 0216 B7070000 		lui	a5,%hi(sens_val)
 1419 021a 2380A700 		sb	a0,%lo(sens_val)(a5)
 1420              		.loc 2 207 5 is_stmt 1
 1421              		.loc 2 207 15 is_stmt 0
 1422 021e 97000000 		call	_Z10intToASCIIiPhh
 1422      E7800000 
 1423              	.LVL121:
 208:src/main.cpp  **** 				uart1.send(msg_lhold, sizeof(msg_lhold) - 1);
 1424              		.loc 2 208 5 is_stmt 1
 1425              		.loc 2 208 15 is_stmt 0
 1426 0226 B7070000 		lui	a5,%hi(msg_lhold)
 1427 022a 93850700 		addi	a1,a5,%lo(msg_lhold)
 1428 022e B7070000 		lui	a5,%hi(uart1)
 1429 0232 0147     		li	a4,0
 1430 0234 8146     		li	a3,0
 1431 0236 13850700 		addi	a0,a5,%lo(uart1)
 1432 023a 4946     		li	a2,18
 1433 023c 97000000 		call	_ZN4uart4sendEPhtPFvvEh
 1433      E7800000 
 1434              	.LVL122:
 209:src/main.cpp  **** 				delayT(MS_TO_TICKS(1000));
 1435              		.loc 2 209 5 is_stmt 1
 1436              	.LBB74:
 1437              	.LBB73:
  40:src/main.cpp  **** 	cnt_prev = SysTick->CNT;
 1438              		.loc 2 40 2
  41:src/main.cpp  **** 	cnt_cur = SysTick->CNT;
 1439              		.loc 2 41 2
  41:src/main.cpp  **** 	cnt_cur = SysTick->CNT;
 1440              		.loc 2 41 11 is_stmt 0
 1441 0244 B7F700E0 		li	a5,-536809472
 1442 0248 9847     		lw	a4,8(a5)
 1443              	.LVL123:
  42:src/main.cpp  **** 	while(cnt_cur < cnt_prev + val) {
 1444              		.loc 2 42 2 is_stmt 1
GAS LISTING /tmp/ccbRLEvi.s 			page 39


  43:src/main.cpp  **** 		cnt_cur = SysTick->CNT;
 1445              		.loc 2 43 27 is_stmt 0
 1446 024a 8246     		lw	a3,0(sp)
  42:src/main.cpp  **** 	while(cnt_cur < cnt_prev + val) {
 1447              		.loc 2 42 10
 1448 024c 9C47     		lw	a5,8(a5)
 1449              	.LVL124:
  43:src/main.cpp  **** 		cnt_cur = SysTick->CNT;
 1450              		.loc 2 43 2 is_stmt 1
  43:src/main.cpp  **** 		cnt_cur = SysTick->CNT;
 1451              		.loc 2 43 16
  43:src/main.cpp  **** 		cnt_cur = SysTick->CNT;
 1452              		.loc 2 43 27 is_stmt 0
 1453 024e 3697     		add	a4,a4,a3
 1454              	.LVL125:
  43:src/main.cpp  **** 		cnt_cur = SysTick->CNT;
 1455              		.loc 2 43 16
 1456 0250 63F7E700 		bgeu	a5,a4,.L92
  44:src/main.cpp  **** 	}
 1457              		.loc 2 44 11
 1458 0254 B7F600E0 		li	a3,-536809472
 1459              	.LVL126:
 1460              	.L93:
  44:src/main.cpp  **** 	}
 1461              		.loc 2 44 3 is_stmt 1
  44:src/main.cpp  **** 	}
 1462              		.loc 2 44 11 is_stmt 0
 1463 0258 9C46     		lw	a5,8(a3)
 1464              	.LVL127:
  43:src/main.cpp  **** 		cnt_cur = SysTick->CNT;
 1465              		.loc 2 43 16 is_stmt 1
 1466 025a E3EFE7FE 		bltu	a5,a4,.L93
 1467              	.LVL128:
 1468              	.L92:
 1469              	.LBE73:
 1470              	.LBE74:
 205:src/main.cpp  **** 				sens_val = sens_get();
 1471              		.loc 2 205 21
 1472 025e 83270400 		lw	a5,%lo(awtr_state)(s0)
 1473 0262 E38F97F8 		beq	a5,s1,.L94
 1474 0266 11B5     		j	.L74
 1475              	.L104:
 177:src/main.cpp  **** 				pump_on();
 1476              		.loc 2 177 5
 1477              	.LBB75:
 1478              	.LBB76:
 158:src/core/core_riscv.h **** 
 1479              		.loc 3 158 3
 160:src/core/core_riscv.h ****   result &= ~0x88;
 1480              		.loc 3 160 3
 1481              	 #APP
 1482              	# 160 "src/core/core_riscv.h" 1
 1483              		csrr a5,mstatus
 1484              	# 0 "" 2
 1485              	.LVL129:
 161:src/core/core_riscv.h ****   __asm volatile ("csrw mstatus, %0" : : "r" (result) );
 1486              		.loc 3 161 3
GAS LISTING /tmp/ccbRLEvi.s 			page 40


 162:src/core/core_riscv.h **** }
 1487              		.loc 3 162 3
 161:src/core/core_riscv.h ****   __asm volatile ("csrw mstatus, %0" : : "r" (result) );
 1488              		.loc 3 161 10 is_stmt 0
 1489              	 #NO_APP
 1490 026c 93F777F7 		andi	a5,a5,-137
 1491              	.LVL130:
 162:src/core/core_riscv.h **** }
 1492              		.loc 3 162 3
 1493              	 #APP
 1494              	# 162 "src/core/core_riscv.h" 1
 1495              		csrw mstatus, a5
 1496              	# 0 "" 2
 1497              	.LVL131:
 1498              	 #NO_APP
 1499              	.LBE76:
 1500              	.LBE75:
 178:src/main.cpp  **** 				delayT(MS_TO_TICKS(AWTR_WATERING_TIME));
 1501              		.loc 2 178 5 is_stmt 1
 178:src/main.cpp  **** 				delayT(MS_TO_TICKS(AWTR_WATERING_TIME));
 1502              		.loc 2 178 12 is_stmt 0
 1503 0274 97000000 		call	_Z7pump_onv
 1503      E7800000 
 1504              	.LVL132:
 179:src/main.cpp  **** 				pump_off();
 1505              		.loc 2 179 5 is_stmt 1
 1506              	.LBB77:
 1507              	.LBB78:
  40:src/main.cpp  **** 	cnt_prev = SysTick->CNT;
 1508              		.loc 2 40 2
  41:src/main.cpp  **** 	cnt_cur = SysTick->CNT;
 1509              		.loc 2 41 2
  41:src/main.cpp  **** 	cnt_cur = SysTick->CNT;
 1510              		.loc 2 41 11 is_stmt 0
 1511 027c B7F700E0 		li	a5,-536809472
 1512 0280 9847     		lw	a4,8(a5)
 1513              	.LVL133:
  42:src/main.cpp  **** 	while(cnt_cur < cnt_prev + val) {
 1514              		.loc 2 42 2 is_stmt 1
  42:src/main.cpp  **** 	while(cnt_cur < cnt_prev + val) {
 1515              		.loc 2 42 10 is_stmt 0
 1516 0282 9447     		lw	a3,8(a5)
 1517              	.LVL134:
  43:src/main.cpp  **** 		cnt_cur = SysTick->CNT;
 1518              		.loc 2 43 2 is_stmt 1
  43:src/main.cpp  **** 		cnt_cur = SysTick->CNT;
 1519              		.loc 2 43 16
  43:src/main.cpp  **** 		cnt_cur = SysTick->CNT;
 1520              		.loc 2 43 27 is_stmt 0
 1521 0284 AD67     		li	a5,45056
 1522 0286 9387073B 		addi	a5,a5,944
 1523 028a 3E97     		add	a4,a4,a5
 1524              	.LVL135:
  43:src/main.cpp  **** 		cnt_cur = SysTick->CNT;
 1525              		.loc 2 43 16
 1526 028c 63F7E600 		bgeu	a3,a4,.L87
  44:src/main.cpp  **** 	}
GAS LISTING /tmp/ccbRLEvi.s 			page 41


 1527              		.loc 2 44 11
 1528 0290 B7F600E0 		li	a3,-536809472
 1529              	.LVL136:
 1530              	.L88:
  44:src/main.cpp  **** 	}
 1531              		.loc 2 44 3 is_stmt 1
  44:src/main.cpp  **** 	}
 1532              		.loc 2 44 11 is_stmt 0
 1533 0294 9C46     		lw	a5,8(a3)
 1534              	.LVL137:
  43:src/main.cpp  **** 		cnt_cur = SysTick->CNT;
 1535              		.loc 2 43 16 is_stmt 1
 1536 0296 E3EFE7FE 		bltu	a5,a4,.L88
 1537              	.LVL138:
 1538              	.L87:
  46:src/main.cpp  **** }
 1539              		.loc 2 46 2
 1540              	.LBE78:
 1541              	.LBE77:
 180:src/main.cpp  **** 				__enable_irq();
 1542              		.loc 2 180 5
 180:src/main.cpp  **** 				__enable_irq();
 1543              		.loc 2 180 13 is_stmt 0
 1544 029a 97000000 		call	_Z8pump_offv
 1544      E7800000 
 1545              	.LVL139:
 181:src/main.cpp  **** 				intToASCII(sens_val, msg_click_dry + 15, 3);
 1546              		.loc 2 181 5 is_stmt 1
 1547              	.LBB79:
 1548              	.LBB80:
 142:src/core/core_riscv.h **** 
 1549              		.loc 3 142 3
 144:src/core/core_riscv.h ****   result |= 0x88;
 1550              		.loc 3 144 3
 1551              	 #APP
 1552              	# 144 "src/core/core_riscv.h" 1
 1553              		csrr a5,mstatus
 1554              	# 0 "" 2
 1555              	.LVL140:
 145:src/core/core_riscv.h ****   __asm volatile ("csrw mstatus, %0" : : "r" (result) );
 1556              		.loc 3 145 3
 146:src/core/core_riscv.h **** }
 1557              		.loc 3 146 3
 145:src/core/core_riscv.h ****   __asm volatile ("csrw mstatus, %0" : : "r" (result) );
 1558              		.loc 3 145 10 is_stmt 0
 1559              	 #NO_APP
 1560 02a6 93E78708 		ori	a5,a5,136
 1561              	.LVL141:
 146:src/core/core_riscv.h **** }
 1562              		.loc 3 146 3
 1563              	 #APP
 1564              	# 146 "src/core/core_riscv.h" 1
 1565              		csrw mstatus, a5
 1566              	# 0 "" 2
 1567              	.LVL142:
 1568              	 #NO_APP
 1569              	.LBE80:
GAS LISTING /tmp/ccbRLEvi.s 			page 42


 1570              	.LBE79:
 182:src/main.cpp  **** 				uart1.send(msg_click_dry, sizeof(msg_click_dry) - 1);
 1571              		.loc 2 182 5 is_stmt 1
 182:src/main.cpp  **** 				uart1.send(msg_click_dry, sizeof(msg_click_dry) - 1);
 1572              		.loc 2 182 15 is_stmt 0
 1573 02ae B7070000 		lui	a5,%hi(sens_val)
 1574 02b2 03C50700 		lbu	a0,%lo(sens_val)(a5)
 1575 02b6 B7070000 		lui	a5,%hi(msg_click_dry+15)
 1576 02ba 9385F700 		addi	a1,a5,%lo(msg_click_dry+15)
 1577 02be 0D46     		li	a2,3
 1578 02c0 97000000 		call	_Z10intToASCIIiPhh
 1578      E7800000 
 1579              	.LVL143:
 183:src/main.cpp  **** 			}
 1580              		.loc 2 183 5 is_stmt 1
 183:src/main.cpp  **** 			}
 1581              		.loc 2 183 15 is_stmt 0
 1582 02c8 B7070000 		lui	a5,%hi(msg_click_dry)
 1583 02cc 93850700 		addi	a1,a5,%lo(msg_click_dry)
 1584 02d0 B7070000 		lui	a5,%hi(uart1)
 1585 02d4 0147     		li	a4,0
 1586 02d6 8146     		li	a3,0
 1587 02d8 4D46     		li	a2,19
 1588 02da 13850700 		addi	a0,a5,%lo(uart1)
 1589 02de 97000000 		call	_ZN4uart4sendEPhtPFvvEh
 1589      E7800000 
 1590              	.LVL144:
 1591 02e6 71B5     		j	.L103
 1592              	.LBE62:
 1593              	.LBE81:
 1594              		.cfi_endproc
 1595              	.LFE23:
 1597              		.section	.text.USART1_IRQHandler,"ax",@progbits
 1598              		.align	1
 1599              		.globl	USART1_IRQHandler
 1601              	USART1_IRQHandler:
 1602              	.LFB24:
 210:src/main.cpp  **** 			}
 211:src/main.cpp  **** 			break;
 212:src/main.cpp  **** 
 213:src/main.cpp  **** 		case toSleep:
 214:src/main.cpp  **** 			// uart1.sync();
 215:src/main.cpp  **** 			break;
 216:src/main.cpp  **** 		}
 217:src/main.cpp  **** 	}
 218:src/main.cpp  **** 	return 0;
 219:src/main.cpp  **** }
 220:src/main.cpp  **** 
 221:src/main.cpp  **** /* Interrupts */
 222:src/main.cpp  **** extern "C"{
 223:src/main.cpp  **** __attribute((interrupt("WCH-Interrupt-fast")))
 224:src/main.cpp  **** void USART1_IRQHandler(void) {
 1603              		.loc 2 224 30 is_stmt 1
 1604              		.cfi_startproc
 225:src/main.cpp  ****     uart1.interruptHandler();
 1605              		.loc 2 225 5
 1606              		.loc 2 225 27 is_stmt 0
GAS LISTING /tmp/ccbRLEvi.s 			page 43


 1607 0000 37050000 		lui	a0,%hi(uart1)
 1608 0004 13050500 		addi	a0,a0,%lo(uart1)
 1609 0008 97000000 		call	_ZN4uart16interruptHandlerEv
 1609      E7800000 
 1610              	.LVL145:
 226:src/main.cpp  **** }
 1611              		.loc 2 226 1
 1612 0010 73002030 		mret
 1613              		.cfi_endproc
 1614              	.LFE24:
 1616              		.section	.rodata.SysTick_IRQHandler.str1.4,"aMS",@progbits,1
 1617              		.align	2
 1618              	.LC2:
 1619 0000 54696D65 		.string	"Timer update\n"
 1619      72207570 
 1619      64617465 
 1619      0A00
 1620              		.section	.text.SysTick_IRQHandler,"ax",@progbits
 1621              		.align	1
 1622              		.globl	SysTick_IRQHandler
 1624              	SysTick_IRQHandler:
 1625              	.LFB25:
 227:src/main.cpp  **** 
 228:src/main.cpp  **** __attribute((interrupt("WCH-Interrupt-fast")))
 229:src/main.cpp  **** void SysTick_IRQHandler(void) {
 1626              		.loc 2 229 31 is_stmt 1
 1627              		.cfi_startproc
 230:src/main.cpp  **** 	SysTick->SR = 0;
 1628              		.loc 2 230 2
 1629              		.loc 2 230 14 is_stmt 0
 1630 0000 B7F700E0 		li	a5,-536809472
 231:src/main.cpp  **** 	uart1.print("Timer update\n");
 1631              		.loc 2 231 13
 1632 0004 B7050000 		lui	a1,%hi(.LC2)
 1633 0008 37050000 		lui	a0,%hi(uart1)
 230:src/main.cpp  **** 	SysTick->SR = 0;
 1634              		.loc 2 230 14
 1635 000c 23A20700 		sw	zero,4(a5)
 1636              		.loc 2 231 2 is_stmt 1
 1637              		.loc 2 231 13 is_stmt 0
 1638 0010 93850500 		addi	a1,a1,%lo(.LC2)
 1639 0014 13050500 		addi	a0,a0,%lo(uart1)
 1640 0018 97000000 		call	_ZN4uart5printEPKc
 1640      E7800000 
 1641              	.LVL146:
 232:src/main.cpp  **** 	awtr_state = blink;
 1642              		.loc 2 232 2 is_stmt 1
 1643              		.loc 2 232 13 is_stmt 0
 1644 0020 B7070000 		lui	a5,%hi(awtr_state)
 1645 0024 23A00700 		sw	zero,%lo(awtr_state)(a5)
 233:src/main.cpp  **** 	return;
 1646              		.loc 2 233 2 is_stmt 1
 234:src/main.cpp  **** }
 1647              		.loc 2 234 1 is_stmt 0
 1648 0028 73002030 		mret
 1649              		.cfi_endproc
 1650              	.LFE25:
GAS LISTING /tmp/ccbRLEvi.s 			page 44


 1652              		.section	.rodata.EXTI7_0_IRQHandler.str1.4,"aMS",@progbits,1
 1653              		.align	2
 1654              	.LC3:
 1655 0000 62757474 		.string	"button was pressed\n"
 1655      6F6E2077 
 1655      61732070 
 1655      72657373 
 1655      65640A00 
 1656              		.align	2
 1657              	.LC4:
 1658 0014 62757474 		.string	"button was released\n"
 1658      6F6E2077 
 1658      61732072 
 1658      656C6561 
 1658      7365640A 
 1659              		.section	.text.EXTI7_0_IRQHandler,"ax",@progbits
 1660              		.align	1
 1661              		.globl	EXTI7_0_IRQHandler
 1663              	EXTI7_0_IRQHandler:
 1664              	.LFB26:
 235:src/main.cpp  **** 
 236:src/main.cpp  **** __attribute((interrupt("WCH-Interrupt-fast")))
 237:src/main.cpp  **** void EXTI7_0_IRQHandler(void) {
 1665              		.loc 2 237 31 is_stmt 1
 1666              		.cfi_startproc
 238:src/main.cpp  **** 	EXTI->INTFR |= 1 << btn_pin;
 1667              		.loc 2 238 2
 1668              		.loc 2 238 8 is_stmt 0
 1669 0000 B7070140 		li	a5,1073807360
 1670 0004 03A74741 		lw	a4,1044(a5)
 1671              		.loc 2 238 14
 1672 0008 13670701 		ori	a4,a4,16
 1673 000c 23AAE740 		sw	a4,1044(a5)
 239:src/main.cpp  **** 	static uint32_t wait;
 1674              		.loc 2 239 2 is_stmt 1
 240:src/main.cpp  **** 
 241:src/main.cpp  **** 	static uint8_t btn_state_last = 0;
 1675              		.loc 2 241 2
 242:src/main.cpp  **** 	uint8_t btn_state_new = btn_state();
 1676              		.loc 2 242 2
 1677              		.loc 2 242 35 is_stmt 0
 1678 0010 97000000 		call	_Z9btn_statev
 1678      E7800000 
 1679              	.LVL147:
 243:src/main.cpp  **** 	if(btn_state_new == btn_state_last) {
 1680              		.loc 2 243 19
 1681 0018 B7070000 		lui	a5,%hi(_ZZ18EXTI7_0_IRQHandlerE14btn_state_last)
 1682              		.loc 2 243 2
 1683 001c 03C70700 		lbu	a4,%lo(_ZZ18EXTI7_0_IRQHandlerE14btn_state_last)(a5)
 1684              	.LVL148:
 1685              		.loc 2 243 2 is_stmt 1
 1686 0020 630CA702 		beq	a4,a0,.L108
 244:src/main.cpp  **** 		return;
 245:src/main.cpp  **** 	}
 246:src/main.cpp  **** 	btn_state_last = btn_state_new;
 1687              		.loc 2 246 2
 1688              		.loc 2 246 17 is_stmt 0
GAS LISTING /tmp/ccbRLEvi.s 			page 45


 1689 0024 2380A700 		sb	a0,%lo(_ZZ18EXTI7_0_IRQHandlerE14btn_state_last)(a5)
 247:src/main.cpp  **** 
 248:src/main.cpp  **** 	if(btn_state_new) {
 1690              		.loc 2 248 2 is_stmt 1
 1691 0028 15C9     		beq	a0,zero,.L110
 249:src/main.cpp  **** 		uart1.print("button was pressed\n");
 1692              		.loc 2 249 3
 1693              		.loc 2 249 14 is_stmt 0
 1694 002a B7050000 		lui	a1,%hi(.LC3)
 1695 002e 37050000 		lui	a0,%hi(uart1)
 1696              	.LVL149:
 1697 0032 93850500 		addi	a1,a1,%lo(.LC3)
 1698 0036 13050500 		addi	a0,a0,%lo(uart1)
 1699 003a 97000000 		call	_ZN4uart5printEPKc
 1699      E7800000 
 1700              	.LVL150:
 250:src/main.cpp  **** 		awtr_state = blink;
 1701              		.loc 2 250 3 is_stmt 1
 1702              		.loc 2 250 14 is_stmt 0
 1703 0042 B7070000 		lui	a5,%hi(awtr_state)
 1704 0046 23A00700 		sw	zero,%lo(awtr_state)(a5)
 251:src/main.cpp  **** 		wait = SysTick->CNT;
 1705              		.loc 2 251 3 is_stmt 1
 1706              		.loc 2 251 19 is_stmt 0
 1707 004a B7F700E0 		li	a5,-536809472
 1708 004e 9847     		lw	a4,8(a5)
 1709              		.loc 2 251 8
 1710 0050 B7070000 		lui	a5,%hi(_ZZ18EXTI7_0_IRQHandlerE4wait)
 1711 0054 23A0E700 		sw	a4,%lo(_ZZ18EXTI7_0_IRQHandlerE4wait)(a5)
 1712              	.L108:
 252:src/main.cpp  **** 	}
 253:src/main.cpp  **** 	else {
 254:src/main.cpp  **** 		uart1.print("button was released\n");
 255:src/main.cpp  **** 		wait = SysTick->CNT - wait;
 256:src/main.cpp  **** 		if(wait < MS_TO_TICKS(10)) {
 257:src/main.cpp  **** 			awtr_state = toSleep;
 258:src/main.cpp  **** 		}
 259:src/main.cpp  **** 		else if(wait < MS_TO_TICKS(700)) {
 260:src/main.cpp  **** 			awtr_state = click;
 261:src/main.cpp  **** 		}
 262:src/main.cpp  **** 		else if(wait < MS_TO_TICKS(3000)) {
 263:src/main.cpp  **** 			awtr_state = hold;
 264:src/main.cpp  **** 		}
 265:src/main.cpp  **** 		else {
 266:src/main.cpp  **** 			awtr_state = long_hold;
 267:src/main.cpp  **** 		}
 268:src/main.cpp  **** 	}
 269:src/main.cpp  **** 	return;
 270:src/main.cpp  **** }
 1713              		.loc 2 270 1
 1714 0058 73002030 		mret
 1715              	.LVL151:
 1716              	.L110:
 254:src/main.cpp  **** 		wait = SysTick->CNT - wait;
 1717              		.loc 2 254 3 is_stmt 1
 254:src/main.cpp  **** 		wait = SysTick->CNT - wait;
 1718              		.loc 2 254 14 is_stmt 0
GAS LISTING /tmp/ccbRLEvi.s 			page 46


 1719 005c B7050000 		lui	a1,%hi(.LC4)
 1720 0060 37050000 		lui	a0,%hi(uart1)
 1721              	.LVL152:
 1722 0064 93850500 		addi	a1,a1,%lo(.LC4)
 1723 0068 13050500 		addi	a0,a0,%lo(uart1)
 1724 006c 97000000 		call	_ZN4uart5printEPKc
 1724      E7800000 
 1725              	.LVL153:
 255:src/main.cpp  **** 		if(wait < MS_TO_TICKS(10)) {
 1726              		.loc 2 255 3 is_stmt 1
 255:src/main.cpp  **** 		if(wait < MS_TO_TICKS(10)) {
 1727              		.loc 2 255 23 is_stmt 0
 1728 0074 37070000 		lui	a4,%hi(_ZZ18EXTI7_0_IRQHandlerE4wait)
 255:src/main.cpp  **** 		if(wait < MS_TO_TICKS(10)) {
 1729              		.loc 2 255 19
 1730 0078 B7F700E0 		li	a5,-536809472
 1731 007c 9C47     		lw	a5,8(a5)
 255:src/main.cpp  **** 		if(wait < MS_TO_TICKS(10)) {
 1732              		.loc 2 255 23
 1733 007e 03260700 		lw	a2,%lo(_ZZ18EXTI7_0_IRQHandlerE4wait)(a4)
 256:src/main.cpp  **** 			awtr_state = toSleep;
 1734              		.loc 2 256 3
 1735 0082 9306500E 		li	a3,229
 255:src/main.cpp  **** 		if(wait < MS_TO_TICKS(10)) {
 1736              		.loc 2 255 23
 1737 0086 918F     		sub	a5,a5,a2
 255:src/main.cpp  **** 		if(wait < MS_TO_TICKS(10)) {
 1738              		.loc 2 255 8
 1739 0088 2320F700 		sw	a5,%lo(_ZZ18EXTI7_0_IRQHandlerE4wait)(a4)
 256:src/main.cpp  **** 			awtr_state = toSleep;
 1740              		.loc 2 256 3 is_stmt 1
 1741 008c 63FEF600 		bleu	a5,a3,.L114
 259:src/main.cpp  **** 			awtr_state = click;
 1742              		.loc 2 259 8
 1743 0090 1167     		li	a4,16384
 1744 0092 130737EE 		addi	a4,a4,-285
 1745 0096 6360F702 		bgtu	a5,a4,.L112
 260:src/main.cpp  **** 		}
 1746              		.loc 2 260 4
 260:src/main.cpp  **** 		}
 1747              		.loc 2 260 15 is_stmt 0
 1748 009a B7070000 		lui	a5,%hi(awtr_state)
 1749 009e 0947     		li	a4,2
 1750 00a0 23A0E700 		sw	a4,%lo(awtr_state)(a5)
 1751              		.loc 2 270 1
 1752 00a4 73002030 		mret
 1753              	.L114:
 257:src/main.cpp  **** 		}
 1754              		.loc 2 257 4 is_stmt 1
 257:src/main.cpp  **** 		}
 1755              		.loc 2 257 15 is_stmt 0
 1756 00a8 B7070000 		lui	a5,%hi(awtr_state)
 1757 00ac 1547     		li	a4,5
 1758 00ae 23A0E700 		sw	a4,%lo(awtr_state)(a5)
 1759              		.loc 2 270 1
 1760 00b2 73002030 		mret
 1761              	.L112:
GAS LISTING /tmp/ccbRLEvi.s 			page 47


 262:src/main.cpp  **** 			awtr_state = hold;
 1762              		.loc 2 262 8 is_stmt 1
 1763 00b6 4567     		li	a4,69632
 1764 00b8 130777D8 		addi	a4,a4,-633
 1765 00bc 6369F700 		bgtu	a5,a4,.L113
 263:src/main.cpp  **** 		}
 1766              		.loc 2 263 4
 263:src/main.cpp  **** 		}
 1767              		.loc 2 263 15 is_stmt 0
 1768 00c0 B7070000 		lui	a5,%hi(awtr_state)
 1769 00c4 0D47     		li	a4,3
 1770 00c6 23A0E700 		sw	a4,%lo(awtr_state)(a5)
 1771              		.loc 2 270 1
 1772 00ca 73002030 		mret
 1773              	.L113:
 266:src/main.cpp  **** 		}
 1774              		.loc 2 266 4 is_stmt 1
 266:src/main.cpp  **** 		}
 1775              		.loc 2 266 15 is_stmt 0
 1776 00ce B7070000 		lui	a5,%hi(awtr_state)
 1777 00d2 1147     		li	a4,4
 1778 00d4 23A0E700 		sw	a4,%lo(awtr_state)(a5)
 1779              		.loc 2 270 1
 1780 00d8 73002030 		mret
 1781              		.cfi_endproc
 1782              	.LFE26:
 1784              		.section	.text.HardFault_Handler,"ax",@progbits
 1785              		.align	1
 1786              		.globl	HardFault_Handler
 1788              	HardFault_Handler:
 1789              	.LFB27:
 271:src/main.cpp  **** 
 272:src/main.cpp  **** __attribute((interrupt("WCH-Interrupt-fast")))
 273:src/main.cpp  **** void HardFault_Handler(void) {
 1790              		.loc 2 273 30 is_stmt 1
 1791              		.cfi_startproc
 274:src/main.cpp  **** 	led_on();
 1792              		.loc 2 274 2
 1793              		.loc 2 274 8 is_stmt 0
 1794 0000 97000000 		call	_Z6led_onv
 1794      E7800000 
 1795              	.LVL154:
 1796              	.L116:
 275:src/main.cpp  **** 	while(1) {;}
 1797              		.loc 2 275 2 is_stmt 1 discriminator 1
 1798              		.loc 2 275 2 discriminator 1
 1799              		.loc 2 275 2 discriminator 1
 1800              		.loc 2 275 2 discriminator 1
 1801 0008 01A0     		j	.L116
 1802              		.cfi_endproc
 1803              	.LFE27:
 1805              		.section	.text.startup._GLOBAL__sub_I__Z10hexToASCIIPKhhPh,"ax",@progbits
 1806              		.align	1
 1808              	_GLOBAL__sub_I__Z10hexToASCIIPKhhPh:
 1809              	.LFB29:
 276:src/main.cpp  **** }
 277:src/main.cpp  **** }...
GAS LISTING /tmp/ccbRLEvi.s 			page 48


 1810              		.loc 2 277 1
 1811              		.cfi_startproc
 1812              	.LVL155:
 1813              	.LBB84:
 1814              	.LBB85:
  32:src/main.cpp  **** uart uart1(USART1, UART_BAUDRATE, F_HBCLK);
 1815              		.loc 2 32 42 is_stmt 0
 1816 0000 B7E60200 		li	a3,188416
 1817 0004 0566     		li	a2,4096
 1818 0006 B7450140 		li	a1,1073823744
 1819 000a 37050000 		lui	a0,%hi(uart1)
 1820 000e 8147     		li	a5,0
 1821 0010 0147     		li	a4,0
 1822 0012 9386C6C6 		addi	a3,a3,-916
 1823 0016 1306062C 		addi	a2,a2,704
 1824 001a 93850580 		addi	a1,a1,-2048
 1825 001e 13050500 		addi	a0,a0,%lo(uart1)
 1826 0022 17030000 		tail	_ZN4uartC1EP13USART_TypeDefii9u_stopbit9u_wordlen
 1826      67000300 
 1827              	.LVL156:
 1828              	.LBE85:
 1829              	.LBE84:
 1830              		.cfi_endproc
 1831              	.LFE29:
 1833              		.section	.init_array,"aw"
 1834              		.align	2
 1835 0000 00000000 		.word	_GLOBAL__sub_I__Z10hexToASCIIPKhhPh
 1836              		.section	.sbss._ZZ18EXTI7_0_IRQHandlerE14btn_state_last,"aw",@nobits
 1839              	_ZZ18EXTI7_0_IRQHandlerE14btn_state_last:
 1840 0000 00       		.zero	1
 1841              		.section	.sbss._ZZ18EXTI7_0_IRQHandlerE4wait,"aw",@nobits
 1842              		.align	2
 1845              	_ZZ18EXTI7_0_IRQHandlerE4wait:
 1846 0000 00000000 		.zero	4
 1847              		.globl	msg_lhold
 1848              		.section	.data.msg_lhold,"aw"
 1849              		.align	2
 1852              	msg_lhold:
 1853 0000 53656E73 		.string	"Sensor value: XXX\n"
 1853      6F722076 
 1853      616C7565 
 1853      3A205858 
 1853      580A00
 1854              		.globl	msg_hold
 1855              		.section	.data.msg_hold,"aw"
 1856              		.align	2
 1859              	msg_hold:
 1860 0000 28582920 		.string	"(X) sens border: XXX\n"
 1860      73656E73 
 1860      20626F72 
 1860      6465723A 
 1860      20585858 
 1861              		.globl	msg_click_wet
 1862              		.section	.data.msg_click_wet,"aw"
 1863              		.align	2
 1866              	msg_click_wet:
 1867 0000 47726F75 		.string	"Ground is wet: XXX\n"
GAS LISTING /tmp/ccbRLEvi.s 			page 49


 1867      6E642069 
 1867      73207765 
 1867      743A2058 
 1867      58580A00 
 1868              		.globl	msg_click_dry
 1869              		.section	.data.msg_click_dry,"aw"
 1870              		.align	2
 1873              	msg_click_dry:
 1874 0000 47726F75 		.string	"Ground is dry: XXX\n"
 1874      6E642069 
 1874      73206472 
 1874      793A2058 
 1874      58580A00 
 1875              		.globl	uart1
 1876              		.section	.bss.uart1,"aw",@nobits
 1877              		.align	2
 1880              	uart1:
 1881 0000 00000000 		.zero	220
 1881      00000000 
 1881      00000000 
 1881      00000000 
 1881      00000000 
 1882              		.globl	sens_val_border
 1883              		.section	.sdata.sens_val_border,"aw"
 1886              	sens_val_border:
 1887 0000 32       		.byte	50
 1888              		.globl	sens_val
 1889              		.section	.sbss.sens_val,"aw",@nobits
 1892              	sens_val:
 1893 0000 00       		.zero	1
 1894              		.globl	awtr_state
 1895              		.section	.sdata.awtr_state,"aw"
 1896              		.align	2
 1899              	awtr_state:
 1900 0000 02000000 		.word	2
 1901              		.text
 1902              	.Letext0:
 1903              		.file 4 "src/core/ch32v00x.h"
 1904              		.file 5 "/opt/MRS_toolchain/riscv-wch-elf/include/machine/_default_types.h"
 1905              		.file 6 "/opt/MRS_toolchain/riscv-wch-elf/include/sys/_stdint.h"
 1906              		.file 7 "src/uart/uart.h"
 1907              		.file 8 "src/GPIO.h"
GAS LISTING /tmp/ccbRLEvi.s 			page 50


DEFINED SYMBOLS
                            *ABS*:0000000000000000 main.cpp
     /tmp/ccbRLEvi.s:13     .text._Z10hexToASCIIPKhhPh:0000000000000000 _Z10hexToASCIIPKhhPh
     /tmp/ccbRLEvi.s:17     .text._Z10hexToASCIIPKhhPh:0000000000000000 .L0 
     /tmp/ccbRLEvi.s:19     .text._Z10hexToASCIIPKhhPh:0000000000000000 .L0 
     /tmp/ccbRLEvi.s:20     .text._Z10hexToASCIIPKhhPh:0000000000000000 .L0 
     /tmp/ccbRLEvi.s:22     .text._Z10hexToASCIIPKhhPh:0000000000000000 .L0 
     /tmp/ccbRLEvi.s:23     .text._Z10hexToASCIIPKhhPh:0000000000000000 $x
     /tmp/ccbRLEvi.s:23     .text._Z10hexToASCIIPKhhPh:0000000000000000 .L0 
     /tmp/ccbRLEvi.s:27     .text._Z10hexToASCIIPKhhPh:0000000000000006 .L0 
     /tmp/ccbRLEvi.s:29     .text._Z10hexToASCIIPKhhPh:0000000000000008 .L0 
     /tmp/ccbRLEvi.s:33     .text._Z10hexToASCIIPKhhPh:000000000000000a .L0 
     /tmp/ccbRLEvi.s:34     .text._Z10hexToASCIIPKhhPh:000000000000000a .L0 
     /tmp/ccbRLEvi.s:35     .text._Z10hexToASCIIPKhhPh:000000000000000a .L0 
     /tmp/ccbRLEvi.s:36     .text._Z10hexToASCIIPKhhPh:000000000000000a .L0 
     /tmp/ccbRLEvi.s:40     .text._Z10hexToASCIIPKhhPh:0000000000000010 .L0 
     /tmp/ccbRLEvi.s:41     .text._Z10hexToASCIIPKhhPh:0000000000000010 .L0 
     /tmp/ccbRLEvi.s:43     .text._Z10hexToASCIIPKhhPh:0000000000000014 .L0 
     /tmp/ccbRLEvi.s:45     .text._Z10hexToASCIIPKhhPh:0000000000000018 .L0 
     /tmp/ccbRLEvi.s:48     .text._Z10hexToASCIIPKhhPh:000000000000001c .L0 
     /tmp/ccbRLEvi.s:50     .text._Z10hexToASCIIPKhhPh:0000000000000020 .L0 
     /tmp/ccbRLEvi.s:51     .text._Z10hexToASCIIPKhhPh:0000000000000020 .L0 
     /tmp/ccbRLEvi.s:54     .text._Z10hexToASCIIPKhhPh:0000000000000024 .L0 
     /tmp/ccbRLEvi.s:57     .text._Z10hexToASCIIPKhhPh:0000000000000026 .L0 
     /tmp/ccbRLEvi.s:60     .text._Z10hexToASCIIPKhhPh:0000000000000028 .L0 
     /tmp/ccbRLEvi.s:61     .text._Z10hexToASCIIPKhhPh:0000000000000028 .L0 
     /tmp/ccbRLEvi.s:63     .text._Z10hexToASCIIPKhhPh:000000000000002c .L0 
     /tmp/ccbRLEvi.s:65     .text._Z10hexToASCIIPKhhPh:0000000000000030 .L0 
     /tmp/ccbRLEvi.s:68     .text._Z10hexToASCIIPKhhPh:0000000000000034 .L0 
     /tmp/ccbRLEvi.s:71     .text._Z10hexToASCIIPKhhPh:0000000000000038 .L0 
     /tmp/ccbRLEvi.s:72     .text._Z10hexToASCIIPKhhPh:0000000000000038 .L0 
     /tmp/ccbRLEvi.s:78     .text._Z10hexToASCIIPKhhPh:000000000000003e .L0 
     /tmp/ccbRLEvi.s:79     .text._Z10hexToASCIIPKhhPh:0000000000000040 .L0 
     /tmp/ccbRLEvi.s:90     .text._Z10intToASCIIiPhh:0000000000000000 _Z10intToASCIIiPhh
     /tmp/ccbRLEvi.s:93     .text._Z10intToASCIIiPhh:0000000000000000 .L0 
     /tmp/ccbRLEvi.s:95     .text._Z10intToASCIIiPhh:0000000000000000 $x
     /tmp/ccbRLEvi.s:95     .text._Z10intToASCIIiPhh:0000000000000000 .L0 
     /tmp/ccbRLEvi.s:96     .text._Z10intToASCIIiPhh:0000000000000002 .L0 
     /tmp/ccbRLEvi.s:100    .text._Z10intToASCIIiPhh:0000000000000008 .L0 
     /tmp/ccbRLEvi.s:101    .text._Z10intToASCIIiPhh:0000000000000008 .L0 
     /tmp/ccbRLEvi.s:102    .text._Z10intToASCIIiPhh:0000000000000008 .L0 
     /tmp/ccbRLEvi.s:104    .text._Z10intToASCIIiPhh:0000000000000008 .L0 
     /tmp/ccbRLEvi.s:108    .text._Z10intToASCIIiPhh:000000000000000c .L0 
     /tmp/ccbRLEvi.s:109    .text._Z10intToASCIIiPhh:000000000000000c .L0 
     /tmp/ccbRLEvi.s:110    .text._Z10intToASCIIiPhh:000000000000000c .L0 
     /tmp/ccbRLEvi.s:112    .text._Z10intToASCIIiPhh:000000000000000e .L0 
     /tmp/ccbRLEvi.s:113    .text._Z10intToASCIIiPhh:000000000000000e .L0 
     /tmp/ccbRLEvi.s:117    .text._Z10intToASCIIiPhh:000000000000001a .L0 
     /tmp/ccbRLEvi.s:118    .text._Z10intToASCIIiPhh:000000000000001a .L0 
     /tmp/ccbRLEvi.s:120    .text._Z10intToASCIIiPhh:000000000000001c .L0 
     /tmp/ccbRLEvi.s:124    .text._Z10intToASCIIiPhh:0000000000000020 .L0 
     /tmp/ccbRLEvi.s:125    .text._Z10intToASCIIiPhh:0000000000000020 .L0 
     /tmp/ccbRLEvi.s:132    .text._Z10intToASCIIiPhh:000000000000002c .L0 
     /tmp/ccbRLEvi.s:133    .text._Z10intToASCIIiPhh:000000000000002c .L0 
     /tmp/ccbRLEvi.s:136    .text._Z10intToASCIIiPhh:0000000000000030 .L0 
     /tmp/ccbRLEvi.s:140    .text._Z10intToASCIIiPhh:0000000000000034 .L0 
     /tmp/ccbRLEvi.s:144    .text._Z10intToASCIIiPhh:000000000000003e .L0 
GAS LISTING /tmp/ccbRLEvi.s 			page 51


     /tmp/ccbRLEvi.s:149    .text._Z10intToASCIIiPhh:0000000000000046 .L0 
     /tmp/ccbRLEvi.s:151    .text._Z10intToASCIIiPhh:0000000000000048 .L0 
     /tmp/ccbRLEvi.s:154    .text._Z10intToASCIIiPhh:000000000000004c .L0 
     /tmp/ccbRLEvi.s:155    .text._Z10intToASCIIiPhh:000000000000004c .L0 
     /tmp/ccbRLEvi.s:159    .text._Z10intToASCIIiPhh:0000000000000056 .L0 
     /tmp/ccbRLEvi.s:161    .text._Z10intToASCIIiPhh:0000000000000058 .L0 
     /tmp/ccbRLEvi.s:164    .text._Z10intToASCIIiPhh:000000000000005a .L0 
     /tmp/ccbRLEvi.s:165    .text._Z10intToASCIIiPhh:000000000000005a .L0 
     /tmp/ccbRLEvi.s:173    .text._Z10intToASCIIiPhh:0000000000000064 .L0 
     /tmp/ccbRLEvi.s:174    .text._Z10intToASCIIiPhh:0000000000000064 .L0 
     /tmp/ccbRLEvi.s:175    .text._Z10intToASCIIiPhh:0000000000000064 .L0 
     /tmp/ccbRLEvi.s:176    .text._Z10intToASCIIiPhh:0000000000000064 .L0 
     /tmp/ccbRLEvi.s:178    .text._Z10intToASCIIiPhh:0000000000000068 .L0 
     /tmp/ccbRLEvi.s:180    .text._Z10intToASCIIiPhh:000000000000006a .L0 
     /tmp/ccbRLEvi.s:182    .text._Z10intToASCIIiPhh:000000000000006c .L0 
     /tmp/ccbRLEvi.s:188    .text._Z10intToASCIIiPhh:0000000000000078 .L0 
     /tmp/ccbRLEvi.s:189    .text._Z10intToASCIIiPhh:0000000000000078 .L0 
     /tmp/ccbRLEvi.s:194    .text._Z10intToASCIIiPhh:0000000000000080 .L0 
     /tmp/ccbRLEvi.s:195    .text._Z10intToASCIIiPhh:0000000000000082 .L0 
     /tmp/ccbRLEvi.s:196    .text._Z10intToASCIIiPhh:0000000000000082 .L0 
     /tmp/ccbRLEvi.s:198    .text._Z10intToASCIIiPhh:0000000000000084 .L0 
     /tmp/ccbRLEvi.s:200    .text._Z10intToASCIIiPhh:0000000000000086 .L0 
     /tmp/ccbRLEvi.s:203    .text._Z10intToASCIIiPhh:0000000000000088 .L0 
     /tmp/ccbRLEvi.s:208    .text._Z10intToASCIIiPhh:000000000000008a .L0 
     /tmp/ccbRLEvi.s:210    .text._Z10intToASCIIiPhh:000000000000008a .L0 
     /tmp/ccbRLEvi.s:212    .text._Z10intToASCIIiPhh:000000000000008e .L0 
     /tmp/ccbRLEvi.s:220    .text._Z10intToASCIIiPhh:0000000000000096 .L0 
     /tmp/ccbRLEvi.s:221    .text._Z10intToASCIIiPhh:0000000000000096 .L0 
     /tmp/ccbRLEvi.s:223    .text._Z10intToASCIIiPhh:0000000000000098 .L0 
     /tmp/ccbRLEvi.s:226    .text._Z10intToASCIIiPhh:000000000000009c .L0 
     /tmp/ccbRLEvi.s:227    .text._Z10intToASCIIiPhh:000000000000009c .L0 
     /tmp/ccbRLEvi.s:228    .text._Z10intToASCIIiPhh:000000000000009c .L0 
     /tmp/ccbRLEvi.s:231    .text._Z10intToASCIIiPhh:00000000000000a0 .L0 
     /tmp/ccbRLEvi.s:233    .text._Z10intToASCIIiPhh:00000000000000a4 .L0 
     /tmp/ccbRLEvi.s:241    .text._Z10ASCIIToIntPKhh:0000000000000000 _Z10ASCIIToIntPKhh
     /tmp/ccbRLEvi.s:244    .text._Z10ASCIIToIntPKhh:0000000000000000 .L0 
     /tmp/ccbRLEvi.s:246    .text._Z10ASCIIToIntPKhh:0000000000000000 .L0 
     /tmp/ccbRLEvi.s:247    .text._Z10ASCIIToIntPKhh:0000000000000000 .L0 
     /tmp/ccbRLEvi.s:249    .text._Z10ASCIIToIntPKhh:0000000000000000 .L0 
     /tmp/ccbRLEvi.s:250    .text._Z10ASCIIToIntPKhh:0000000000000000 $x
     /tmp/ccbRLEvi.s:250    .text._Z10ASCIIToIntPKhh:0000000000000000 .L0 
     /tmp/ccbRLEvi.s:253    .text._Z10ASCIIToIntPKhh:0000000000000002 .L0 
     /tmp/ccbRLEvi.s:254    .text._Z10ASCIIToIntPKhh:0000000000000004 .L0 
     /tmp/ccbRLEvi.s:258    .text._Z10ASCIIToIntPKhh:000000000000000c .L0 
     /tmp/ccbRLEvi.s:260    .text._Z10ASCIIToIntPKhh:000000000000000c .L0 
     /tmp/ccbRLEvi.s:263    .text._Z10ASCIIToIntPKhh:000000000000000e .L0 
     /tmp/ccbRLEvi.s:267    .text._Z10ASCIIToIntPKhh:0000000000000010 .L0 
     /tmp/ccbRLEvi.s:269    .text._Z10ASCIIToIntPKhh:0000000000000014 .L0 
     /tmp/ccbRLEvi.s:271    .text._Z10ASCIIToIntPKhh:0000000000000018 .L0 
     /tmp/ccbRLEvi.s:276    .text._Z10ASCIIToIntPKhh:000000000000001c .L0 
     /tmp/ccbRLEvi.s:278    .text._Z10ASCIIToIntPKhh:0000000000000020 .L0 
     /tmp/ccbRLEvi.s:280    .text._Z10ASCIIToIntPKhh:0000000000000024 .L0 
     /tmp/ccbRLEvi.s:284    .text._Z10ASCIIToIntPKhh:0000000000000026 .L0 
     /tmp/ccbRLEvi.s:285    .text._Z10ASCIIToIntPKhh:0000000000000026 .L0 
     /tmp/ccbRLEvi.s:289    .text._Z10ASCIIToIntPKhh:000000000000002e .L0 
     /tmp/ccbRLEvi.s:292    .text._Z10ASCIIToIntPKhh:0000000000000030 .L0 
     /tmp/ccbRLEvi.s:295    .text._Z10ASCIIToIntPKhh:0000000000000034 .L0 
GAS LISTING /tmp/ccbRLEvi.s 			page 52


     /tmp/ccbRLEvi.s:296    .text._Z10ASCIIToIntPKhh:0000000000000034 .L0 
     /tmp/ccbRLEvi.s:300    .text._Z10ASCIIToIntPKhh:0000000000000038 .L0 
     /tmp/ccbRLEvi.s:301    .text._Z10ASCIIToIntPKhh:0000000000000038 .L0 
     /tmp/ccbRLEvi.s:302    .text._Z10ASCIIToIntPKhh:0000000000000038 .L0 
     /tmp/ccbRLEvi.s:303    .text._Z10ASCIIToIntPKhh:0000000000000038 .L0 
     /tmp/ccbRLEvi.s:304    .text._Z10ASCIIToIntPKhh:0000000000000038 .L0 
     /tmp/ccbRLEvi.s:306    .text._Z10ASCIIToIntPKhh:000000000000003c .L0 
     /tmp/ccbRLEvi.s:308    .text._Z10ASCIIToIntPKhh:0000000000000040 .L0 
     /tmp/ccbRLEvi.s:310    .text._Z10ASCIIToIntPKhh:0000000000000044 .L0 
     /tmp/ccbRLEvi.s:312    .text._Z10ASCIIToIntPKhh:0000000000000048 .L0 
     /tmp/ccbRLEvi.s:315    .text._Z10ASCIIToIntPKhh:000000000000004e .L0 
     /tmp/ccbRLEvi.s:317    .text._Z10ASCIIToIntPKhh:0000000000000050 .L0 
     /tmp/ccbRLEvi.s:319    .text._Z10ASCIIToIntPKhh:0000000000000052 .L0 
     /tmp/ccbRLEvi.s:322    .text._Z10ASCIIToIntPKhh:0000000000000054 .L0 
     /tmp/ccbRLEvi.s:325    .text._Z10ASCIIToIntPKhh:0000000000000056 .L0 
     /tmp/ccbRLEvi.s:326    .text._Z10ASCIIToIntPKhh:0000000000000056 .L0 
     /tmp/ccbRLEvi.s:329    .text._Z10ASCIIToIntPKhh:000000000000005a .L0 
     /tmp/ccbRLEvi.s:330    .text._Z10ASCIIToIntPKhh:000000000000005a .L0 
     /tmp/ccbRLEvi.s:335    .text._Z10ASCIIToIntPKhh:000000000000005e .L0 
     /tmp/ccbRLEvi.s:338    .text._Z10ASCIIToIntPKhh:0000000000000066 .L0 
     /tmp/ccbRLEvi.s:339    .text._Z10ASCIIToIntPKhh:0000000000000068 .L0 
     /tmp/ccbRLEvi.s:340    .text._Z10ASCIIToIntPKhh:0000000000000068 .L0 
     /tmp/ccbRLEvi.s:342    .text._Z10ASCIIToIntPKhh:000000000000006a .L0 
     /tmp/ccbRLEvi.s:346    .text._Z10ASCIIToIntPKhh:000000000000006c .L0 
     /tmp/ccbRLEvi.s:349    .text._Z10ASCIIToIntPKhh:000000000000006c .L0 
     /tmp/ccbRLEvi.s:353    .text._Z10ASCIIToIntPKhh:0000000000000070 .L0 
     /tmp/ccbRLEvi.s:354    .text._Z10ASCIIToIntPKhh:0000000000000070 .L0 
     /tmp/ccbRLEvi.s:356    .text._Z10ASCIIToIntPKhh:0000000000000070 .L0 
     /tmp/ccbRLEvi.s:360    .text._Z10ASCIIToIntPKhh:0000000000000072 .L0 
     /tmp/ccbRLEvi.s:361    .text._Z10ASCIIToIntPKhh:0000000000000072 .L0 
     /tmp/ccbRLEvi.s:362    .text._Z10ASCIIToIntPKhh:0000000000000074 .L0 
     /tmp/ccbRLEvi.s:369    .text._Z6str_eqPKhS0_h:0000000000000000 _Z6str_eqPKhS0_h
     /tmp/ccbRLEvi.s:372    .text._Z6str_eqPKhS0_h:0000000000000000 .L0 
     /tmp/ccbRLEvi.s:374    .text._Z6str_eqPKhS0_h:0000000000000000 .L0 
     /tmp/ccbRLEvi.s:376    .text._Z6str_eqPKhS0_h:0000000000000000 .L0 
     /tmp/ccbRLEvi.s:377    .text._Z6str_eqPKhS0_h:0000000000000000 $x
     /tmp/ccbRLEvi.s:377    .text._Z6str_eqPKhS0_h:0000000000000000 .L0 
     /tmp/ccbRLEvi.s:384    .text._Z6str_eqPKhS0_h:0000000000000006 .L0 
     /tmp/ccbRLEvi.s:388    .text._Z6str_eqPKhS0_h:000000000000000a .L0 
     /tmp/ccbRLEvi.s:389    .text._Z6str_eqPKhS0_h:000000000000000a .L0 
     /tmp/ccbRLEvi.s:390    .text._Z6str_eqPKhS0_h:000000000000000a .L0 
     /tmp/ccbRLEvi.s:391    .text._Z6str_eqPKhS0_h:000000000000000a .L0 
     /tmp/ccbRLEvi.s:394    .text._Z6str_eqPKhS0_h:0000000000000012 .L0 
     /tmp/ccbRLEvi.s:398    .text._Z6str_eqPKhS0_h:0000000000000016 .L0 
     /tmp/ccbRLEvi.s:400    .text._Z6str_eqPKhS0_h:000000000000001a .L0 
     /tmp/ccbRLEvi.s:403    .text._Z6str_eqPKhS0_h:000000000000001c .L0 
     /tmp/ccbRLEvi.s:407    .text._Z6str_eqPKhS0_h:000000000000001e .L0 
     /tmp/ccbRLEvi.s:409    .text._Z6str_eqPKhS0_h:0000000000000022 .L0 
     /tmp/ccbRLEvi.s:416    .text._Z6delayTm:0000000000000000 _Z6delayTm
     /tmp/ccbRLEvi.s:420    .text._Z6delayTm:0000000000000000 .L0 
     /tmp/ccbRLEvi.s:422    .text._Z6delayTm:0000000000000000 .L0 
     /tmp/ccbRLEvi.s:423    .text._Z6delayTm:0000000000000000 .L0 
     /tmp/ccbRLEvi.s:424    .text._Z6delayTm:0000000000000000 .L0 
     /tmp/ccbRLEvi.s:425    .text._Z6delayTm:0000000000000000 $x
     /tmp/ccbRLEvi.s:425    .text._Z6delayTm:0000000000000000 .L0 
     /tmp/ccbRLEvi.s:429    .text._Z6delayTm:0000000000000006 .L0 
     /tmp/ccbRLEvi.s:430    .text._Z6delayTm:0000000000000006 .L0 
GAS LISTING /tmp/ccbRLEvi.s 			page 53


     /tmp/ccbRLEvi.s:433    .text._Z6delayTm:0000000000000008 .L0 
     /tmp/ccbRLEvi.s:434    .text._Z6delayTm:0000000000000008 .L0 
     /tmp/ccbRLEvi.s:435    .text._Z6delayTm:0000000000000008 .L0 
     /tmp/ccbRLEvi.s:438    .text._Z6delayTm:000000000000000a .L0 
     /tmp/ccbRLEvi.s:440    .text._Z6delayTm:000000000000000e .L0 
     /tmp/ccbRLEvi.s:444    .text._Z6delayTm:0000000000000012 .L0 
     /tmp/ccbRLEvi.s:445    .text._Z6delayTm:0000000000000012 .L0 
     /tmp/ccbRLEvi.s:448    .text._Z6delayTm:0000000000000014 .L0 
     /tmp/ccbRLEvi.s:452    .text._Z6delayTm:0000000000000018 .L0 
     /tmp/ccbRLEvi.s:453    .text._Z6delayTm:000000000000001a .L0 
     /tmp/ccbRLEvi.s:460    .text._Z9flash_getv:0000000000000000 _Z9flash_getv
     /tmp/ccbRLEvi.s:463    .text._Z9flash_getv:0000000000000000 .L0 
     /tmp/ccbRLEvi.s:464    .text._Z9flash_getv:0000000000000000 .L0 
     /tmp/ccbRLEvi.s:465    .text._Z9flash_getv:0000000000000000 .L0 
     /tmp/ccbRLEvi.s:466    .text._Z9flash_getv:0000000000000000 $x
     /tmp/ccbRLEvi.s:466    .text._Z9flash_getv:0000000000000000 .L0 
     /tmp/ccbRLEvi.s:468    .text._Z9flash_getv:0000000000000004 .L0 
     /tmp/ccbRLEvi.s:470    .text._Z9flash_getv:000000000000000a .L0 
     /tmp/ccbRLEvi.s:477    .text._Z10flash_saveh:0000000000000000 _Z10flash_saveh
     /tmp/ccbRLEvi.s:480    .text._Z10flash_saveh:0000000000000000 .L0 
     /tmp/ccbRLEvi.s:482    .text._Z10flash_saveh:0000000000000000 .L0 
     /tmp/ccbRLEvi.s:486    .text._Z10flash_saveh:0000000000000000 .L0 
     /tmp/ccbRLEvi.s:487    .text._Z10flash_saveh:0000000000000000 .L0 
src/core/core_riscv.h:160    .text._Z10flash_saveh:0000000000000000 $x
src/core/core_riscv.h:160    .text._Z10flash_saveh:0000000000000000 .L0 
     /tmp/ccbRLEvi.s:494    .text._Z10flash_saveh:0000000000000004 .L0 
     /tmp/ccbRLEvi.s:495    .text._Z10flash_saveh:0000000000000004 .L0 
     /tmp/ccbRLEvi.s:497    .text._Z10flash_saveh:0000000000000004 .L0 
src/core/core_riscv.h:162    .text._Z10flash_saveh:0000000000000008 .L0 
     /tmp/ccbRLEvi.s:509    .text._Z10flash_saveh:000000000000000c .L0 
     /tmp/ccbRLEvi.s:510    .text._Z10flash_saveh:000000000000000c .L0 
     /tmp/ccbRLEvi.s:514    .text._Z10flash_saveh:0000000000000018 .L0 
     /tmp/ccbRLEvi.s:516    .text._Z10flash_saveh:000000000000001c .L0 
     /tmp/ccbRLEvi.s:518    .text._Z10flash_saveh:000000000000001e .L0 
     /tmp/ccbRLEvi.s:519    .text._Z10flash_saveh:000000000000001e .L0 
     /tmp/ccbRLEvi.s:522    .text._Z10flash_saveh:0000000000000024 .L0 
     /tmp/ccbRLEvi.s:523    .text._Z10flash_saveh:0000000000000024 .L0 
     /tmp/ccbRLEvi.s:525    .text._Z10flash_saveh:0000000000000026 .L0 
     /tmp/ccbRLEvi.s:527    .text._Z10flash_saveh:000000000000002a .L0 
     /tmp/ccbRLEvi.s:529    .text._Z10flash_saveh:000000000000002c .L0 
     /tmp/ccbRLEvi.s:530    .text._Z10flash_saveh:000000000000002c .L0 
     /tmp/ccbRLEvi.s:532    .text._Z10flash_saveh:000000000000002e .L0 
     /tmp/ccbRLEvi.s:533    .text._Z10flash_saveh:000000000000002e .L0 
     /tmp/ccbRLEvi.s:535    .text._Z10flash_saveh:0000000000000030 .L0 
     /tmp/ccbRLEvi.s:536    .text._Z10flash_saveh:0000000000000030 .L0 
     /tmp/ccbRLEvi.s:538    .text._Z10flash_saveh:0000000000000032 .L0 
     /tmp/ccbRLEvi.s:541    .text._Z10flash_saveh:0000000000000036 .L0 
     /tmp/ccbRLEvi.s:543    .text._Z10flash_saveh:0000000000000038 .L0 
     /tmp/ccbRLEvi.s:544    .text._Z10flash_saveh:0000000000000038 .L0 
     /tmp/ccbRLEvi.s:546    .text._Z10flash_saveh:000000000000003a .L0 
     /tmp/ccbRLEvi.s:550    .text._Z10flash_saveh:0000000000000042 .L0 
     /tmp/ccbRLEvi.s:551    .text._Z10flash_saveh:0000000000000042 .L0 
     /tmp/ccbRLEvi.s:555    .text._Z10flash_saveh:000000000000004c .L0 
     /tmp/ccbRLEvi.s:556    .text._Z10flash_saveh:000000000000004c .L0 
     /tmp/ccbRLEvi.s:558    .text._Z10flash_saveh:000000000000004e .L0 
     /tmp/ccbRLEvi.s:560    .text._Z10flash_saveh:0000000000000052 .L0 
     /tmp/ccbRLEvi.s:564    .text._Z10flash_saveh:0000000000000058 .L0 
GAS LISTING /tmp/ccbRLEvi.s 			page 54


     /tmp/ccbRLEvi.s:565    .text._Z10flash_saveh:0000000000000058 .L0 
     /tmp/ccbRLEvi.s:566    .text._Z10flash_saveh:0000000000000058 .L0 
     /tmp/ccbRLEvi.s:568    .text._Z10flash_saveh:000000000000005a .L0 
     /tmp/ccbRLEvi.s:571    .text._Z10flash_saveh:000000000000005e .L0 
     /tmp/ccbRLEvi.s:572    .text._Z10flash_saveh:000000000000005e .L0 
     /tmp/ccbRLEvi.s:574    .text._Z10flash_saveh:0000000000000060 .L0 
     /tmp/ccbRLEvi.s:579    .text._Z10flash_saveh:0000000000000068 .L0 
     /tmp/ccbRLEvi.s:580    .text._Z10flash_saveh:0000000000000068 .L0 
     /tmp/ccbRLEvi.s:582    .text._Z10flash_saveh:000000000000006a .L0 
     /tmp/ccbRLEvi.s:584    .text._Z10flash_saveh:000000000000006c .L0 
     /tmp/ccbRLEvi.s:586    .text._Z10flash_saveh:0000000000000070 .L0 
     /tmp/ccbRLEvi.s:589    .text._Z10flash_saveh:0000000000000074 .L0 
     /tmp/ccbRLEvi.s:590    .text._Z10flash_saveh:0000000000000074 .L0 
     /tmp/ccbRLEvi.s:592    .text._Z10flash_saveh:0000000000000076 .L0 
     /tmp/ccbRLEvi.s:594    .text._Z10flash_saveh:000000000000007a .L0 
     /tmp/ccbRLEvi.s:598    .text._Z10flash_saveh:000000000000007e .L0 
     /tmp/ccbRLEvi.s:599    .text._Z10flash_saveh:000000000000007e .L0 
     /tmp/ccbRLEvi.s:600    .text._Z10flash_saveh:000000000000007e .L0 
     /tmp/ccbRLEvi.s:602    .text._Z10flash_saveh:0000000000000080 .L0 
     /tmp/ccbRLEvi.s:605    .text._Z10flash_saveh:0000000000000084 .L0 
     /tmp/ccbRLEvi.s:606    .text._Z10flash_saveh:0000000000000084 .L0 
     /tmp/ccbRLEvi.s:608    .text._Z10flash_saveh:0000000000000086 .L0 
     /tmp/ccbRLEvi.s:611    .text._Z10flash_saveh:000000000000008c .L0 
     /tmp/ccbRLEvi.s:614    .text._Z10flash_saveh:0000000000000094 .L0 
     /tmp/ccbRLEvi.s:615    .text._Z10flash_saveh:0000000000000094 .L0 
     /tmp/ccbRLEvi.s:617    .text._Z10flash_saveh:0000000000000096 .L0 
     /tmp/ccbRLEvi.s:618    .text._Z10flash_saveh:0000000000000096 .L0 
     /tmp/ccbRLEvi.s:621    .text._Z10flash_saveh:000000000000009a .L0 
     /tmp/ccbRLEvi.s:622    .text._Z10flash_saveh:000000000000009a .L0 
     /tmp/ccbRLEvi.s:624    .text._Z10flash_saveh:000000000000009c .L0 
     /tmp/ccbRLEvi.s:627    .text._Z10flash_saveh:00000000000000a0 .L0 
     /tmp/ccbRLEvi.s:628    .text._Z10flash_saveh:00000000000000a0 .L0 
     /tmp/ccbRLEvi.s:632    .text._Z10flash_saveh:00000000000000aa .L0 
     /tmp/ccbRLEvi.s:633    .text._Z10flash_saveh:00000000000000aa .L0 
     /tmp/ccbRLEvi.s:635    .text._Z10flash_saveh:00000000000000ac .L0 
     /tmp/ccbRLEvi.s:637    .text._Z10flash_saveh:00000000000000b0 .L0 
     /tmp/ccbRLEvi.s:641    .text._Z10flash_saveh:00000000000000b6 .L0 
     /tmp/ccbRLEvi.s:642    .text._Z10flash_saveh:00000000000000b6 .L0 
     /tmp/ccbRLEvi.s:643    .text._Z10flash_saveh:00000000000000b6 .L0 
     /tmp/ccbRLEvi.s:645    .text._Z10flash_saveh:00000000000000b8 .L0 
     /tmp/ccbRLEvi.s:648    .text._Z10flash_saveh:00000000000000bc .L0 
     /tmp/ccbRLEvi.s:649    .text._Z10flash_saveh:00000000000000bc .L0 
     /tmp/ccbRLEvi.s:651    .text._Z10flash_saveh:00000000000000be .L0 
     /tmp/ccbRLEvi.s:656    .text._Z10flash_saveh:00000000000000c6 .L0 
     /tmp/ccbRLEvi.s:657    .text._Z10flash_saveh:00000000000000c6 .L0 
     /tmp/ccbRLEvi.s:659    .text._Z10flash_saveh:00000000000000c8 .L0 
     /tmp/ccbRLEvi.s:662    .text._Z10flash_saveh:00000000000000ce .L0 
     /tmp/ccbRLEvi.s:663    .text._Z10flash_saveh:00000000000000ce .L0 
     /tmp/ccbRLEvi.s:665    .text._Z10flash_saveh:00000000000000d0 .L0 
     /tmp/ccbRLEvi.s:667    .text._Z10flash_saveh:00000000000000d2 .L0 
     /tmp/ccbRLEvi.s:671    .text._Z10flash_saveh:00000000000000d4 .L0 
     /tmp/ccbRLEvi.s:672    .text._Z10flash_saveh:00000000000000d4 .L0 
src/core/core_riscv.h:144    .text._Z10flash_saveh:00000000000000d4 .L0 
     /tmp/ccbRLEvi.s:679    .text._Z10flash_saveh:00000000000000d8 .L0 
     /tmp/ccbRLEvi.s:680    .text._Z10flash_saveh:00000000000000d8 .L0 
     /tmp/ccbRLEvi.s:682    .text._Z10flash_saveh:00000000000000d8 .L0 
src/core/core_riscv.h:146    .text._Z10flash_saveh:00000000000000dc .L0 
GAS LISTING /tmp/ccbRLEvi.s 			page 55


     /tmp/ccbRLEvi.s:694    .text._Z10flash_saveh:00000000000000e0 .L0 
     /tmp/ccbRLEvi.s:695    .text._Z10flash_saveh:00000000000000e0 .L0 
     /tmp/ccbRLEvi.s:698    .text._Z10flash_saveh:00000000000000e2 .L0 
     /tmp/ccbRLEvi.s:702    .text._Z10flash_saveh:00000000000000e4 .L0 
     /tmp/ccbRLEvi.s:705    .text._Z10flash_saveh:00000000000000e8 .L0 
     /tmp/ccbRLEvi.s:712    .text.SystemInit:0000000000000000 SystemInit
     /tmp/ccbRLEvi.s:715    .text.SystemInit:0000000000000000 .L0 
     /tmp/ccbRLEvi.s:716    .text.SystemInit:0000000000000000 .L0 
     /tmp/ccbRLEvi.s:717    .text.SystemInit:0000000000000000 .L0 
     /tmp/ccbRLEvi.s:718    .text.SystemInit:0000000000000000 $x
     /tmp/ccbRLEvi.s:718    .text.SystemInit:0000000000000000 .L0 
     /tmp/ccbRLEvi.s:721    .text.SystemInit:0000000000000006 .L0 
     /tmp/ccbRLEvi.s:723    .text.SystemInit:0000000000000008 .L0 
     /tmp/ccbRLEvi.s:724    .text.SystemInit:000000000000000a .L0 
     /tmp/ccbRLEvi.s:726    .text.SystemInit:000000000000000a .L0 
     /tmp/ccbRLEvi.s:728    .text.SystemInit:000000000000000e .L0 
     /tmp/ccbRLEvi.s:731    .text.SystemInit:0000000000000014 .L0 
     /tmp/ccbRLEvi.s:732    .text.SystemInit:0000000000000014 .L0 
     /tmp/ccbRLEvi.s:733    .text.SystemInit:0000000000000014 .L0 
     /tmp/ccbRLEvi.s:735    .text.SystemInit:0000000000000014 .L0 
     /tmp/ccbRLEvi.s:738    .text.SystemInit:0000000000000018 .L0 
     /tmp/ccbRLEvi.s:739    .text.SystemInit:0000000000000018 .L0 
     /tmp/ccbRLEvi.s:741    .text.SystemInit:000000000000001a .L0 
     /tmp/ccbRLEvi.s:744    .text.SystemInit:0000000000000020 .L0 
     /tmp/ccbRLEvi.s:747    .text.SystemInit:0000000000000026 .L0 
     /tmp/ccbRLEvi.s:748    .text.SystemInit:0000000000000026 .L0 
     /tmp/ccbRLEvi.s:750    .text.SystemInit:0000000000000028 .L0 
     /tmp/ccbRLEvi.s:752    .text.SystemInit:000000000000002c .L0 
     /tmp/ccbRLEvi.s:754    .text.SystemInit:0000000000000030 .L0 
     /tmp/ccbRLEvi.s:757    .text.SystemInit:0000000000000034 .L0 
     /tmp/ccbRLEvi.s:758    .text.SystemInit:0000000000000034 .L0 
     /tmp/ccbRLEvi.s:760    .text.SystemInit:0000000000000038 .L0 
     /tmp/ccbRLEvi.s:761    .text.SystemInit:0000000000000038 .L0 
     /tmp/ccbRLEvi.s:764    .text.SystemInit:000000000000003c .L0 
     /tmp/ccbRLEvi.s:765    .text.SystemInit:000000000000003c .L0 
     /tmp/ccbRLEvi.s:768    .text.SystemInit:0000000000000040 .L0 
     /tmp/ccbRLEvi.s:769    .text.SystemInit:0000000000000040 .L0 
     /tmp/ccbRLEvi.s:771    .text.SystemInit:0000000000000042 .L0 
     /tmp/ccbRLEvi.s:774    .text.SystemInit:0000000000000048 .L0 
     /tmp/ccbRLEvi.s:775    .text.SystemInit:0000000000000048 .L0 
     /tmp/ccbRLEvi.s:777    .text.SystemInit:000000000000004a .L0 
     /tmp/ccbRLEvi.s:780    .text.SystemInit:0000000000000050 .L0 
     /tmp/ccbRLEvi.s:781    .text.SystemInit:0000000000000050 .L0 
     /tmp/ccbRLEvi.s:784    .text.SystemInit:0000000000000058 .L0 
     /tmp/ccbRLEvi.s:785    .text.SystemInit:0000000000000058 .L0 
     /tmp/ccbRLEvi.s:787    .text.SystemInit:000000000000005a .L0 
     /tmp/ccbRLEvi.s:792    .text.SystemInit:0000000000000064 .L0 
     /tmp/ccbRLEvi.s:793    .text.SystemInit:0000000000000064 .L0 
     /tmp/ccbRLEvi.s:795    .text.SystemInit:0000000000000066 .L0 
     /tmp/ccbRLEvi.s:798    .text.SystemInit:000000000000006c .L0 
     /tmp/ccbRLEvi.s:801    .text.SystemInit:0000000000000072 .L0 
     /tmp/ccbRLEvi.s:802    .text.SystemInit:0000000000000072 .L0 
     /tmp/ccbRLEvi.s:804    .text.SystemInit:0000000000000074 .L0 
     /tmp/ccbRLEvi.s:806    .text.SystemInit:0000000000000078 .L0 
     /tmp/ccbRLEvi.s:808    .text.SystemInit:000000000000007c .L0 
     /tmp/ccbRLEvi.s:811    .text.SystemInit:0000000000000080 .L0 
     /tmp/ccbRLEvi.s:812    .text.SystemInit:0000000000000080 .L0 
GAS LISTING /tmp/ccbRLEvi.s 			page 56


     /tmp/ccbRLEvi.s:814    .text.SystemInit:0000000000000082 .L0 
     /tmp/ccbRLEvi.s:817    .text.SystemInit:0000000000000086 .L0 
     /tmp/ccbRLEvi.s:818    .text.SystemInit:0000000000000086 .L0 
     /tmp/ccbRLEvi.s:821    .text.SystemInit:000000000000008a .L0 
     /tmp/ccbRLEvi.s:822    .text.SystemInit:000000000000008a .L0 
     /tmp/ccbRLEvi.s:824    .text.SystemInit:000000000000008c .L0 
     /tmp/ccbRLEvi.s:827    .text.SystemInit:0000000000000092 .L0 
     /tmp/ccbRLEvi.s:828    .text.SystemInit:0000000000000092 .L0 
     /tmp/ccbRLEvi.s:830    .text.SystemInit:0000000000000096 .L0 
     /tmp/ccbRLEvi.s:833    .text.SystemInit:000000000000009e .L0 
     /tmp/ccbRLEvi.s:834    .text.SystemInit:000000000000009e .L0 
     /tmp/ccbRLEvi.s:836    .text.SystemInit:00000000000000a2 .L0 
     /tmp/ccbRLEvi.s:838    .text.SystemInit:00000000000000a6 .L0 
     /tmp/ccbRLEvi.s:841    .text.SystemInit:00000000000000ae .L0 
     /tmp/ccbRLEvi.s:842    .text.SystemInit:00000000000000ae .L0 
     /tmp/ccbRLEvi.s:844    .text.SystemInit:00000000000000b2 .L0 
     /tmp/ccbRLEvi.s:847    .text.SystemInit:00000000000000ba .L0 
     /tmp/ccbRLEvi.s:848    .text.SystemInit:00000000000000ba .L0 
     /tmp/ccbRLEvi.s:850    .text.SystemInit:00000000000000be .L0 
     /tmp/ccbRLEvi.s:853    .text.SystemInit:00000000000000c6 .L0 
     /tmp/ccbRLEvi.s:854    .text.SystemInit:00000000000000c6 .L0 
     /tmp/ccbRLEvi.s:856    .text.SystemInit:00000000000000ca .L0 
     /tmp/ccbRLEvi.s:859    .text.SystemInit:00000000000000d2 .L0 
     /tmp/ccbRLEvi.s:860    .text.SystemInit:00000000000000d2 .L0 
     /tmp/ccbRLEvi.s:862    .text.SystemInit:00000000000000d6 .L0 
     /tmp/ccbRLEvi.s:865    .text.SystemInit:00000000000000dc .L0 
     /tmp/ccbRLEvi.s:866    .text.SystemInit:00000000000000dc .L0 
     /tmp/ccbRLEvi.s:868    .text.SystemInit:00000000000000e0 .L0 
     /tmp/ccbRLEvi.s:871    .text.SystemInit:00000000000000e6 .L0 
     /tmp/ccbRLEvi.s:873    .text.SystemInit:00000000000000ea .L0 
     /tmp/ccbRLEvi.s:874    .text.SystemInit:00000000000000ea .L0 
     /tmp/ccbRLEvi.s:876    .text.SystemInit:00000000000000ee .L0 
     /tmp/ccbRLEvi.s:879    .text.SystemInit:00000000000000f4 .L0 
     /tmp/ccbRLEvi.s:880    .text.SystemInit:00000000000000f4 .L0 
     /tmp/ccbRLEvi.s:882    .text.SystemInit:00000000000000f8 .L0 
     /tmp/ccbRLEvi.s:886    .text.SystemInit:0000000000000102 .L0 
     /tmp/ccbRLEvi.s:887    .text.SystemInit:0000000000000102 .L0 
     /tmp/ccbRLEvi.s:889    .text.SystemInit:0000000000000104 .L0 
     /tmp/ccbRLEvi.s:893    .text.SystemInit:000000000000010c .L0 
     /tmp/ccbRLEvi.s:894    .text.SystemInit:000000000000010c .L0 
     /tmp/ccbRLEvi.s:896    .text.SystemInit:0000000000000110 .L0 
     /tmp/ccbRLEvi.s:899    .text.SystemInit:0000000000000116 .L0 
     /tmp/ccbRLEvi.s:901    .text.SystemInit:000000000000011a .L0 
     /tmp/ccbRLEvi.s:902    .text.SystemInit:000000000000011a .L0 
     /tmp/ccbRLEvi.s:904    .text.SystemInit:000000000000011e .L0 
     /tmp/ccbRLEvi.s:907    .text.SystemInit:0000000000000124 .L0 
     /tmp/ccbRLEvi.s:908    .text.SystemInit:0000000000000124 .L0 
     /tmp/ccbRLEvi.s:910    .text.SystemInit:0000000000000128 .L0 
     /tmp/ccbRLEvi.s:911    .text.SystemInit:0000000000000128 .L0 
     /tmp/ccbRLEvi.s:913    .text.SystemInit:000000000000012c .L0 
     /tmp/ccbRLEvi.s:914    .text.SystemInit:000000000000012c .L0 
     /tmp/ccbRLEvi.s:916    .text.SystemInit:0000000000000130 .L0 
     /tmp/ccbRLEvi.s:917    .text.SystemInit:0000000000000130 .L0 
     /tmp/ccbRLEvi.s:922    .text.SystemInit:0000000000000134 .L0 
     /tmp/ccbRLEvi.s:923    .text.SystemInit:0000000000000134 .L0 
     /tmp/ccbRLEvi.s:924    .text.SystemInit:0000000000000134 .L0 
     /tmp/ccbRLEvi.s:925    .text.SystemInit:0000000000000134 .L0 
GAS LISTING /tmp/ccbRLEvi.s 			page 57


     /tmp/ccbRLEvi.s:928    .text.SystemInit:0000000000000136 .L0 
     /tmp/ccbRLEvi.s:929    .text.SystemInit:0000000000000136 .L0 
     /tmp/ccbRLEvi.s:931    .text.SystemInit:000000000000013a .L0 
     /tmp/ccbRLEvi.s:934    .text.SystemInit:000000000000013c .L0 
     /tmp/ccbRLEvi.s:935    .text.SystemInit:000000000000013c .L0 
     /tmp/ccbRLEvi.s:936    .text.SystemInit:000000000000013c .L0 
     /tmp/ccbRLEvi.s:940    .text.SystemInit:0000000000000142 .L0 
     /tmp/ccbRLEvi.s:942    .text.SystemInit:0000000000000146 .L0 
     /tmp/ccbRLEvi.s:946    .text.SystemInit:000000000000014a .L0 
     /tmp/ccbRLEvi.s:947    .text.SystemInit:000000000000014a .L0 
     /tmp/ccbRLEvi.s:950    .text.SystemInit:000000000000014c .L0 
     /tmp/ccbRLEvi.s:956    .text.SystemInit:0000000000000150 .L0 
     /tmp/ccbRLEvi.s:957    .text.SystemInit:0000000000000150 .L0 
     /tmp/ccbRLEvi.s:958    .text.SystemInit:0000000000000150 .L0 
     /tmp/ccbRLEvi.s:961    .text.SystemInit:0000000000000156 .L0 
     /tmp/ccbRLEvi.s:966    .text.SystemInit:0000000000000160 .L0 
     /tmp/ccbRLEvi.s:967    .text.SystemInit:0000000000000160 .L0 
     /tmp/ccbRLEvi.s:969    .text.SystemInit:0000000000000162 .L0 
     /tmp/ccbRLEvi.s:970    .text.SystemInit:0000000000000164 .L0 
     /tmp/ccbRLEvi.s:972    .text.SystemInit:0000000000000166 .L0 
     /tmp/ccbRLEvi.s:974    .text.SystemInit:0000000000000166 .L0 
     /tmp/ccbRLEvi.s:977    .text.SystemInit:000000000000016c .L0 
     /tmp/ccbRLEvi.s:978    .text.SystemInit:000000000000016c .L0 
     /tmp/ccbRLEvi.s:980    .text.SystemInit:0000000000000170 .L0 
     /tmp/ccbRLEvi.s:982    .text.SystemInit:0000000000000174 .L0 
     /tmp/ccbRLEvi.s:984    .text.SystemInit:0000000000000178 .L0 
     /tmp/ccbRLEvi.s:985    .text.SystemInit:0000000000000178 .L0 
     /tmp/ccbRLEvi.s:988    .text.SystemInit:000000000000017e .L0 
     /tmp/ccbRLEvi.s:989    .text.SystemInit:0000000000000180 .L0 
     /tmp/ccbRLEvi.s:991    .text.SystemInit:0000000000000182 .L0 
     /tmp/ccbRLEvi.s:993    .text.SystemInit:0000000000000184 .L0 
     /tmp/ccbRLEvi.s:1007   .text.startup.main:0000000000000000 main
     /tmp/ccbRLEvi.s:1010   .text.startup.main:0000000000000000 .L0 
     /tmp/ccbRLEvi.s:1011   .text.startup.main:0000000000000000 .L0 
     /tmp/ccbRLEvi.s:1012   .text.startup.main:0000000000000000 .L0 
     /tmp/ccbRLEvi.s:1016   .text.startup.main:0000000000000000 .L0 
     /tmp/ccbRLEvi.s:1019   .text.startup.main:0000000000000000 .L0 
     /tmp/ccbRLEvi.s:1020   .text.startup.main:0000000000000000 $x
     /tmp/ccbRLEvi.s:1020   .text.startup.main:0000000000000000 .L0 
     /tmp/ccbRLEvi.s:1021   .text.startup.main:0000000000000002 .L0 
     /tmp/ccbRLEvi.s:1025   .text.startup.main:0000000000000008 .L0 
     /tmp/ccbRLEvi.s:1026   .text.startup.main:0000000000000008 .L0 
     /tmp/ccbRLEvi.s:1027   .text.startup.main:0000000000000008 .L0 
     /tmp/ccbRLEvi.s:1031   .text.startup.main:0000000000000008 .L0 
     /tmp/ccbRLEvi.s:1040   .text.startup.main:0000000000000012 .L0 
     /tmp/ccbRLEvi.s:1041   .text.startup.main:0000000000000012 .L0 
     /tmp/ccbRLEvi.s:1042   .text.startup.main:0000000000000012 .L0 
     /tmp/ccbRLEvi.s:1050   .text.startup.main:0000000000000018 .L0 
     /tmp/ccbRLEvi.s:1051   .text.startup.main:0000000000000018 .L0 
     /tmp/ccbRLEvi.s:1052   .text.startup.main:0000000000000018 .L0 
     /tmp/ccbRLEvi.s:1060   .text.startup.main:0000000000000020 .L0 
     /tmp/ccbRLEvi.s:1061   .text.startup.main:0000000000000020 .L0 
     /tmp/ccbRLEvi.s:1062   .text.startup.main:0000000000000020 .L0 
     /tmp/ccbRLEvi.s:1070   .text.startup.main:0000000000000026 .L0 
     /tmp/ccbRLEvi.s:1071   .text.startup.main:0000000000000026 .L0 
src/core/core_riscv.h:144    .text.startup.main:0000000000000026 .L0 
     /tmp/ccbRLEvi.s:1078   .text.startup.main:000000000000002a .L0 
GAS LISTING /tmp/ccbRLEvi.s 			page 58


     /tmp/ccbRLEvi.s:1079   .text.startup.main:000000000000002a .L0 
     /tmp/ccbRLEvi.s:1081   .text.startup.main:000000000000002a .L0 
src/core/core_riscv.h:146    .text.startup.main:000000000000002e .L0 
     /tmp/ccbRLEvi.s:1093   .text.startup.main:0000000000000032 .L0 
     /tmp/ccbRLEvi.s:1880   .bss.uart1:0000000000000000 uart1
     /tmp/ccbRLEvi.s:1094   .text.startup.main:0000000000000032 .L0 
     /tmp/ccbRLEvi.s:1103   .text.startup.main:000000000000004a .L0 
     /tmp/ccbRLEvi.s:1104   .text.startup.main:000000000000004a .L0 
     /tmp/ccbRLEvi.s:1105   .text.startup.main:000000000000004a .L0 
     /tmp/ccbRLEvi.s:1107   .text.startup.main:000000000000004e .L0 
     /tmp/ccbRLEvi.s:1886   .sdata.sens_val_border:0000000000000000 sens_val_border
     /tmp/ccbRLEvi.s:1899   .sdata.awtr_state:0000000000000000 awtr_state
     /tmp/ccbRLEvi.s:1118   .text.startup.main:0000000000000068 .L0 
     /tmp/ccbRLEvi.s:1122   .text.startup.main:000000000000006a .L0 
     /tmp/ccbRLEvi.s:1124   .text.startup.main:000000000000006a .L0 
     /tmp/ccbRLEvi.s:1125   .text.startup.main:000000000000006a .L0 
     /tmp/ccbRLEvi.s:1127   .text.startup.main:000000000000006e .L0 
     /tmp/ccbRLEvi.s:1146   .text.startup.main:000000000000007c .L0 
     /tmp/ccbRLEvi.s:1147   .text.startup.main:000000000000007c .L0 
     /tmp/ccbRLEvi.s:1148   .text.startup.main:000000000000007c .L0 
     /tmp/ccbRLEvi.s:1151   .text.startup.main:0000000000000084 .L0 
     /tmp/ccbRLEvi.s:1155   .text.startup.main:0000000000000090 .L0 
     /tmp/ccbRLEvi.s:1156   .text.startup.main:0000000000000090 .L0 
     /tmp/ccbRLEvi.s:1161   .text.startup.main:0000000000000098 .L0 
     /tmp/ccbRLEvi.s:1163   .text.startup.main:000000000000009c .L0 
     /tmp/ccbRLEvi.s:1168   .text.startup.main:00000000000000a4 .L0 
     /tmp/ccbRLEvi.s:1173   .text.startup.main:00000000000000a6 .L0 
     /tmp/ccbRLEvi.s:1174   .text.startup.main:00000000000000a6 .L0 
     /tmp/ccbRLEvi.s:1175   .text.startup.main:00000000000000a6 .L0 
     /tmp/ccbRLEvi.s:1179   .text.startup.main:00000000000000aa .L0 
     /tmp/ccbRLEvi.s:1180   .text.startup.main:00000000000000aa .L0 
     /tmp/ccbRLEvi.s:1183   .text.startup.main:00000000000000b2 .L0 
     /tmp/ccbRLEvi.s:1184   .text.startup.main:00000000000000b2 .L0 
     /tmp/ccbRLEvi.s:1859   .data.msg_hold:0000000000000000 msg_hold
     /tmp/ccbRLEvi.s:1191   .text.startup.main:00000000000000c6 .L0 
     /tmp/ccbRLEvi.s:1192   .text.startup.main:00000000000000c6 .L0 
     /tmp/ccbRLEvi.s:1200   .text.startup.main:00000000000000e0 .L0 
     /tmp/ccbRLEvi.s:1201   .text.startup.main:00000000000000e0 .L0 
     /tmp/ccbRLEvi.s:1213   .text.startup.main:00000000000000fe .L0 
     /tmp/ccbRLEvi.s:1214   .text.startup.main:00000000000000fe .L0 
     /tmp/ccbRLEvi.s:1215   .text.startup.main:00000000000000fe .L0 
     /tmp/ccbRLEvi.s:1216   .text.startup.main:00000000000000fe .L0 
     /tmp/ccbRLEvi.s:1220   .text.startup.main:0000000000000104 .L0 
     /tmp/ccbRLEvi.s:1221   .text.startup.main:0000000000000104 .L0 
     /tmp/ccbRLEvi.s:1224   .text.startup.main:0000000000000106 .L0 
     /tmp/ccbRLEvi.s:1225   .text.startup.main:0000000000000106 .L0 
     /tmp/ccbRLEvi.s:1226   .text.startup.main:0000000000000106 .L0 
     /tmp/ccbRLEvi.s:1229   .text.startup.main:000000000000010a .L0 
     /tmp/ccbRLEvi.s:1231   .text.startup.main:000000000000010e .L0 
     /tmp/ccbRLEvi.s:1235   .text.startup.main:0000000000000112 .L0 
     /tmp/ccbRLEvi.s:1236   .text.startup.main:0000000000000112 .L0 
     /tmp/ccbRLEvi.s:1239   .text.startup.main:0000000000000114 .L0 
     /tmp/ccbRLEvi.s:1245   .text.startup.main:0000000000000118 .L0 
     /tmp/ccbRLEvi.s:1246   .text.startup.main:0000000000000118 .L0 
     /tmp/ccbRLEvi.s:1247   .text.startup.main:0000000000000118 .L0 
     /tmp/ccbRLEvi.s:1253   .text.startup.main:0000000000000122 .L0 
     /tmp/ccbRLEvi.s:1254   .text.startup.main:0000000000000122 .L0 
GAS LISTING /tmp/ccbRLEvi.s 			page 59


     /tmp/ccbRLEvi.s:1255   .text.startup.main:0000000000000122 .L0 
     /tmp/ccbRLEvi.s:1258   .text.startup.main:000000000000012a .L0 
     /tmp/ccbRLEvi.s:1261   .text.startup.main:0000000000000132 .L0 
     /tmp/ccbRLEvi.s:1892   .sbss.sens_val:0000000000000000 sens_val
     /tmp/ccbRLEvi.s:1265   .text.startup.main:000000000000013e .L0 
     /tmp/ccbRLEvi.s:1267   .text.startup.main:0000000000000142 .L0 
     /tmp/ccbRLEvi.s:1866   .data.msg_click_wet:0000000000000000 msg_click_wet
     /tmp/ccbRLEvi.s:1268   .text.startup.main:0000000000000142 .L0 
     /tmp/ccbRLEvi.s:1274   .text.startup.main:0000000000000154 .L0 
     /tmp/ccbRLEvi.s:1275   .text.startup.main:0000000000000154 .L0 
     /tmp/ccbRLEvi.s:1286   .text.startup.main:0000000000000172 .L0 
     /tmp/ccbRLEvi.s:1287   .text.startup.main:0000000000000172 .L0 
     /tmp/ccbRLEvi.s:1288   .text.startup.main:0000000000000172 .L0 
     /tmp/ccbRLEvi.s:1291   .text.startup.main:0000000000000178 .L0 
     /tmp/ccbRLEvi.s:1294   .text.startup.main:000000000000017a .L0 
     /tmp/ccbRLEvi.s:1295   .text.startup.main:000000000000017a .L0 
     /tmp/ccbRLEvi.s:1296   .text.startup.main:000000000000017a .L0 
     /tmp/ccbRLEvi.s:1301   .text.startup.main:0000000000000182 .L0 
     /tmp/ccbRLEvi.s:1302   .text.startup.main:0000000000000182 .L0 
     /tmp/ccbRLEvi.s:1303   .text.startup.main:0000000000000182 .L0 
     /tmp/ccbRLEvi.s:1304   .text.startup.main:0000000000000182 .L0 
     /tmp/ccbRLEvi.s:1308   .text.startup.main:0000000000000188 .L0 
     /tmp/ccbRLEvi.s:1309   .text.startup.main:0000000000000188 .L0 
     /tmp/ccbRLEvi.s:1312   .text.startup.main:000000000000018a .L0 
     /tmp/ccbRLEvi.s:1313   .text.startup.main:000000000000018a .L0 
     /tmp/ccbRLEvi.s:1314   .text.startup.main:000000000000018a .L0 
     /tmp/ccbRLEvi.s:1317   .text.startup.main:000000000000018e .L0 
     /tmp/ccbRLEvi.s:1319   .text.startup.main:0000000000000192 .L0 
     /tmp/ccbRLEvi.s:1323   .text.startup.main:0000000000000196 .L0 
     /tmp/ccbRLEvi.s:1324   .text.startup.main:0000000000000196 .L0 
     /tmp/ccbRLEvi.s:1327   .text.startup.main:0000000000000198 .L0 
     /tmp/ccbRLEvi.s:1333   .text.startup.main:000000000000019c .L0 
     /tmp/ccbRLEvi.s:1334   .text.startup.main:000000000000019c .L0 
     /tmp/ccbRLEvi.s:1335   .text.startup.main:000000000000019c .L0 
     /tmp/ccbRLEvi.s:1338   .text.startup.main:00000000000001a4 .L0 
     /tmp/ccbRLEvi.s:1339   .text.startup.main:00000000000001a4 .L0 
     /tmp/ccbRLEvi.s:1342   .text.startup.main:00000000000001aa .L0 
     /tmp/ccbRLEvi.s:1345   .text.startup.main:00000000000001ac .L0 
     /tmp/ccbRLEvi.s:1346   .text.startup.main:00000000000001ac .L0 
     /tmp/ccbRLEvi.s:1347   .text.startup.main:00000000000001ac .L0 
     /tmp/ccbRLEvi.s:1348   .text.startup.main:00000000000001ac .L0 
     /tmp/ccbRLEvi.s:1352   .text.startup.main:00000000000001b2 .L0 
     /tmp/ccbRLEvi.s:1353   .text.startup.main:00000000000001b2 .L0 
     /tmp/ccbRLEvi.s:1356   .text.startup.main:00000000000001b4 .L0 
     /tmp/ccbRLEvi.s:1357   .text.startup.main:00000000000001b4 .L0 
     /tmp/ccbRLEvi.s:1358   .text.startup.main:00000000000001b4 .L0 
     /tmp/ccbRLEvi.s:1363   .text.startup.main:00000000000001bc .L0 
     /tmp/ccbRLEvi.s:1366   .text.startup.main:00000000000001c2 .L0 
     /tmp/ccbRLEvi.s:1370   .text.startup.main:00000000000001c8 .L0 
     /tmp/ccbRLEvi.s:1371   .text.startup.main:00000000000001c8 .L0 
     /tmp/ccbRLEvi.s:1374   .text.startup.main:00000000000001ca .L0 
     /tmp/ccbRLEvi.s:1378   .text.startup.main:00000000000001ce .L0 
     /tmp/ccbRLEvi.s:1380   .text.startup.main:00000000000001d2 .L0 
     /tmp/ccbRLEvi.s:1385   .text.startup.main:00000000000001d8 .L0 
     /tmp/ccbRLEvi.s:1386   .text.startup.main:00000000000001d8 .L0 
     /tmp/ccbRLEvi.s:1387   .text.startup.main:00000000000001d8 .L0 
     /tmp/ccbRLEvi.s:1394   .text.startup.main:00000000000001f0 .L0 
GAS LISTING /tmp/ccbRLEvi.s 			page 60


     /tmp/ccbRLEvi.s:1395   .text.startup.main:00000000000001f0 .L0 
     /tmp/ccbRLEvi.s:1400   .text.startup.main:00000000000001f8 .L0 
     /tmp/ccbRLEvi.s:1407   .text.startup.main:0000000000000200 .L0 
     /tmp/ccbRLEvi.s:1408   .text.startup.main:0000000000000200 .L0 
     /tmp/ccbRLEvi.s:1852   .data.msg_lhold:0000000000000000 msg_lhold
     /tmp/ccbRLEvi.s:1411   .text.startup.main:0000000000000208 .L0 
     /tmp/ccbRLEvi.s:1413   .text.startup.main:000000000000020c .L0 
     /tmp/ccbRLEvi.s:1415   .text.startup.main:0000000000000210 .L0 
     /tmp/ccbRLEvi.s:1418   .text.startup.main:0000000000000216 .L0 
     /tmp/ccbRLEvi.s:1421   .text.startup.main:000000000000021e .L0 
     /tmp/ccbRLEvi.s:1422   .text.startup.main:000000000000021e .L0 
     /tmp/ccbRLEvi.s:1425   .text.startup.main:0000000000000226 .L0 
     /tmp/ccbRLEvi.s:1426   .text.startup.main:0000000000000226 .L0 
     /tmp/ccbRLEvi.s:1438   .text.startup.main:0000000000000244 .L0 
     /tmp/ccbRLEvi.s:1439   .text.startup.main:0000000000000244 .L0 
     /tmp/ccbRLEvi.s:1440   .text.startup.main:0000000000000244 .L0 
     /tmp/ccbRLEvi.s:1441   .text.startup.main:0000000000000244 .L0 
     /tmp/ccbRLEvi.s:1445   .text.startup.main:000000000000024a .L0 
     /tmp/ccbRLEvi.s:1446   .text.startup.main:000000000000024a .L0 
     /tmp/ccbRLEvi.s:1448   .text.startup.main:000000000000024c .L0 
     /tmp/ccbRLEvi.s:1451   .text.startup.main:000000000000024e .L0 
     /tmp/ccbRLEvi.s:1452   .text.startup.main:000000000000024e .L0 
     /tmp/ccbRLEvi.s:1453   .text.startup.main:000000000000024e .L0 
     /tmp/ccbRLEvi.s:1456   .text.startup.main:0000000000000250 .L0 
     /tmp/ccbRLEvi.s:1458   .text.startup.main:0000000000000254 .L0 
     /tmp/ccbRLEvi.s:1462   .text.startup.main:0000000000000258 .L0 
     /tmp/ccbRLEvi.s:1463   .text.startup.main:0000000000000258 .L0 
     /tmp/ccbRLEvi.s:1466   .text.startup.main:000000000000025a .L0 
     /tmp/ccbRLEvi.s:1472   .text.startup.main:000000000000025e .L0 
     /tmp/ccbRLEvi.s:1479   .text.startup.main:0000000000000268 .L0 
     /tmp/ccbRLEvi.s:1480   .text.startup.main:0000000000000268 .L0 
src/core/core_riscv.h:160    .text.startup.main:0000000000000268 .L0 
     /tmp/ccbRLEvi.s:1487   .text.startup.main:000000000000026c .L0 
     /tmp/ccbRLEvi.s:1488   .text.startup.main:000000000000026c .L0 
     /tmp/ccbRLEvi.s:1490   .text.startup.main:000000000000026c .L0 
src/core/core_riscv.h:162    .text.startup.main:0000000000000270 .L0 
     /tmp/ccbRLEvi.s:1502   .text.startup.main:0000000000000274 .L0 
     /tmp/ccbRLEvi.s:1503   .text.startup.main:0000000000000274 .L0 
     /tmp/ccbRLEvi.s:1508   .text.startup.main:000000000000027c .L0 
     /tmp/ccbRLEvi.s:1509   .text.startup.main:000000000000027c .L0 
     /tmp/ccbRLEvi.s:1510   .text.startup.main:000000000000027c .L0 
     /tmp/ccbRLEvi.s:1511   .text.startup.main:000000000000027c .L0 
     /tmp/ccbRLEvi.s:1515   .text.startup.main:0000000000000282 .L0 
     /tmp/ccbRLEvi.s:1516   .text.startup.main:0000000000000282 .L0 
     /tmp/ccbRLEvi.s:1519   .text.startup.main:0000000000000284 .L0 
     /tmp/ccbRLEvi.s:1520   .text.startup.main:0000000000000284 .L0 
     /tmp/ccbRLEvi.s:1521   .text.startup.main:0000000000000284 .L0 
     /tmp/ccbRLEvi.s:1526   .text.startup.main:000000000000028c .L0 
     /tmp/ccbRLEvi.s:1528   .text.startup.main:0000000000000290 .L0 
     /tmp/ccbRLEvi.s:1532   .text.startup.main:0000000000000294 .L0 
     /tmp/ccbRLEvi.s:1533   .text.startup.main:0000000000000294 .L0 
     /tmp/ccbRLEvi.s:1536   .text.startup.main:0000000000000296 .L0 
     /tmp/ccbRLEvi.s:1542   .text.startup.main:000000000000029a .L0 
     /tmp/ccbRLEvi.s:1543   .text.startup.main:000000000000029a .L0 
     /tmp/ccbRLEvi.s:1544   .text.startup.main:000000000000029a .L0 
     /tmp/ccbRLEvi.s:1549   .text.startup.main:00000000000002a2 .L0 
     /tmp/ccbRLEvi.s:1550   .text.startup.main:00000000000002a2 .L0 
GAS LISTING /tmp/ccbRLEvi.s 			page 61


src/core/core_riscv.h:144    .text.startup.main:00000000000002a2 .L0 
     /tmp/ccbRLEvi.s:1557   .text.startup.main:00000000000002a6 .L0 
     /tmp/ccbRLEvi.s:1558   .text.startup.main:00000000000002a6 .L0 
     /tmp/ccbRLEvi.s:1560   .text.startup.main:00000000000002a6 .L0 
src/core/core_riscv.h:146    .text.startup.main:00000000000002aa .L0 
     /tmp/ccbRLEvi.s:1572   .text.startup.main:00000000000002ae .L0 
     /tmp/ccbRLEvi.s:1573   .text.startup.main:00000000000002ae .L0 
     /tmp/ccbRLEvi.s:1873   .data.msg_click_dry:0000000000000000 msg_click_dry
     /tmp/ccbRLEvi.s:1581   .text.startup.main:00000000000002c8 .L0 
     /tmp/ccbRLEvi.s:1582   .text.startup.main:00000000000002c8 .L0 
     /tmp/ccbRLEvi.s:1594   .text.startup.main:00000000000002e8 .L0 
     /tmp/ccbRLEvi.s:1601   .text.USART1_IRQHandler:0000000000000000 USART1_IRQHandler
     /tmp/ccbRLEvi.s:1604   .text.USART1_IRQHandler:0000000000000000 .L0 
     /tmp/ccbRLEvi.s:1605   .text.USART1_IRQHandler:0000000000000000 .L0 
     /tmp/ccbRLEvi.s:1606   .text.USART1_IRQHandler:0000000000000000 .L0 
     /tmp/ccbRLEvi.s:1607   .text.USART1_IRQHandler:0000000000000000 $x
     /tmp/ccbRLEvi.s:1607   .text.USART1_IRQHandler:0000000000000000 .L0 
     /tmp/ccbRLEvi.s:1612   .text.USART1_IRQHandler:0000000000000010 .L0 
     /tmp/ccbRLEvi.s:1613   .text.USART1_IRQHandler:0000000000000014 .L0 
     /tmp/ccbRLEvi.s:1624   .text.SysTick_IRQHandler:0000000000000000 SysTick_IRQHandler
     /tmp/ccbRLEvi.s:1627   .text.SysTick_IRQHandler:0000000000000000 .L0 
     /tmp/ccbRLEvi.s:1628   .text.SysTick_IRQHandler:0000000000000000 .L0 
     /tmp/ccbRLEvi.s:1629   .text.SysTick_IRQHandler:0000000000000000 .L0 
     /tmp/ccbRLEvi.s:1630   .text.SysTick_IRQHandler:0000000000000000 $x
     /tmp/ccbRLEvi.s:1630   .text.SysTick_IRQHandler:0000000000000000 .L0 
     /tmp/ccbRLEvi.s:1632   .text.SysTick_IRQHandler:0000000000000004 .L0 
     /tmp/ccbRLEvi.s:1635   .text.SysTick_IRQHandler:000000000000000c .L0 
     /tmp/ccbRLEvi.s:1637   .text.SysTick_IRQHandler:0000000000000010 .L0 
     /tmp/ccbRLEvi.s:1638   .text.SysTick_IRQHandler:0000000000000010 .L0 
     /tmp/ccbRLEvi.s:1643   .text.SysTick_IRQHandler:0000000000000020 .L0 
     /tmp/ccbRLEvi.s:1644   .text.SysTick_IRQHandler:0000000000000020 .L0 
     /tmp/ccbRLEvi.s:1647   .text.SysTick_IRQHandler:0000000000000028 .L0 
     /tmp/ccbRLEvi.s:1648   .text.SysTick_IRQHandler:0000000000000028 .L0 
     /tmp/ccbRLEvi.s:1649   .text.SysTick_IRQHandler:000000000000002c .L0 
     /tmp/ccbRLEvi.s:1663   .text.EXTI7_0_IRQHandler:0000000000000000 EXTI7_0_IRQHandler
     /tmp/ccbRLEvi.s:1666   .text.EXTI7_0_IRQHandler:0000000000000000 .L0 
     /tmp/ccbRLEvi.s:1667   .text.EXTI7_0_IRQHandler:0000000000000000 .L0 
     /tmp/ccbRLEvi.s:1668   .text.EXTI7_0_IRQHandler:0000000000000000 .L0 
     /tmp/ccbRLEvi.s:1669   .text.EXTI7_0_IRQHandler:0000000000000000 $x
     /tmp/ccbRLEvi.s:1669   .text.EXTI7_0_IRQHandler:0000000000000000 .L0 
     /tmp/ccbRLEvi.s:1672   .text.EXTI7_0_IRQHandler:0000000000000008 .L0 
     /tmp/ccbRLEvi.s:1675   .text.EXTI7_0_IRQHandler:0000000000000010 .L0 
     /tmp/ccbRLEvi.s:1676   .text.EXTI7_0_IRQHandler:0000000000000010 .L0 
     /tmp/ccbRLEvi.s:1677   .text.EXTI7_0_IRQHandler:0000000000000010 .L0 
     /tmp/ccbRLEvi.s:1678   .text.EXTI7_0_IRQHandler:0000000000000010 .L0 
     /tmp/ccbRLEvi.s:1839   .sbss._ZZ18EXTI7_0_IRQHandlerE14btn_state_last:0000000000000000 _ZZ18EXTI7_0_IRQHandlerE14btn_state_last
     /tmp/ccbRLEvi.s:1681   .text.EXTI7_0_IRQHandler:0000000000000018 .L0 
     /tmp/ccbRLEvi.s:1683   .text.EXTI7_0_IRQHandler:000000000000001c .L0 
     /tmp/ccbRLEvi.s:1686   .text.EXTI7_0_IRQHandler:0000000000000020 .L0 
     /tmp/ccbRLEvi.s:1688   .text.EXTI7_0_IRQHandler:0000000000000024 .L0 
     /tmp/ccbRLEvi.s:1689   .text.EXTI7_0_IRQHandler:0000000000000024 .L0 
     /tmp/ccbRLEvi.s:1691   .text.EXTI7_0_IRQHandler:0000000000000028 .L0 
     /tmp/ccbRLEvi.s:1693   .text.EXTI7_0_IRQHandler:000000000000002a .L0 
     /tmp/ccbRLEvi.s:1694   .text.EXTI7_0_IRQHandler:000000000000002a .L0 
     /tmp/ccbRLEvi.s:1702   .text.EXTI7_0_IRQHandler:0000000000000042 .L0 
     /tmp/ccbRLEvi.s:1703   .text.EXTI7_0_IRQHandler:0000000000000042 .L0 
     /tmp/ccbRLEvi.s:1706   .text.EXTI7_0_IRQHandler:000000000000004a .L0 
GAS LISTING /tmp/ccbRLEvi.s 			page 62


     /tmp/ccbRLEvi.s:1707   .text.EXTI7_0_IRQHandler:000000000000004a .L0 
     /tmp/ccbRLEvi.s:1845   .sbss._ZZ18EXTI7_0_IRQHandlerE4wait:0000000000000000 _ZZ18EXTI7_0_IRQHandlerE4wait
     /tmp/ccbRLEvi.s:1710   .text.EXTI7_0_IRQHandler:0000000000000050 .L0 
     /tmp/ccbRLEvi.s:1714   .text.EXTI7_0_IRQHandler:0000000000000058 .L0 
     /tmp/ccbRLEvi.s:1718   .text.EXTI7_0_IRQHandler:000000000000005c .L0 
     /tmp/ccbRLEvi.s:1719   .text.EXTI7_0_IRQHandler:000000000000005c .L0 
     /tmp/ccbRLEvi.s:1727   .text.EXTI7_0_IRQHandler:0000000000000074 .L0 
     /tmp/ccbRLEvi.s:1728   .text.EXTI7_0_IRQHandler:0000000000000074 .L0 
     /tmp/ccbRLEvi.s:1730   .text.EXTI7_0_IRQHandler:0000000000000078 .L0 
     /tmp/ccbRLEvi.s:1733   .text.EXTI7_0_IRQHandler:000000000000007e .L0 
     /tmp/ccbRLEvi.s:1735   .text.EXTI7_0_IRQHandler:0000000000000082 .L0 
     /tmp/ccbRLEvi.s:1737   .text.EXTI7_0_IRQHandler:0000000000000086 .L0 
     /tmp/ccbRLEvi.s:1739   .text.EXTI7_0_IRQHandler:0000000000000088 .L0 
     /tmp/ccbRLEvi.s:1741   .text.EXTI7_0_IRQHandler:000000000000008c .L0 
     /tmp/ccbRLEvi.s:1743   .text.EXTI7_0_IRQHandler:0000000000000090 .L0 
     /tmp/ccbRLEvi.s:1747   .text.EXTI7_0_IRQHandler:000000000000009a .L0 
     /tmp/ccbRLEvi.s:1748   .text.EXTI7_0_IRQHandler:000000000000009a .L0 
     /tmp/ccbRLEvi.s:1752   .text.EXTI7_0_IRQHandler:00000000000000a4 .L0 
     /tmp/ccbRLEvi.s:1755   .text.EXTI7_0_IRQHandler:00000000000000a8 .L0 
     /tmp/ccbRLEvi.s:1756   .text.EXTI7_0_IRQHandler:00000000000000a8 .L0 
     /tmp/ccbRLEvi.s:1760   .text.EXTI7_0_IRQHandler:00000000000000b2 .L0 
     /tmp/ccbRLEvi.s:1763   .text.EXTI7_0_IRQHandler:00000000000000b6 .L0 
     /tmp/ccbRLEvi.s:1767   .text.EXTI7_0_IRQHandler:00000000000000c0 .L0 
     /tmp/ccbRLEvi.s:1768   .text.EXTI7_0_IRQHandler:00000000000000c0 .L0 
     /tmp/ccbRLEvi.s:1772   .text.EXTI7_0_IRQHandler:00000000000000ca .L0 
     /tmp/ccbRLEvi.s:1775   .text.EXTI7_0_IRQHandler:00000000000000ce .L0 
     /tmp/ccbRLEvi.s:1776   .text.EXTI7_0_IRQHandler:00000000000000ce .L0 
     /tmp/ccbRLEvi.s:1780   .text.EXTI7_0_IRQHandler:00000000000000d8 .L0 
     /tmp/ccbRLEvi.s:1781   .text.EXTI7_0_IRQHandler:00000000000000dc .L0 
     /tmp/ccbRLEvi.s:1788   .text.HardFault_Handler:0000000000000000 HardFault_Handler
     /tmp/ccbRLEvi.s:1791   .text.HardFault_Handler:0000000000000000 .L0 
     /tmp/ccbRLEvi.s:1792   .text.HardFault_Handler:0000000000000000 .L0 
     /tmp/ccbRLEvi.s:1793   .text.HardFault_Handler:0000000000000000 .L0 
     /tmp/ccbRLEvi.s:1794   .text.HardFault_Handler:0000000000000000 $x
     /tmp/ccbRLEvi.s:1794   .text.HardFault_Handler:0000000000000000 .L0 
     /tmp/ccbRLEvi.s:1798   .text.HardFault_Handler:0000000000000008 .L0 
     /tmp/ccbRLEvi.s:1799   .text.HardFault_Handler:0000000000000008 .L0 
     /tmp/ccbRLEvi.s:1800   .text.HardFault_Handler:0000000000000008 .L0 
     /tmp/ccbRLEvi.s:1801   .text.HardFault_Handler:0000000000000008 .L0 
     /tmp/ccbRLEvi.s:1802   .text.HardFault_Handler:000000000000000a .L0 
     /tmp/ccbRLEvi.s:1808   .text.startup._GLOBAL__sub_I__Z10hexToASCIIPKhhPh:0000000000000000 _GLOBAL__sub_I__Z10hexToASCIIPKhhPh
     /tmp/ccbRLEvi.s:1811   .text.startup._GLOBAL__sub_I__Z10hexToASCIIPKhhPh:0000000000000000 .L0 
     /tmp/ccbRLEvi.s:1815   .text.startup._GLOBAL__sub_I__Z10hexToASCIIPKhhPh:0000000000000000 .L0 
     /tmp/ccbRLEvi.s:1816   .text.startup._GLOBAL__sub_I__Z10hexToASCIIPKhhPh:0000000000000000 $x
     /tmp/ccbRLEvi.s:1816   .text.startup._GLOBAL__sub_I__Z10hexToASCIIPKhhPh:0000000000000000 .L0 
     /tmp/ccbRLEvi.s:1830   .text.startup._GLOBAL__sub_I__Z10hexToASCIIPKhhPh:000000000000002a .L0 
     /tmp/ccbRLEvi.s:7428   .debug_line_str:000000000000002f .L0 
     /tmp/ccbRLEvi.s:7428   .debug_line_str:0000000000000051 .L0 
     /tmp/ccbRLEvi.s:7428   .debug_line_str:0000000000000055 .L0 
     /tmp/ccbRLEvi.s:7428   .debug_line_str:000000000000005e .L0 
     /tmp/ccbRLEvi.s:7428   .debug_line_str:000000000000008f .L0 
     /tmp/ccbRLEvi.s:7428   .debug_line_str:00000000000000bc .L0 
     /tmp/ccbRLEvi.s:7428   .debug_line_str:00000000000000c5 .L0 
     /tmp/ccbRLEvi.s:7428   .debug_line_str:00000000000000ce .L0 
     /tmp/ccbRLEvi.s:7428   .debug_line_str:00000000000000da .L0 
     /tmp/ccbRLEvi.s:7428   .debug_line_str:00000000000000e3 .L0 
     /tmp/ccbRLEvi.s:7428   .debug_line_str:00000000000000f0 .L0 
GAS LISTING /tmp/ccbRLEvi.s 			page 63


     /tmp/ccbRLEvi.s:7428   .debug_line_str:00000000000000fb .L0 
     /tmp/ccbRLEvi.s:7428   .debug_line_str:000000000000010c .L0 
     /tmp/ccbRLEvi.s:7428   .debug_line_str:0000000000000116 .L0 
     /tmp/ccbRLEvi.s:7428   .debug_line_str:000000000000011d .L0 
     /tmp/ccbRLEvi.s:86     .text._Z10hexToASCIIPKhhPh:0000000000000040 .L0 
     /tmp/ccbRLEvi.s:237    .text._Z10intToASCIIiPhh:00000000000000a4 .L0 
     /tmp/ccbRLEvi.s:365    .text._Z10ASCIIToIntPKhh:0000000000000074 .L0 
     /tmp/ccbRLEvi.s:412    .text._Z6str_eqPKhS0_h:0000000000000022 .L0 
     /tmp/ccbRLEvi.s:456    .text._Z6delayTm:000000000000001a .L0 
     /tmp/ccbRLEvi.s:473    .text._Z9flash_getv:000000000000000a .L0 
     /tmp/ccbRLEvi.s:708    .text._Z10flash_saveh:00000000000000e8 .L0 
     /tmp/ccbRLEvi.s:996    .text.SystemInit:0000000000000184 .L0 
     /tmp/ccbRLEvi.s:1597   .text.startup.main:00000000000002e8 .L0 
     /tmp/ccbRLEvi.s:1616   .text.USART1_IRQHandler:0000000000000014 .L0 
     /tmp/ccbRLEvi.s:1652   .text.SysTick_IRQHandler:000000000000002c .L0 
     /tmp/ccbRLEvi.s:1784   .text.EXTI7_0_IRQHandler:00000000000000dc .L0 
     /tmp/ccbRLEvi.s:1805   .text.HardFault_Handler:000000000000000a .L0 
     /tmp/ccbRLEvi.s:1833   .text.startup._GLOBAL__sub_I__Z10hexToASCIIPKhhPh:000000000000002a .L0 
     /tmp/ccbRLEvi.s:75     .text._Z10hexToASCIIPKhhPh:000000000000003e .L1
     /tmp/ccbRLEvi.s:46     .text._Z10hexToASCIIPKhhPh:000000000000001c .L4
     /tmp/ccbRLEvi.s:66     .text._Z10hexToASCIIPKhhPh:0000000000000034 .L6
     /tmp/ccbRLEvi.s:31     .text._Z10hexToASCIIPKhhPh:000000000000000a .L7
     /tmp/ccbRLEvi.s:216    .text._Z10intToASCIIiPhh:0000000000000092 .L13
     /tmp/ccbRLEvi.s:170    .text._Z10intToASCIIiPhh:0000000000000064 .L19
     /tmp/ccbRLEvi.s:192    .text._Z10intToASCIIiPhh:0000000000000080 .L12
     /tmp/ccbRLEvi.s:207    .text._Z10intToASCIIiPhh:000000000000008a .L22
     /tmp/ccbRLEvi.s:130    .text._Z10intToASCIIiPhh:000000000000002c .L26
     /tmp/ccbRLEvi.s:168    .text._Z10intToASCIIiPhh:0000000000000062 .L23
     /tmp/ccbRLEvi.s:147    .text._Z10intToASCIIiPhh:0000000000000046 .L17
     /tmp/ccbRLEvi.s:123    .text._Z10intToASCIIiPhh:0000000000000020 .L15
     /tmp/ccbRLEvi.s:352    .text._Z10ASCIIToIntPKhh:0000000000000070 .L33
     /tmp/ccbRLEvi.s:298    .text._Z10ASCIIToIntPKhh:0000000000000038 .L32
     /tmp/ccbRLEvi.s:345    .text._Z10ASCIIToIntPKhh:000000000000006c .L35
     /tmp/ccbRLEvi.s:332    .text._Z10ASCIIToIntPKhh:000000000000005e .L41
     /tmp/ccbRLEvi.s:274    .text._Z10ASCIIToIntPKhh:000000000000001c .L42
     /tmp/ccbRLEvi.s:282    .text._Z10ASCIIToIntPKhh:0000000000000026 .L29
     /tmp/ccbRLEvi.s:405    .text._Z6str_eqPKhS0_h:000000000000001e .L46
     /tmp/ccbRLEvi.s:386    .text._Z6str_eqPKhS0_h:000000000000000a .L45
     /tmp/ccbRLEvi.s:382    .text._Z6str_eqPKhS0_h:0000000000000006 .L49
     /tmp/ccbRLEvi.s:450    .text._Z6delayTm:0000000000000018 .L50
     /tmp/ccbRLEvi.s:442    .text._Z6delayTm:0000000000000012 .L52
     /tmp/ccbRLEvi.s:700    .text._Z10flash_saveh:00000000000000e4 .L58
     /tmp/ccbRLEvi.s:563    .text._Z10flash_saveh:0000000000000058 .L59
     /tmp/ccbRLEvi.s:597    .text._Z10flash_saveh:000000000000007e .L60
     /tmp/ccbRLEvi.s:619    .text._Z10flash_saveh:000000000000009a .L61
     /tmp/ccbRLEvi.s:640    .text._Z10flash_saveh:00000000000000b6 .L62
     /tmp/ccbRLEvi.s:952    .text.SystemInit:0000000000000150 .L68
     /tmp/ccbRLEvi.s:944    .text.SystemInit:000000000000014a .L69
     /tmp/ccbRLEvi.s:998    .rodata.main.str1.4:0000000000000000 .LC0
     /tmp/ccbRLEvi.s:1136   .rodata.main:0000000000000000 .L76
     /tmp/ccbRLEvi.s:1001   .rodata.main.str1.4:0000000000000014 .LC1
     /tmp/ccbRLEvi.s:1119   .text.startup.main:000000000000006a .L74
     /tmp/ccbRLEvi.s:1241   .text.startup.main:0000000000000118 .L90
     /tmp/ccbRLEvi.s:1233   .text.startup.main:0000000000000112 .L91
     /tmp/ccbRLEvi.s:1285   .text.startup.main:0000000000000172 .L103
     /tmp/ccbRLEvi.s:1475   .text.startup.main:0000000000000268 .L104
     /tmp/ccbRLEvi.s:1329   .text.startup.main:000000000000019c .L81
GAS LISTING /tmp/ccbRLEvi.s 			page 64


     /tmp/ccbRLEvi.s:1321   .text.startup.main:0000000000000196 .L82
     /tmp/ccbRLEvi.s:1376   .text.startup.main:00000000000001ce .L85
     /tmp/ccbRLEvi.s:1368   .text.startup.main:00000000000001c8 .L105
     /tmp/ccbRLEvi.s:1468   .text.startup.main:000000000000025e .L92
     /tmp/ccbRLEvi.s:1460   .text.startup.main:0000000000000258 .L93
     /tmp/ccbRLEvi.s:1403   .text.startup.main:0000000000000200 .L94
     /tmp/ccbRLEvi.s:1538   .text.startup.main:000000000000029a .L87
     /tmp/ccbRLEvi.s:1530   .text.startup.main:0000000000000294 .L88
     /tmp/ccbRLEvi.s:1292   .text.startup.main:000000000000017a .L80
     /tmp/ccbRLEvi.s:1343   .text.startup.main:00000000000001ac .L79
     /tmp/ccbRLEvi.s:1251   .text.startup.main:0000000000000122 .L78
     /tmp/ccbRLEvi.s:1143   .text.startup.main:000000000000007c .L77
     /tmp/ccbRLEvi.s:1383   .text.startup.main:00000000000001d8 .L75
     /tmp/ccbRLEvi.s:1618   .rodata.SysTick_IRQHandler.str1.4:0000000000000000 .LC2
     /tmp/ccbRLEvi.s:1654   .rodata.EXTI7_0_IRQHandler.str1.4:0000000000000000 .LC3
     /tmp/ccbRLEvi.s:1657   .rodata.EXTI7_0_IRQHandler.str1.4:0000000000000014 .LC4
     /tmp/ccbRLEvi.s:1712   .text.EXTI7_0_IRQHandler:0000000000000058 .L108
     /tmp/ccbRLEvi.s:1716   .text.EXTI7_0_IRQHandler:000000000000005c .L110
     /tmp/ccbRLEvi.s:1753   .text.EXTI7_0_IRQHandler:00000000000000a8 .L114
     /tmp/ccbRLEvi.s:1761   .text.EXTI7_0_IRQHandler:00000000000000b6 .L112
     /tmp/ccbRLEvi.s:1773   .text.EXTI7_0_IRQHandler:00000000000000ce .L113
     /tmp/ccbRLEvi.s:1796   .text.HardFault_Handler:0000000000000008 .L116
     /tmp/ccbRLEvi.s:4529   .debug_abbrev:0000000000000000 .Ldebug_abbrev0
     /tmp/ccbRLEvi.s:7381   .debug_str:00000000000009fd .LASF244
     /tmp/ccbRLEvi.s:7426   .debug_line_str:0000000000000022 .LASF0
     /tmp/ccbRLEvi.s:7424   .debug_line_str:0000000000000000 .LASF1
     /tmp/ccbRLEvi.s:6863   .debug_rnglists:0000000000000061 .LLRL55
     /tmp/ccbRLEvi.s:6909   .debug_line:0000000000000000 .Ldebug_line0
     /tmp/ccbRLEvi.s:7243   .debug_str:000000000000070b .LASF148
     /tmp/ccbRLEvi.s:7291   .debug_str:000000000000080a .LASF2
     /tmp/ccbRLEvi.s:6985   .debug_str:0000000000000196 .LASF3
     /tmp/ccbRLEvi.s:7319   .debug_str:00000000000008ad .LASF4
     /tmp/ccbRLEvi.s:7021   .debug_str:0000000000000241 .LASF5
     /tmp/ccbRLEvi.s:7173   .debug_str:000000000000058f .LASF6
     /tmp/ccbRLEvi.s:7201   .debug_str:0000000000000632 .LASF7
     /tmp/ccbRLEvi.s:6961   .debug_str:000000000000011e .LASF8
     /tmp/ccbRLEvi.s:6995   .debug_str:00000000000001be .LASF9
     /tmp/ccbRLEvi.s:6913   .debug_str:0000000000000005 .LASF10
     /tmp/ccbRLEvi.s:6933   .debug_str:0000000000000081 .LASF11
     /tmp/ccbRLEvi.s:7139   .debug_str:00000000000004d9 .LASF12
     /tmp/ccbRLEvi.s:6943   .debug_str:00000000000000b3 .LASF13
     /tmp/ccbRLEvi.s:7221   .debug_str:0000000000000689 .LASF14
     /tmp/ccbRLEvi.s:7033   .debug_str:0000000000000284 .LASF15
     /tmp/ccbRLEvi.s:7363   .debug_str:000000000000096f .LASF16
     /tmp/ccbRLEvi.s:7127   .debug_str:000000000000049b .LASF17
     /tmp/ccbRLEvi.s:6937   .debug_str:0000000000000091 .LASF18
     /tmp/ccbRLEvi.s:7203   .debug_str:000000000000063b .LASF19
     /tmp/ccbRLEvi.s:6967   .debug_str:0000000000000143 .LASF20
     /tmp/ccbRLEvi.s:7315   .debug_str:0000000000000892 .LASF21
     /tmp/ccbRLEvi.s:7287   .debug_str:00000000000007f4 .LASF22
     /tmp/ccbRLEvi.s:7029   .debug_str:0000000000000273 .LASF23
     /tmp/ccbRLEvi.s:6997   .debug_str:00000000000001c7 .LASF24
     /tmp/ccbRLEvi.s:7245   .debug_str:0000000000000710 .LASF25
     /tmp/ccbRLEvi.s:7311   .debug_str:0000000000000873 .LASF26
     /tmp/ccbRLEvi.s:7299   .debug_str:000000000000083e .LASF27
     /tmp/ccbRLEvi.s:7327   .debug_str:00000000000008d8 .LASF28
     /tmp/ccbRLEvi.s:6945   .debug_str:00000000000000c6 .LASF29
GAS LISTING /tmp/ccbRLEvi.s 			page 65


     /tmp/ccbRLEvi.s:7061   .debug_str:0000000000000318 .LASF31
     /tmp/ccbRLEvi.s:7377   .debug_str:00000000000009e6 .LASF30
     /tmp/ccbRLEvi.s:7309   .debug_str:0000000000000869 .LASF32
     /tmp/ccbRLEvi.s:7347   .debug_str:000000000000092e .LASF33
     /tmp/ccbRLEvi.s:7279   .debug_str:00000000000007d2 .LASF34
     /tmp/ccbRLEvi.s:7045   .debug_str:00000000000002d6 .LASF35
     /tmp/ccbRLEvi.s:7383   .debug_str:0000000000000a7f .LASF36
     /tmp/ccbRLEvi.s:7285   .debug_str:00000000000007eb .LASF37
     /tmp/ccbRLEvi.s:7349   .debug_str:000000000000093c .LASF38
     /tmp/ccbRLEvi.s:7325   .debug_str:00000000000008c6 .LASF39
     /tmp/ccbRLEvi.s:7171   .debug_str:0000000000000581 .LASF40
     /tmp/ccbRLEvi.s:7039   .debug_str:00000000000002a7 .LASF41
     /tmp/ccbRLEvi.s:7147   .debug_str:0000000000000502 .LASF42
     /tmp/ccbRLEvi.s:7241   .debug_str:0000000000000702 .LASF43
     /tmp/ccbRLEvi.s:7009   .debug_str:0000000000000202 .LASF44
     /tmp/ccbRLEvi.s:6999   .debug_str:00000000000001d5 .LASF48
     /tmp/ccbRLEvi.s:7295   .debug_str:000000000000082b .LASF45
     /tmp/ccbRLEvi.s:7183   .debug_str:00000000000005ee .LASF46
     /tmp/ccbRLEvi.s:6959   .debug_str:0000000000000112 .LASF47
     /tmp/ccbRLEvi.s:7155   .debug_str:000000000000052e .LASF49
     /tmp/ccbRLEvi.s:7129   .debug_str:00000000000004ae .LASF50
     /tmp/ccbRLEvi.s:7323   .debug_str:00000000000008bf .LASF51
     /tmp/ccbRLEvi.s:6951   .debug_str:00000000000000e8 .LASF52
     /tmp/ccbRLEvi.s:7407   .debug_str:0000000000000af9 .LASF53
     /tmp/ccbRLEvi.s:7301   .debug_str:000000000000084b .LASF54
     /tmp/ccbRLEvi.s:6977   .debug_str:0000000000000173 .LASF55
     /tmp/ccbRLEvi.s:7047   .debug_str:00000000000002e1 .LASF245
     /tmp/ccbRLEvi.s:6971   .debug_str:000000000000015a .LASF56
     /tmp/ccbRLEvi.s:6917   .debug_str:0000000000000018 .LASF57
     /tmp/ccbRLEvi.s:7303   .debug_str:0000000000000851 .LASF58
     /tmp/ccbRLEvi.s:6919   .debug_str:0000000000000021 .LASF59
     /tmp/ccbRLEvi.s:6993   .debug_str:00000000000001b7 .LASF60
     /tmp/ccbRLEvi.s:7265   .debug_str:000000000000078c .LASF61
     /tmp/ccbRLEvi.s:7367   .debug_str:0000000000000989 .LASF62
     /tmp/ccbRLEvi.s:7267   .debug_str:0000000000000796 .LASF63
     /tmp/ccbRLEvi.s:7043   .debug_str:00000000000002d1 .LASF64
     /tmp/ccbRLEvi.s:7269   .debug_str:00000000000007a0 .LASF65
     /tmp/ccbRLEvi.s:7333   .debug_str:00000000000008fa .LASF66
     /tmp/ccbRLEvi.s:7271   .debug_str:00000000000007aa .LASF67
     /tmp/ccbRLEvi.s:7393   .debug_str:0000000000000abf .LASF68
     /tmp/ccbRLEvi.s:7273   .debug_str:00000000000007b4 .LASF69
     /tmp/ccbRLEvi.s:7359   .debug_str:0000000000000961 .LASF70
     /tmp/ccbRLEvi.s:7275   .debug_str:00000000000007be .LASF71
     /tmp/ccbRLEvi.s:7001   .debug_str:00000000000001e3 .LASF72
     /tmp/ccbRLEvi.s:7277   .debug_str:00000000000007c8 .LASF73
     /tmp/ccbRLEvi.s:7073   .debug_str:0000000000000362 .LASF74
     /tmp/ccbRLEvi.s:7403   .debug_str:0000000000000ae0 .LASF75
     /tmp/ccbRLEvi.s:6941   .debug_str:00000000000000ad .LASF76
     /tmp/ccbRLEvi.s:7191   .debug_str:0000000000000609 .LASF77
     /tmp/ccbRLEvi.s:6965   .debug_str:0000000000000134 .LASF80
     /tmp/ccbRLEvi.s:7223   .debug_str:000000000000069c .LASF78
     /tmp/ccbRLEvi.s:7233   .debug_str:00000000000006d5 .LASF79
     /tmp/ccbRLEvi.s:7207   .debug_str:000000000000064f .LASF81
     /tmp/ccbRLEvi.s:7355   .debug_str:0000000000000956 .LASF82
     /tmp/ccbRLEvi.s:7251   .debug_str:0000000000000730 .LASF83
     /tmp/ccbRLEvi.s:7253   .debug_str:0000000000000736 .LASF84
     /tmp/ccbRLEvi.s:7035   .debug_str:0000000000000297 .LASF85
GAS LISTING /tmp/ccbRLEvi.s 			page 66


     /tmp/ccbRLEvi.s:7037   .debug_str:000000000000029f .LASF86
     /tmp/ccbRLEvi.s:7049   .debug_str:00000000000002ec .LASF87
     /tmp/ccbRLEvi.s:7051   .debug_str:00000000000002f2 .LASF88
     /tmp/ccbRLEvi.s:7053   .debug_str:00000000000002f8 .LASF89
     /tmp/ccbRLEvi.s:7055   .debug_str:00000000000002fe .LASF90
     /tmp/ccbRLEvi.s:6923   .debug_str:0000000000000034 .LASF91
     /tmp/ccbRLEvi.s:6947   .debug_str:00000000000000d3 .LASF92
     /tmp/ccbRLEvi.s:7337   .debug_str:0000000000000907 .LASF93
     /tmp/ccbRLEvi.s:7339   .debug_str:000000000000090d .LASF94
     /tmp/ccbRLEvi.s:7341   .debug_str:0000000000000913 .LASF95
     /tmp/ccbRLEvi.s:6911   .debug_str:0000000000000000 .LASF96
     /tmp/ccbRLEvi.s:7101   .debug_str:000000000000040b .LASF97
     /tmp/ccbRLEvi.s:7103   .debug_str:0000000000000413 .LASF98
     /tmp/ccbRLEvi.s:7105   .debug_str:000000000000041b .LASF99
     /tmp/ccbRLEvi.s:7107   .debug_str:0000000000000423 .LASF100
     /tmp/ccbRLEvi.s:7209   .debug_str:000000000000065d .LASF101
     /tmp/ccbRLEvi.s:7357   .debug_str:000000000000095c .LASF102
     /tmp/ccbRLEvi.s:7169   .debug_str:0000000000000575 .LASF103
     /tmp/ccbRLEvi.s:7219   .debug_str:000000000000067a .LASF104
     /tmp/ccbRLEvi.s:7189   .debug_str:0000000000000602 .LASF105
     /tmp/ccbRLEvi.s:6957   .debug_str:000000000000010c .LASF106
     /tmp/ccbRLEvi.s:7121   .debug_str:0000000000000483 .LASF107
     /tmp/ccbRLEvi.s:7215   .debug_str:000000000000066f .LASF108
     /tmp/ccbRLEvi.s:7163   .debug_str:000000000000055f .LASF109
     /tmp/ccbRLEvi.s:7179   .debug_str:00000000000005d7 .LASF110
     /tmp/ccbRLEvi.s:7193   .debug_str:0000000000000613 .LASF111
     /tmp/ccbRLEvi.s:7391   .debug_str:0000000000000aaf .LASF112
     /tmp/ccbRLEvi.s:7085   .debug_str:00000000000003a3 .LASF113
     /tmp/ccbRLEvi.s:6979   .debug_str:000000000000017e .LASF114
     /tmp/ccbRLEvi.s:7353   .debug_str:000000000000094f .LASF115
     /tmp/ccbRLEvi.s:7213   .debug_str:000000000000066a .LASF116
     /tmp/ccbRLEvi.s:6989   .debug_str:00000000000001a9 .LASF117
     /tmp/ccbRLEvi.s:6921   .debug_str:0000000000000026 .LASF118
     /tmp/ccbRLEvi.s:7075   .debug_str:0000000000000369 .LASF119
     /tmp/ccbRLEvi.s:6929   .debug_str:0000000000000063 .LASF120
     /tmp/ccbRLEvi.s:7023   .debug_str:000000000000024f .LASF121
     /tmp/ccbRLEvi.s:7399   .debug_str:0000000000000ad2 .LASF122
     /tmp/ccbRLEvi.s:6991   .debug_str:00000000000001b2 .LASF123
     /tmp/ccbRLEvi.s:7071   .debug_str:000000000000035c .LASF124
     /tmp/ccbRLEvi.s:7109   .debug_str:000000000000042b .LASF125
     /tmp/ccbRLEvi.s:7417   .debug_str:0000000000000b37 .LASF126
     /tmp/ccbRLEvi.s:7313   .debug_str:0000000000000885 .LASF127
     /tmp/ccbRLEvi.s:7099   .debug_str:00000000000003fc .LASF128
     /tmp/ccbRLEvi.s:7385   .debug_str:0000000000000a92 .LASF129
     /tmp/ccbRLEvi.s:7149   .debug_str:000000000000050a .LASF130
     /tmp/ccbRLEvi.s:7123   .debug_str:0000000000000489 .LASF131
     /tmp/ccbRLEvi.s:7069   .debug_str:000000000000034e .LASF132
     /tmp/ccbRLEvi.s:7211   .debug_str:0000000000000664 .LASF133
     /tmp/ccbRLEvi.s:7019   .debug_str:000000000000023c .LASF134
     /tmp/ccbRLEvi.s:7307   .debug_str:000000000000085f .LASF135
     /tmp/ccbRLEvi.s:7017   .debug_str:0000000000000232 .LASF136
     /tmp/ccbRLEvi.s:7345   .debug_str:0000000000000925 .LASF137
     /tmp/ccbRLEvi.s:6987   .debug_str:000000000000019f .LASF138
     /tmp/ccbRLEvi.s:7225   .debug_str:00000000000006a1 .LASF139
     /tmp/ccbRLEvi.s:7261   .debug_str:000000000000077e .LASF140
     /tmp/ccbRLEvi.s:7081   .debug_str:000000000000038c .LASF141
     /tmp/ccbRLEvi.s:7413   .debug_str:0000000000000b1e .LASF246
GAS LISTING /tmp/ccbRLEvi.s 			page 67


     /tmp/ccbRLEvi.s:7131   .debug_str:00000000000004b6 .LASF142
     /tmp/ccbRLEvi.s:7255   .debug_str:000000000000073c .LASF143
     /tmp/ccbRLEvi.s:7111   .debug_str:0000000000000430 .LASF144
     /tmp/ccbRLEvi.s:7003   .debug_str:00000000000001e9 .LASF247
     /tmp/ccbRLEvi.s:6935   .debug_str:000000000000008a .LASF145
     /tmp/ccbRLEvi.s:7141   .debug_str:00000000000004ec .LASF146
     /tmp/ccbRLEvi.s:7361   .debug_str:0000000000000966 .LASF147
     /tmp/ccbRLEvi.s:7059   .debug_str:000000000000030e .LASF149
     /tmp/ccbRLEvi.s:7369   .debug_str:0000000000000991 .LASF150
     /tmp/ccbRLEvi.s:7297   .debug_str:0000000000000833 .LASF151
     /tmp/ccbRLEvi.s:7151   .debug_str:0000000000000511 .LASF152
     /tmp/ccbRLEvi.s:7097   .debug_str:00000000000003f1 .LASF153
     /tmp/ccbRLEvi.s:7011   .debug_str:000000000000020b .LASF154
     /tmp/ccbRLEvi.s:7157   .debug_str:0000000000000540 .LASF155
     /tmp/ccbRLEvi.s:7159   .debug_str:000000000000054b .LASF156
     /tmp/ccbRLEvi.s:6925   .debug_str:000000000000003a .LASF164
     /tmp/ccbRLEvi.s:7235   .debug_str:00000000000006e2 .LASF157
     /tmp/ccbRLEvi.s:7167   .debug_str:000000000000056c .LASF158
     /tmp/ccbRLEvi.s:7401   .debug_str:0000000000000ad8 .LASF159
     /tmp/ccbRLEvi.s:7395   .debug_str:0000000000000ac4 .LASF160
     /tmp/ccbRLEvi.s:7145   .debug_str:00000000000004fa .LASF161
     /tmp/ccbRLEvi.s:7335   .debug_str:00000000000008ff .LASF162
     /tmp/ccbRLEvi.s:7165   .debug_str:0000000000000566 .LASF163
     /tmp/ccbRLEvi.s:7175   .debug_str:0000000000000599 .LASF166
     /tmp/ccbRLEvi.s:7005   .debug_str:00000000000001f5 .LASF165
     /tmp/ccbRLEvi.s:7087   .debug_str:00000000000003a9 .LASF167
     /tmp/ccbRLEvi.s:7263   .debug_str:0000000000000786 .LASF168
     /tmp/ccbRLEvi.s:7025   .debug_str:0000000000000255 .LASF169
     /tmp/ccbRLEvi.s:6973   .debug_str:0000000000000163 .LASF209
     /tmp/ccbRLEvi.s:7373   .debug_str:00000000000009d0 .LASF248
     /tmp/ccbRLEvi.s:7289   .debug_str:0000000000000800 .LASF170
     /tmp/ccbRLEvi.s:7421   .debug_str:0000000000000b45 .LASF171
     /tmp/ccbRLEvi.s:6931   .debug_str:0000000000000072 .LASF249
     /tmp/ccbRLEvi.s:7181   .debug_str:00000000000005dd .LASF250
     /tmp/ccbRLEvi.s:7113   .debug_str:000000000000043e .LASF251
     /tmp/ccbRLEvi.s:7187   .debug_str:00000000000005fd .LASF172
     /tmp/ccbRLEvi.s:7125   .debug_str:0000000000000496 .LASF173
     /tmp/ccbRLEvi.s:7007   .debug_str:00000000000001fa .LASF174
     /tmp/ccbRLEvi.s:7013   .debug_str:0000000000000215 .LASF175
     /tmp/ccbRLEvi.s:7397   .debug_str:0000000000000acc .LASF176
     /tmp/ccbRLEvi.s:7351   .debug_str:0000000000000947 .LASF177
     /tmp/ccbRLEvi.s:6915   .debug_str:0000000000000012 .LASF178
     /tmp/ccbRLEvi.s:7321   .debug_str:00000000000008ba .LASF179
     /tmp/ccbRLEvi.s:6969   .debug_str:0000000000000150 .LASF180
     /tmp/ccbRLEvi.s:7197   .debug_str:0000000000000625 .LASF181
     /tmp/ccbRLEvi.s:7205   .debug_str:0000000000000644 .LASF182
     /tmp/ccbRLEvi.s:7305   .debug_str:0000000000000856 .LASF183
     /tmp/ccbRLEvi.s:7153   .debug_str:000000000000051e .LASF184
     /tmp/ccbRLEvi.s:7375   .debug_str:00000000000009e0 .LASF185
     /tmp/ccbRLEvi.s:6955   .debug_str:00000000000000fe .LASF186
     /tmp/ccbRLEvi.s:7317   .debug_str:000000000000089f .LASF187
     /tmp/ccbRLEvi.s:7227   .debug_str:00000000000006ab .LASF188
     /tmp/ccbRLEvi.s:7239   .debug_str:00000000000006f8 .LASF189
     /tmp/ccbRLEvi.s:7371   .debug_str:000000000000099e .LASF252
     /tmp/ccbRLEvi.s:7249   .debug_str:000000000000072b .LASF253
     /tmp/ccbRLEvi.s:7057   .debug_str:0000000000000304 .LASF190
     /tmp/ccbRLEvi.s:6939   .debug_str:00000000000000a4 .LASF191
GAS LISTING /tmp/ccbRLEvi.s 			page 68


     /tmp/ccbRLEvi.s:6953   .debug_str:00000000000000f8 .LASF192
     /tmp/ccbRLEvi.s:7331   .debug_str:00000000000008ed .LASF193
     /tmp/ccbRLEvi.s:6981   .debug_str:0000000000000183 .LASF194
     /tmp/ccbRLEvi.s:6983   .debug_str:000000000000018c .LASF199
     /tmp/ccbRLEvi.s:7115   .debug_str:000000000000045b .LASF201
     /tmp/ccbRLEvi.s:7415   .debug_str:0000000000000b2e .LASF195
     /tmp/ccbRLEvi.s:7237   .debug_str:00000000000006eb .LASF197
     /tmp/ccbRLEvi.s:7135   .debug_str:00000000000004ca .LASF196
     /tmp/ccbRLEvi.s:7177   .debug_str:00000000000005cb .LASF198
     /tmp/ccbRLEvi.s:7143   .debug_str:00000000000004f1 .LASF200
     /tmp/ccbRLEvi.s:7411   .debug_str:0000000000000b11 .LASF202
     /tmp/ccbRLEvi.s:7137   .debug_str:00000000000004d2 .LASF203
     /tmp/ccbRLEvi.s:7379   .debug_str:00000000000009f2 .LASF204
     /tmp/ccbRLEvi.s:7067   .debug_str:0000000000000346 .LASF205
     /tmp/ccbRLEvi.s:7343   .debug_str:0000000000000919 .LASF206
     /tmp/ccbRLEvi.s:6927   .debug_str:000000000000003f .LASF254
     /tmp/ccbRLEvi.s:1809   .text.startup._GLOBAL__sub_I__Z10hexToASCIIPKhhPh:0000000000000000 .LFB29
     /tmp/ccbRLEvi.s:1831   .text.startup._GLOBAL__sub_I__Z10hexToASCIIPKhhPh:000000000000002a .LFE29
     /tmp/ccbRLEvi.s:1813   .text.startup._GLOBAL__sub_I__Z10hexToASCIIPKhhPh:0000000000000000 .LBB84
     /tmp/ccbRLEvi.s:1829   .text.startup._GLOBAL__sub_I__Z10hexToASCIIPKhhPh:000000000000002a .LBE84
     /tmp/ccbRLEvi.s:1827   .text.startup._GLOBAL__sub_I__Z10hexToASCIIPKhhPh:000000000000002a .LVL156
     /tmp/ccbRLEvi.s:7257   .debug_str:0000000000000742 .LASF255
     /tmp/ccbRLEvi.s:7065   .debug_str:0000000000000337 .LASF207
     /tmp/ccbRLEvi.s:7083   .debug_str:0000000000000398 .LASF208
     /tmp/ccbRLEvi.s:7387   .debug_str:0000000000000a98 .LASF210
     /tmp/ccbRLEvi.s:1789   .text.HardFault_Handler:0000000000000000 .LFB27
     /tmp/ccbRLEvi.s:1803   .text.HardFault_Handler:000000000000000a .LFE27
     /tmp/ccbRLEvi.s:1795   .text.HardFault_Handler:0000000000000008 .LVL154
     /tmp/ccbRLEvi.s:7093   .debug_str:00000000000003cb .LASF211
     /tmp/ccbRLEvi.s:1664   .text.EXTI7_0_IRQHandler:0000000000000000 .LFB26
     /tmp/ccbRLEvi.s:1782   .text.EXTI7_0_IRQHandler:00000000000000dc .LFE26
     /tmp/ccbRLEvi.s:7217   .debug_str:0000000000000675 .LASF212
     /tmp/ccbRLEvi.s:7405   .debug_str:0000000000000aea .LASF213
     /tmp/ccbRLEvi.s:7133   .debug_str:00000000000004bc .LASF214
     /tmp/ccbRLEvi.s:5837   .debug_loclists:000000000000000c .LLST54
     /tmp/ccbRLEvi.s:1679   .text.EXTI7_0_IRQHandler:0000000000000018 .LVL147
     /tmp/ccbRLEvi.s:1700   .text.EXTI7_0_IRQHandler:0000000000000042 .LVL150
     /tmp/ccbRLEvi.s:1725   .text.EXTI7_0_IRQHandler:0000000000000074 .LVL153
     /tmp/ccbRLEvi.s:7229   .debug_str:00000000000006b4 .LASF215
     /tmp/ccbRLEvi.s:1625   .text.SysTick_IRQHandler:0000000000000000 .LFB25
     /tmp/ccbRLEvi.s:1650   .text.SysTick_IRQHandler:000000000000002c .LFE25
     /tmp/ccbRLEvi.s:1641   .text.SysTick_IRQHandler:0000000000000020 .LVL146
     /tmp/ccbRLEvi.s:7259   .debug_str:000000000000076c .LASF216
     /tmp/ccbRLEvi.s:1602   .text.USART1_IRQHandler:0000000000000000 .LFB24
     /tmp/ccbRLEvi.s:1614   .text.USART1_IRQHandler:0000000000000014 .LFE24
     /tmp/ccbRLEvi.s:1610   .text.USART1_IRQHandler:0000000000000010 .LVL145
     /tmp/ccbRLEvi.s:7389   .debug_str:0000000000000aaa .LASF217
     /tmp/ccbRLEvi.s:1008   .text.startup.main:0000000000000000 .LFB23
     /tmp/ccbRLEvi.s:1595   .text.startup.main:00000000000002e8 .LFE23
     /tmp/ccbRLEvi.s:5861   .debug_loclists:0000000000000041 .LLST29
     /tmp/ccbRLEvi.s:1144   .text.startup.main:000000000000007c .LBB62
     /tmp/ccbRLEvi.s:1592   .text.startup.main:00000000000002e8 .LBE62
     /tmp/ccbRLEvi.s:7119   .debug_str:000000000000047a .LASF218
     /tmp/ccbRLEvi.s:5869   .debug_loclists:000000000000004e .LLST36
     /tmp/ccbRLEvi.s:7283   .debug_str:00000000000007e3 .LASF219
     /tmp/ccbRLEvi.s:5883   .debug_loclists:0000000000000069 .LLST37
     /tmp/ccbRLEvi.s:1158   .text.startup.main:0000000000000098 .LBB63
GAS LISTING /tmp/ccbRLEvi.s 			page 69


     /tmp/ccbRLEvi.s:6847   .debug_rnglists:000000000000003b .LLRL38
     /tmp/ccbRLEvi.s:1211   .text.startup.main:00000000000000fe .LBB67
     /tmp/ccbRLEvi.s:1244   .text.startup.main:0000000000000118 .LBE67
     /tmp/ccbRLEvi.s:5890   .debug_loclists:0000000000000075 .LLST39
     /tmp/ccbRLEvi.s:5899   .debug_loclists:0000000000000083 .LLST40
     /tmp/ccbRLEvi.s:5913   .debug_loclists:000000000000009d .LLST41
     /tmp/ccbRLEvi.s:1299   .text.startup.main:0000000000000182 .LBB69
     /tmp/ccbRLEvi.s:1332   .text.startup.main:000000000000019c .LBE69
     /tmp/ccbRLEvi.s:5920   .debug_loclists:00000000000000a9 .LLST42
     /tmp/ccbRLEvi.s:5929   .debug_loclists:00000000000000b7 .LLST43
     /tmp/ccbRLEvi.s:5943   .debug_loclists:00000000000000d1 .LLST44
     /tmp/ccbRLEvi.s:1397   .text.startup.main:00000000000001f8 .LBB71
     /tmp/ccbRLEvi.s:6855   .debug_rnglists:000000000000004e .LLRL45
     /tmp/ccbRLEvi.s:5950   .debug_loclists:00000000000000dd .LLST46
     /tmp/ccbRLEvi.s:5959   .debug_loclists:00000000000000ec .LLST47
     /tmp/ccbRLEvi.s:5966   .debug_loclists:00000000000000f8 .LLST48
     /tmp/ccbRLEvi.s:1477   .text.startup.main:0000000000000268 .LBB75
     /tmp/ccbRLEvi.s:1500   .text.startup.main:0000000000000274 .LBE75
     /tmp/ccbRLEvi.s:5973   .debug_loclists:0000000000000104 .LLST49
     /tmp/ccbRLEvi.s:1506   .text.startup.main:000000000000027c .LBB77
     /tmp/ccbRLEvi.s:1541   .text.startup.main:000000000000029a .LBE77
     /tmp/ccbRLEvi.s:5990   .debug_loclists:0000000000000121 .LLST50
     /tmp/ccbRLEvi.s:5999   .debug_loclists:0000000000000130 .LLST51
     /tmp/ccbRLEvi.s:6013   .debug_loclists:000000000000014b .LLST52
     /tmp/ccbRLEvi.s:1547   .text.startup.main:00000000000002a2 .LBB79
     /tmp/ccbRLEvi.s:1570   .text.startup.main:00000000000002ae .LBE79
     /tmp/ccbRLEvi.s:6020   .debug_loclists:0000000000000157 .LLST53
     /tmp/ccbRLEvi.s:1149   .text.startup.main:0000000000000084 .LVL87
     /tmp/ccbRLEvi.s:1157   .text.startup.main:0000000000000098 .LVL88
     /tmp/ccbRLEvi.s:1181   .text.startup.main:00000000000000b2 .LVL90
     /tmp/ccbRLEvi.s:1189   .text.startup.main:00000000000000c6 .LVL91
     /tmp/ccbRLEvi.s:1198   .text.startup.main:00000000000000e0 .LVL92
     /tmp/ccbRLEvi.s:1209   .text.startup.main:00000000000000fe .LVL93
     /tmp/ccbRLEvi.s:1248   .text.startup.main:0000000000000120 .LVL100
     /tmp/ccbRLEvi.s:1256   .text.startup.main:000000000000012a .LVL102
     /tmp/ccbRLEvi.s:1272   .text.startup.main:0000000000000154 .LVL103
     /tmp/ccbRLEvi.s:1283   .text.startup.main:0000000000000172 .LVL104
     /tmp/ccbRLEvi.s:1297   .text.startup.main:0000000000000182 .LVL105
     /tmp/ccbRLEvi.s:1336   .text.startup.main:00000000000001a4 .LVL112
     /tmp/ccbRLEvi.s:1392   .text.startup.main:00000000000001f0 .LVL119
     /tmp/ccbRLEvi.s:1409   .text.startup.main:0000000000000208 .LVL120
     /tmp/ccbRLEvi.s:1423   .text.startup.main:0000000000000226 .LVL121
     /tmp/ccbRLEvi.s:1434   .text.startup.main:0000000000000244 .LVL122
     /tmp/ccbRLEvi.s:1504   .text.startup.main:000000000000027c .LVL132
     /tmp/ccbRLEvi.s:1545   .text.startup.main:00000000000002a2 .LVL139
     /tmp/ccbRLEvi.s:1579   .text.startup.main:00000000000002c8 .LVL143
     /tmp/ccbRLEvi.s:1590   .text.startup.main:00000000000002e6 .LVL144
     /tmp/ccbRLEvi.s:1014   .text.startup.main:0000000000000000 .LBB47
     /tmp/ccbRLEvi.s:6839   .debug_rnglists:0000000000000028 .LLRL30
     /tmp/ccbRLEvi.s:6037   .debug_loclists:0000000000000173 .LLST31
     /tmp/ccbRLEvi.s:1038   .text.startup.main:0000000000000012 .LBB51
     /tmp/ccbRLEvi.s:1046   .text.startup.main:0000000000000018 .LBE51
     /tmp/ccbRLEvi.s:6045   .debug_loclists:0000000000000180 .LLST32
     /tmp/ccbRLEvi.s:1048   .text.startup.main:0000000000000018 .LBB53
     /tmp/ccbRLEvi.s:1056   .text.startup.main:0000000000000020 .LBE53
     /tmp/ccbRLEvi.s:6054   .debug_loclists:000000000000018e .LLST33
     /tmp/ccbRLEvi.s:1058   .text.startup.main:0000000000000020 .LBB55
GAS LISTING /tmp/ccbRLEvi.s 			page 70


     /tmp/ccbRLEvi.s:1066   .text.startup.main:0000000000000026 .LBE55
     /tmp/ccbRLEvi.s:6062   .debug_loclists:000000000000019b .LLST34
     /tmp/ccbRLEvi.s:1068   .text.startup.main:0000000000000026 .LBB57
     /tmp/ccbRLEvi.s:1091   .text.startup.main:0000000000000032 .LBE57
     /tmp/ccbRLEvi.s:6070   .debug_loclists:00000000000001a8 .LLST35
     /tmp/ccbRLEvi.s:1101   .text.startup.main:000000000000004a .LBB59
     /tmp/ccbRLEvi.s:1115   .text.startup.main:0000000000000068 .LBE59
     /tmp/ccbRLEvi.s:1099   .text.startup.main:000000000000004a .LVL86
     /tmp/ccbRLEvi.s:7409   .debug_str:0000000000000b06 .LASF220
     /tmp/ccbRLEvi.s:713    .text.SystemInit:0000000000000000 .LFB22
     /tmp/ccbRLEvi.s:994    .text.SystemInit:0000000000000184 .LFE22
     /tmp/ccbRLEvi.s:920    .text.SystemInit:0000000000000134 .LBB45
     /tmp/ccbRLEvi.s:955    .text.SystemInit:0000000000000150 .LBE45
     /tmp/ccbRLEvi.s:6087   .debug_loclists:00000000000001c4 .LLST26
     /tmp/ccbRLEvi.s:6096   .debug_loclists:00000000000001d5 .LLST27
     /tmp/ccbRLEvi.s:6110   .debug_loclists:00000000000001f0 .LLST28
     /tmp/ccbRLEvi.s:782    .text.SystemInit:0000000000000058 .LVL70
     /tmp/ccbRLEvi.s:7079   .debug_str:0000000000000381 .LASF223
     /tmp/ccbRLEvi.s:7015   .debug_str:0000000000000222 .LASF225
     /tmp/ccbRLEvi.s:478    .text._Z10flash_saveh:0000000000000000 .LFB21
     /tmp/ccbRLEvi.s:706    .text._Z10flash_saveh:00000000000000e8 .LFE21
     /tmp/ccbRLEvi.s:6117   .debug_loclists:00000000000001fc .LLST23
     /tmp/ccbRLEvi.s:483    .text._Z10flash_saveh:0000000000000000 .LBB41
     /tmp/ccbRLEvi.s:507    .text._Z10flash_saveh:000000000000000c .LBE41
     /tmp/ccbRLEvi.s:6145   .debug_loclists:000000000000022f .LLST24
     /tmp/ccbRLEvi.s:669    .text._Z10flash_saveh:00000000000000d4 .LBB43
     /tmp/ccbRLEvi.s:692    .text._Z10flash_saveh:00000000000000e0 .LBE43
     /tmp/ccbRLEvi.s:6162   .debug_loclists:000000000000024c .LLST25
     /tmp/ccbRLEvi.s:7077   .debug_str:0000000000000377 .LASF221
     /tmp/ccbRLEvi.s:7231   .debug_str:00000000000006c7 .LASF222
     /tmp/ccbRLEvi.s:7281   .debug_str:00000000000007dc .LASF256
     /tmp/ccbRLEvi.s:6975   .debug_str:0000000000000168 .LASF257
     /tmp/ccbRLEvi.s:7365   .debug_str:0000000000000982 .LASF224
     /tmp/ccbRLEvi.s:7117   .debug_str:0000000000000469 .LASF226
     /tmp/ccbRLEvi.s:370    .text._Z6str_eqPKhS0_h:0000000000000000 .LFB18
     /tmp/ccbRLEvi.s:410    .text._Z6str_eqPKhS0_h:0000000000000022 .LFE18
     /tmp/ccbRLEvi.s:7089   .debug_str:00000000000003c1 .LASF227
     /tmp/ccbRLEvi.s:6179   .debug_loclists:0000000000000268 .LLST16
     /tmp/ccbRLEvi.s:7091   .debug_str:00000000000003c6 .LASF228
     /tmp/ccbRLEvi.s:6194   .debug_loclists:0000000000000282 .LLST17
     /tmp/ccbRLEvi.s:6209   .debug_loclists:000000000000029c .LLST18
     /tmp/ccbRLEvi.s:375    .text._Z6str_eqPKhS0_h:0000000000000000 .LBB40
     /tmp/ccbRLEvi.s:401    .text._Z6str_eqPKhS0_h:000000000000001c .LBE40
     /tmp/ccbRLEvi.s:6224   .debug_loclists:00000000000002b6 .LLST19
     /tmp/ccbRLEvi.s:7329   .debug_str:00000000000008e2 .LASF229
     /tmp/ccbRLEvi.s:7095   .debug_str:00000000000003de .LASF230
     /tmp/ccbRLEvi.s:242    .text._Z10ASCIIToIntPKhh:0000000000000000 .LFB17
     /tmp/ccbRLEvi.s:363    .text._Z10ASCIIToIntPKhh:0000000000000074 .LFE17
     /tmp/ccbRLEvi.s:6245   .debug_loclists:00000000000002d6 .LLST9
     /tmp/ccbRLEvi.s:6278   .debug_loclists:0000000000000314 .LLST10
     /tmp/ccbRLEvi.s:6298   .debug_loclists:0000000000000339 .LLST11
     /tmp/ccbRLEvi.s:7195   .debug_str:0000000000000620 .LASF231
     /tmp/ccbRLEvi.s:6322   .debug_loclists:0000000000000368 .LLST12
     /tmp/ccbRLEvi.s:6346   .debug_loclists:0000000000000397 .LLST13
     /tmp/ccbRLEvi.s:6828   .debug_rnglists:000000000000000c .LLRL14
     /tmp/ccbRLEvi.s:6358   .debug_loclists:00000000000003ae .LLST15
     /tmp/ccbRLEvi.s:336    .text._Z10ASCIIToIntPKhh:0000000000000066 .LVL43
GAS LISTING /tmp/ccbRLEvi.s 			page 71


     /tmp/ccbRLEvi.s:6963   .debug_str:0000000000000129 .LASF232
     /tmp/ccbRLEvi.s:7041   .debug_str:00000000000002be .LASF233
     /tmp/ccbRLEvi.s:91     .text._Z10intToASCIIiPhh:0000000000000000 .LFB16
     /tmp/ccbRLEvi.s:234    .text._Z10intToASCIIiPhh:00000000000000a4 .LFE16
     /tmp/ccbRLEvi.s:6429   .debug_loclists:000000000000041e .LLST4
     /tmp/ccbRLEvi.s:6493   .debug_loclists:00000000000004a5 .LLST5
     /tmp/ccbRLEvi.s:6523   .debug_loclists:00000000000004e0 .LLST6
     /tmp/ccbRLEvi.s:6543   .debug_loclists:0000000000000505 .LLST7
     /tmp/ccbRLEvi.s:6589   .debug_loclists:0000000000000562 .LLST8
     /tmp/ccbRLEvi.s:141    .text._Z10intToASCIIiPhh:000000000000003c .LVL14
     /tmp/ccbRLEvi.s:157    .text._Z10intToASCIIiPhh:0000000000000056 .LVL17
     /tmp/ccbRLEvi.s:7027   .debug_str:0000000000000268 .LASF234
     /tmp/ccbRLEvi.s:7063   .debug_str:0000000000000322 .LASF235
     /tmp/ccbRLEvi.s:14     .text._Z10hexToASCIIPKhhPh:0000000000000000 .LFB15
     /tmp/ccbRLEvi.s:80     .text._Z10hexToASCIIPKhhPh:0000000000000040 .LFE15
     /tmp/ccbRLEvi.s:6672   .debug_loclists:00000000000005ea .LLST0
     /tmp/ccbRLEvi.s:7199   .debug_str:000000000000062d .LASF236
     /tmp/ccbRLEvi.s:6687   .debug_loclists:0000000000000604 .LLST1
     /tmp/ccbRLEvi.s:6709   .debug_loclists:000000000000062b .LLST2
     /tmp/ccbRLEvi.s:21     .text._Z10hexToASCIIPKhhPh:0000000000000000 .LBB36
     /tmp/ccbRLEvi.s:76     .text._Z10hexToASCIIPKhhPh:000000000000003e .LBE36
     /tmp/ccbRLEvi.s:6721   .debug_loclists:0000000000000642 .LLST3
     /tmp/ccbRLEvi.s:6949   .debug_str:00000000000000d9 .LASF237
     /tmp/ccbRLEvi.s:7247   .debug_str:000000000000071d .LASF238
     /tmp/ccbRLEvi.s:7031   .debug_str:000000000000027d .LASF239
     /tmp/ccbRLEvi.s:7293   .debug_str:000000000000081e .LASF240
     /tmp/ccbRLEvi.s:417    .text._Z6delayTm:0000000000000000 .LFB19
     /tmp/ccbRLEvi.s:454    .text._Z6delayTm:000000000000001a .LFE19
     /tmp/ccbRLEvi.s:6752   .debug_loclists:0000000000000672 .LLST20
     /tmp/ccbRLEvi.s:6767   .debug_loclists:000000000000068c .LLST21
     /tmp/ccbRLEvi.s:6774   .debug_loclists:0000000000000698 .LLST22
     /tmp/ccbRLEvi.s:461    .text._Z9flash_getv:0000000000000000 .LFB20
     /tmp/ccbRLEvi.s:471    .text._Z9flash_getv:000000000000000a .LFE20
     /tmp/ccbRLEvi.s:7419   .debug_str:0000000000000b3c .LASF241
     /tmp/ccbRLEvi.s:7161   .debug_str:0000000000000556 .LASF242
     /tmp/ccbRLEvi.s:7185   .debug_str:00000000000005f4 .LASF243
     /tmp/ccbRLEvi.s:1684   .text.EXTI7_0_IRQHandler:0000000000000020 .LVL148
     /tmp/ccbRLEvi.s:1696   .text.EXTI7_0_IRQHandler:0000000000000032 .LVL149
     /tmp/ccbRLEvi.s:1715   .text.EXTI7_0_IRQHandler:000000000000005c .LVL151
     /tmp/ccbRLEvi.s:1721   .text.EXTI7_0_IRQHandler:0000000000000064 .LVL152
     /tmp/ccbRLEvi.s:1169   .text.startup.main:00000000000000a6 .LVL89
     /tmp/ccbRLEvi.s:1250   .text.startup.main:0000000000000122 .LVL101
     /tmp/ccbRLEvi.s:1350   .text.startup.main:00000000000001b2 .LVL113
     /tmp/ccbRLEvi.s:1361   .text.startup.main:00000000000001bc .LVL115
     /tmp/ccbRLEvi.s:1382   .text.startup.main:00000000000001d8 .LVL118
     /tmp/ccbRLEvi.s:1372   .text.startup.main:00000000000001ca .LVL116
     /tmp/ccbRLEvi.s:1375   .text.startup.main:00000000000001ce .LVL117
     /tmp/ccbRLEvi.s:1240   .text.startup.main:0000000000000118 .LVL99
     /tmp/ccbRLEvi.s:1218   .text.startup.main:0000000000000104 .LVL94
     /tmp/ccbRLEvi.s:1227   .text.startup.main:000000000000010a .LVL96
     /tmp/ccbRLEvi.s:1237   .text.startup.main:0000000000000114 .LVL98
     /tmp/ccbRLEvi.s:1328   .text.startup.main:000000000000019c .LVL111
     /tmp/ccbRLEvi.s:1306   .text.startup.main:0000000000000188 .LVL106
     /tmp/ccbRLEvi.s:1315   .text.startup.main:000000000000018e .LVL108
     /tmp/ccbRLEvi.s:1325   .text.startup.main:0000000000000198 .LVL110
     /tmp/ccbRLEvi.s:1467   .text.startup.main:000000000000025e .LVL128
     /tmp/ccbRLEvi.s:1443   .text.startup.main:000000000000024a .LVL123
GAS LISTING /tmp/ccbRLEvi.s 			page 72


     /tmp/ccbRLEvi.s:1454   .text.startup.main:0000000000000250 .LVL125
     /tmp/ccbRLEvi.s:1464   .text.startup.main:000000000000025a .LVL127
     /tmp/ccbRLEvi.s:1485   .text.startup.main:000000000000026c .LVL129
     /tmp/ccbRLEvi.s:1491   .text.startup.main:0000000000000270 .LVL130
     /tmp/ccbRLEvi.s:1497   .text.startup.main:0000000000000274 .LVL131
     /tmp/ccbRLEvi.s:1537   .text.startup.main:000000000000029a .LVL138
     /tmp/ccbRLEvi.s:1513   .text.startup.main:0000000000000282 .LVL133
     /tmp/ccbRLEvi.s:1524   .text.startup.main:000000000000028c .LVL135
     /tmp/ccbRLEvi.s:1534   .text.startup.main:0000000000000296 .LVL137
     /tmp/ccbRLEvi.s:1555   .text.startup.main:00000000000002a6 .LVL140
     /tmp/ccbRLEvi.s:1561   .text.startup.main:00000000000002aa .LVL141
     /tmp/ccbRLEvi.s:1567   .text.startup.main:00000000000002ae .LVL142
     /tmp/ccbRLEvi.s:1013   .text.startup.main:0000000000000000 .LVL78
     /tmp/ccbRLEvi.s:1034   .text.startup.main:0000000000000012 .LVL79
     /tmp/ccbRLEvi.s:1044   .text.startup.main:0000000000000018 .LVL80
     /tmp/ccbRLEvi.s:1054   .text.startup.main:0000000000000020 .LVL81
     /tmp/ccbRLEvi.s:1064   .text.startup.main:0000000000000026 .LVL82
     /tmp/ccbRLEvi.s:1076   .text.startup.main:000000000000002a .LVL83
     /tmp/ccbRLEvi.s:1082   .text.startup.main:000000000000002e .LVL84
     /tmp/ccbRLEvi.s:1088   .text.startup.main:0000000000000032 .LVL85
     /tmp/ccbRLEvi.s:919    .text.SystemInit:0000000000000134 .LVL71
     /tmp/ccbRLEvi.s:951    .text.SystemInit:0000000000000150 .LVL77
     /tmp/ccbRLEvi.s:926    .text.SystemInit:0000000000000136 .LVL72
     /tmp/ccbRLEvi.s:938    .text.SystemInit:0000000000000142 .LVL74
     /tmp/ccbRLEvi.s:948    .text.SystemInit:000000000000014c .LVL76
     /tmp/ccbRLEvi.s:481    .text._Z10flash_saveh:0000000000000000 .LVL60
     /tmp/ccbRLEvi.s:696    .text._Z10flash_saveh:00000000000000e2 .LVL67
     /tmp/ccbRLEvi.s:699    .text._Z10flash_saveh:00000000000000e4 .LVL68
     /tmp/ccbRLEvi.s:703    .text._Z10flash_saveh:00000000000000e6 .LVL69
     /tmp/ccbRLEvi.s:492    .text._Z10flash_saveh:0000000000000004 .LVL61
     /tmp/ccbRLEvi.s:498    .text._Z10flash_saveh:0000000000000008 .LVL62
     /tmp/ccbRLEvi.s:504    .text._Z10flash_saveh:000000000000000c .LVL63
     /tmp/ccbRLEvi.s:677    .text._Z10flash_saveh:00000000000000d8 .LVL64
     /tmp/ccbRLEvi.s:683    .text._Z10flash_saveh:00000000000000dc .LVL65
     /tmp/ccbRLEvi.s:689    .text._Z10flash_saveh:00000000000000e0 .LVL66
     /tmp/ccbRLEvi.s:373    .text._Z6str_eqPKhS0_h:0000000000000000 .LVL47
     /tmp/ccbRLEvi.s:381    .text._Z6str_eqPKhS0_h:0000000000000006 .LVL49
     /tmp/ccbRLEvi.s:379    .text._Z6str_eqPKhS0_h:0000000000000004 .LVL48
     /tmp/ccbRLEvi.s:385    .text._Z6str_eqPKhS0_h:000000000000000a .LVL50
     /tmp/ccbRLEvi.s:395    .text._Z6str_eqPKhS0_h:0000000000000014 .LVL51
     /tmp/ccbRLEvi.s:245    .text._Z10ASCIIToIntPKhh:0000000000000000 .LVL31
     /tmp/ccbRLEvi.s:261    .text._Z10ASCIIToIntPKhh:000000000000000e .LVL32
     /tmp/ccbRLEvi.s:273    .text._Z10ASCIIToIntPKhh:000000000000001c .LVL34
     /tmp/ccbRLEvi.s:351    .text._Z10ASCIIToIntPKhh:0000000000000070 .LVL45
     /tmp/ccbRLEvi.s:357    .text._Z10ASCIIToIntPKhh:0000000000000072 .LVL46
     /tmp/ccbRLEvi.s:264    .text._Z10ASCIIToIntPKhh:0000000000000010 .LVL33
     /tmp/ccbRLEvi.s:344    .text._Z10ASCIIToIntPKhh:000000000000006c .LVL44
     /tmp/ccbRLEvi.s:281    .text._Z10ASCIIToIntPKhh:0000000000000026 .LVL35
     /tmp/ccbRLEvi.s:297    .text._Z10ASCIIToIntPKhh:0000000000000038 .LVL38
     /tmp/ccbRLEvi.s:323    .text._Z10ASCIIToIntPKhh:0000000000000056 .LVL40
     /tmp/ccbRLEvi.s:331    .text._Z10ASCIIToIntPKhh:000000000000005e .LVL42
     /tmp/ccbRLEvi.s:290    .text._Z10ASCIIToIntPKhh:0000000000000030 .LVL36
     /tmp/ccbRLEvi.s:293    .text._Z10ASCIIToIntPKhh:0000000000000034 .LVL37
     /tmp/ccbRLEvi.s:320    .text._Z10ASCIIToIntPKhh:0000000000000054 .LVL39
     /tmp/ccbRLEvi.s:327    .text._Z10ASCIIToIntPKhh:000000000000005a .LVL41
     /tmp/ccbRLEvi.s:94     .text._Z10intToASCIIiPhh:0000000000000000 .LVL9
     /tmp/ccbRLEvi.s:121    .text._Z10intToASCIIiPhh:0000000000000020 .LVL11
GAS LISTING /tmp/ccbRLEvi.s 			page 73


     /tmp/ccbRLEvi.s:137    .text._Z10intToASCIIiPhh:0000000000000032 .LVL13
     /tmp/ccbRLEvi.s:146    .text._Z10intToASCIIiPhh:0000000000000046 .LVL15
     /tmp/ccbRLEvi.s:162    .text._Z10intToASCIIiPhh:000000000000005a .LVL18
     /tmp/ccbRLEvi.s:167    .text._Z10intToASCIIiPhh:0000000000000062 .LVL19
     /tmp/ccbRLEvi.s:171    .text._Z10intToASCIIiPhh:0000000000000064 .LVL20
     /tmp/ccbRLEvi.s:186    .text._Z10intToASCIIiPhh:0000000000000078 .LVL21
     /tmp/ccbRLEvi.s:191    .text._Z10intToASCIIiPhh:0000000000000080 .LVL22
     /tmp/ccbRLEvi.s:206    .text._Z10intToASCIIiPhh:000000000000008a .LVL25
     /tmp/ccbRLEvi.s:229    .text._Z10intToASCIIiPhh:00000000000000a0 .LVL30
     /tmp/ccbRLEvi.s:129    .text._Z10intToASCIIiPhh:000000000000002c .LVL12
     /tmp/ccbRLEvi.s:204    .text._Z10intToASCIIiPhh:0000000000000088 .LVL24
     /tmp/ccbRLEvi.s:215    .text._Z10intToASCIIiPhh:0000000000000092 .LVL27
     /tmp/ccbRLEvi.s:107    .text._Z10intToASCIIiPhh:000000000000000c .LVL10
     /tmp/ccbRLEvi.s:152    .text._Z10intToASCIIiPhh:000000000000004c .LVL16
     /tmp/ccbRLEvi.s:201    .text._Z10intToASCIIiPhh:0000000000000086 .LVL23
     /tmp/ccbRLEvi.s:213    .text._Z10intToASCIIiPhh:0000000000000090 .LVL26
     /tmp/ccbRLEvi.s:225    .text._Z10intToASCIIiPhh:000000000000009c .LVL29
     /tmp/ccbRLEvi.s:218    .text._Z10intToASCIIiPhh:0000000000000096 .LVL28
     /tmp/ccbRLEvi.s:18     .text._Z10hexToASCIIPKhhPh:0000000000000000 .LVL0
     /tmp/ccbRLEvi.s:30     .text._Z10hexToASCIIPKhhPh:000000000000000a .LVL2
     /tmp/ccbRLEvi.s:24     .text._Z10hexToASCIIPKhhPh:0000000000000002 .LVL1
     /tmp/ccbRLEvi.s:38     .text._Z10hexToASCIIPKhhPh:0000000000000010 .LVL3
     /tmp/ccbRLEvi.s:52     .text._Z10hexToASCIIPKhhPh:0000000000000024 .LVL4
     /tmp/ccbRLEvi.s:58     .text._Z10hexToASCIIPKhhPh:0000000000000028 .LVL6
     /tmp/ccbRLEvi.s:74     .text._Z10hexToASCIIPKhhPh:000000000000003e .LVL8
     /tmp/ccbRLEvi.s:55     .text._Z10hexToASCIIPKhhPh:0000000000000026 .LVL5
     /tmp/ccbRLEvi.s:70     .text._Z10hexToASCIIPKhhPh:0000000000000038 .LVL7
     /tmp/ccbRLEvi.s:421    .text._Z6delayTm:0000000000000000 .LVL53
     /tmp/ccbRLEvi.s:436    .text._Z6delayTm:000000000000000a .LVL56
     /tmp/ccbRLEvi.s:427    .text._Z6delayTm:0000000000000006 .LVL54
     /tmp/ccbRLEvi.s:441    .text._Z6delayTm:0000000000000012 .LVL57
     /tmp/ccbRLEvi.s:446    .text._Z6delayTm:0000000000000014 .LVL58
     /tmp/ccbRLEvi.s:449    .text._Z6delayTm:0000000000000018 .LVL59
     /tmp/ccbRLEvi.s:1909   .debug_info:0000000000000000 .Ldebug_info0
     /tmp/ccbRLEvi.s:248    .text._Z10ASCIIToIntPKhh:0000000000000000 .LBB37
     /tmp/ccbRLEvi.s:251    .text._Z10ASCIIToIntPKhh:0000000000000002 .LBE37
     /tmp/ccbRLEvi.s:265    .text._Z10ASCIIToIntPKhh:0000000000000010 .LBB38
     /tmp/ccbRLEvi.s:333    .text._Z10ASCIIToIntPKhh:000000000000005e .LBE38
     /tmp/ccbRLEvi.s:347    .text._Z10ASCIIToIntPKhh:000000000000006c .LBB39
     /tmp/ccbRLEvi.s:358    .text._Z10ASCIIToIntPKhh:0000000000000072 .LBE39
     /tmp/ccbRLEvi.s:1018   .text.startup.main:0000000000000000 .LBE47
     /tmp/ccbRLEvi.s:1028   .text.startup.main:0000000000000008 .LBB50
     /tmp/ccbRLEvi.s:1036   .text.startup.main:0000000000000012 .LBE50
     /tmp/ccbRLEvi.s:1166   .text.startup.main:00000000000000a4 .LBE63
     /tmp/ccbRLEvi.s:1171   .text.startup.main:00000000000000a6 .LBB66
     /tmp/ccbRLEvi.s:1177   .text.startup.main:00000000000000aa .LBE66
     /tmp/ccbRLEvi.s:1405   .text.startup.main:0000000000000200 .LBE71
     /tmp/ccbRLEvi.s:1436   .text.startup.main:0000000000000244 .LBB74
     /tmp/ccbRLEvi.s:1470   .text.startup.main:000000000000025e .LBE74

UNDEFINED SYMBOLS
__umodsi3
__modsi3
__udivsi3
__divsi3
__mulsi3
_Z7led_offv
GAS LISTING /tmp/ccbRLEvi.s 			page 74


_ZN4uart5printEPKc
_Z8sens_getv
_Z6led_onv
_ZN4uart4sendEPhtPFvvEh
_Z7pump_onv
_Z8pump_offv
_ZN4uart16interruptHandlerEv
_Z9btn_statev
_ZN4uartC1EP13USART_TypeDefii9u_stopbit9u_wordlen
