GAS LISTING /tmp/ccXSC0G0.s 			page 1


   1              		.file	"uart.cpp"
   2              		.option nopic
   3              		.attribute arch, "rv32e1p9_c2p0_zicsr"
   4              		.attribute unaligned_access, 0
   5              		.attribute stack_align, 4
   6              		.text
   7              	.Ltext0:
   8              		.file 0 "/home/ignat/projects/AutoWatering" "src/uart/uart.cpp"
   9              		.globl	__divsi3
  10              		.section	.text._ZN4uartC2EP13USART_TypeDefii9u_stopbit9u_wordlen,"ax",@progbits
  11              		.align	1
  12              		.globl	_ZN4uartC2EP13USART_TypeDefii9u_stopbit9u_wordlen
  14              	_ZN4uartC2EP13USART_TypeDefii9u_stopbit9u_wordlen:
  15              	.LFB16:
  16              		.file 1 "src/uart/uart.cpp"
   1:src/uart/uart.cpp **** #include "uart.h"
   2:src/uart/uart.cpp **** 
   3:src/uart/uart.cpp **** uart::uart(USART_TypeDef* cur_usart, int baudrate, int f_clk, u_stopbit mode_stopBit, 
  17              		.loc 1 3 1
  18              		.cfi_startproc
  19              	.LVL0:
  20 0000 4111     		addi	sp,sp,-16
  21              		.cfi_def_cfa_offset 16
  22 0002 22C4     		sw	s0,8(sp)
  23 0004 26C2     		sw	s1,4(sp)
  24 0006 06C6     		sw	ra,12(sp)
  25              		.cfi_offset 8, -8
  26              		.cfi_offset 9, -12
  27              		.cfi_offset 1, -4
  28              	.LBB2:
   4:src/uart/uart.cpp ****     u_wordlen word_len)
  29              		.loc 1 4 23 is_stmt 0
  30 0008 2309050C 		sb	zero,210(a0)
  31 000c A309050C 		sb	zero,211(a0)
  32 0010 230A050C 		sb	zero,212(a0)
  33              	.LBE2:
   3:src/uart/uart.cpp ****     u_wordlen word_len)
  34              		.loc 1 3 1
  35 0014 2E84     		mv	s0,a1
  36              	.LBB3:
   5:src/uart/uart.cpp **** {
   6:src/uart/uart.cpp ****     usart = cur_usart;
  37              		.loc 1 6 11
  38 0016 232CB50C 		sw	a1,216(a0)
   4:src/uart/uart.cpp **** {
  39              		.loc 1 4 23
  40 001a A30A050C 		sb	zero,213(a0)
  41              		.loc 1 6 5 is_stmt 1
   7:src/uart/uart.cpp **** 
   8:src/uart/uart.cpp ****     usart->BRR = (uint16_t)(f_clk/baudrate);
  42              		.loc 1 8 5
  43              		.loc 1 8 34 is_stmt 0
  44 001e B285     		mv	a1,a2
  45              	.LVL1:
  46 0020 3685     		mv	a0,a3
  47              	.LVL2:
  48              	.LBE3:
GAS LISTING /tmp/ccXSC0G0.s 			page 2


   3:src/uart/uart.cpp ****     u_wordlen word_len)
  49              		.loc 1 3 1
  50 0022 BA84     		mv	s1,a4
  51 0024 3EC0     		sw	a5,0(sp)
  52              	.LBB4:
  53              		.loc 1 8 34
  54 0026 97000000 		call	__divsi3
  54      E7800000 
  55              	.LVL3:
  56              		.loc 1 8 16
  57 002e 4205     		slli	a0,a0,16
  58 0030 4181     		srli	a0,a0,16
   9:src/uart/uart.cpp ****     usart->CTLR1 = USART_CTLR1_UE | USART_CTLR1_RE | USART_CTLR1_TE | USART_CTLR1_RXNEIE;
  59              		.loc 1 9 18
  60 0032 0967     		li	a4,8192
   8:src/uart/uart.cpp ****     usart->CTLR1 = USART_CTLR1_UE | USART_CTLR1_RE | USART_CTLR1_TE | USART_CTLR1_RXNEIE;
  61              		.loc 1 8 16
  62 0034 2314A400 		sh	a0,8(s0)
  63              		.loc 1 9 5 is_stmt 1
  64              		.loc 1 9 18 is_stmt 0
  65 0038 1307C702 		addi	a4,a4,44
  66 003c 2316E400 		sh	a4,12(s0)
  10:src/uart/uart.cpp **** 
  11:src/uart/uart.cpp ****     usart->CTLR2 |= mode_stopBit << 12;
  67              		.loc 1 11 5 is_stmt 1
  68              		.loc 1 11 12 is_stmt 0
  69 0040 83560401 		lhu	a3,16(s0)
  70              		.loc 1 11 34
  71 0044 1397C400 		slli	a4,s1,12
  12:src/uart/uart.cpp ****     if(word_len == word_len_9)
  72              		.loc 1 12 5
  73 0048 8247     		lw	a5,0(sp)
  11:src/uart/uart.cpp ****     if(word_len == word_len_9)
  74              		.loc 1 11 18
  75 004a 558F     		or	a4,a3,a4
  76 004c 4207     		slli	a4,a4,16
  77 004e 4183     		srli	a4,a4,16
  78              		.loc 1 12 5
  79 0050 0546     		li	a2,1
  11:src/uart/uart.cpp ****     if(word_len == word_len_9)
  80              		.loc 1 11 18
  81 0052 2318E400 		sh	a4,16(s0)
  82              		.loc 1 12 5 is_stmt 1
  83 0056 6398C700 		bne	a5,a2,.L2
  13:src/uart/uart.cpp ****         usart->CTLR1 |= USART_CTLR1_M;
  84              		.loc 1 13 9
  85              		.loc 1 13 16 is_stmt 0
  86 005a 8357C400 		lhu	a5,12(s0)
  87              		.loc 1 13 22
  88 005e 0567     		li	a4,4096
  89 0060 D98F     		or	a5,a5,a4
  90 0062 2316F400 		sh	a5,12(s0)
  91              	.L2:
  14:src/uart/uart.cpp **** 
  15:src/uart/uart.cpp ****     usart->CTLR3 = 0;
  92              		.loc 1 15 5 is_stmt 1
  93              		.loc 1 15 18 is_stmt 0
GAS LISTING /tmp/ccXSC0G0.s 			page 3


  94 0066 231A0400 		sh	zero,20(s0)
  16:src/uart/uart.cpp ****     usart->STATR = 0;
  95              		.loc 1 16 5 is_stmt 1
  96              	.LBE4:
  17:src/uart/uart.cpp **** }
  97              		.loc 1 17 1 is_stmt 0
  98 006a B240     		lw	ra,12(sp)
  99              		.cfi_restore 1
 100              	.LBB5:
  16:src/uart/uart.cpp ****     usart->STATR = 0;
 101              		.loc 1 16 18
 102 006c 23100400 		sh	zero,0(s0)
 103              	.LBE5:
 104              		.loc 1 17 1
 105 0070 2244     		lw	s0,8(sp)
 106              		.cfi_restore 8
 107              	.LVL4:
 108 0072 9244     		lw	s1,4(sp)
 109              		.cfi_restore 9
 110              	.LVL5:
 111 0074 4101     		addi	sp,sp,16
 112              		.cfi_def_cfa_offset 0
 113              	.LVL6:
 114 0076 8280     		jr	ra
 115              		.cfi_endproc
 116              	.LFE16:
 118              		.globl	_ZN4uartC1EP13USART_TypeDefii9u_stopbit9u_wordlen
 119              		.set	_ZN4uartC1EP13USART_TypeDefii9u_stopbit9u_wordlen,_ZN4uartC2EP13USART_TypeDefii9u_stopbit9u_w
 120              		.section	.text._ZN4uart4sendEPhtPFvvEh,"ax",@progbits
 121              		.align	1
 122              		.globl	_ZN4uart4sendEPhtPFvvEh
 124              	_ZN4uart4sendEPhtPFvvEh:
 125              	.LFB18:
  18:src/uart/uart.cpp ****     
  19:src/uart/uart.cpp **** bool uart::send(uint8_t *data, uint16_t len, void (*callback)(void), uint8_t conf)
  20:src/uart/uart.cpp **** {
 126              		.loc 1 20 1 is_stmt 1
 127              		.cfi_startproc
 128              	.LVL7:
  21:src/uart/uart.cpp ****     //buffer is owerflow
  22:src/uart/uart.cpp ****     if((tx_posE + 1 == tx_posS) || (tx_posS == 0 && tx_posE == BUF_TX_LEN - 1))
 129              		.loc 1 22 5
  20:src/uart/uart.cpp ****     //buffer is owerflow
 130              		.loc 1 20 1 is_stmt 0
 131 0000 AA87     		mv	a5,a0
 132              		.loc 1 22 9
 133 0002 0345350D 		lbu	a0,211(a0)
 134              	.LVL8:
 135              		.loc 1 22 24
 136 0006 03C3270D 		lbu	t1,210(a5)
 137              		.loc 1 22 17
 138 000a 0505     		addi	a0,a0,1
 139              		.loc 1 22 33
 140 000c 630F6506 		beq	a0,t1,.L9
 141              		.loc 1 22 37 discriminator 2
 142 0010 03C5270D 		lbu	a0,210(a5)
 143              		.loc 1 22 33 discriminator 2
GAS LISTING /tmp/ccXSC0G0.s 			page 4


 144 0014 11E5     		bne	a0,zero,.L7
 145              		.loc 1 22 53 discriminator 3
 146 0016 83C2370D 		lbu	t0,211(a5)
 147              		.loc 1 22 50 discriminator 3
 148 001a 2543     		li	t1,9
 149 001c 63886206 		beq	t0,t1,.L6
 150              	.L7:
  23:src/uart/uart.cpp ****         return false;
  24:src/uart/uart.cpp ****     bufferTX[tx_posE].data = data;
 151              		.loc 1 24 5 is_stmt 1
 152              		.loc 1 24 14 is_stmt 0
 153 0020 03C3370D 		lbu	t1,211(a5)
  25:src/uart/uart.cpp ****     bufferTX[tx_posE].len = len;
  26:src/uart/uart.cpp ****     bufferTX[tx_posE].cnt = 0;
  27:src/uart/uart.cpp ****     bufferTX[tx_posE].callback = callback;
  28:src/uart/uart.cpp ****     bufferTX[tx_posE].conf_l = conf;
  29:src/uart/uart.cpp ****     tx_posE ++;
  30:src/uart/uart.cpp ****     if(tx_posE >= BUF_TX_LEN)
 154              		.loc 1 30 5
 155 0024 2545     		li	a0,9
  24:src/uart/uart.cpp ****     bufferTX[tx_posE].len = len;
 156              		.loc 1 24 28
 157 0026 1203     		slli	t1,t1,4
 158 0028 3E93     		add	t1,a5,t1
 159 002a 2322B300 		sw	a1,4(t1)
  25:src/uart/uart.cpp ****     bufferTX[tx_posE].len = len;
 160              		.loc 1 25 5 is_stmt 1
  25:src/uart/uart.cpp ****     bufferTX[tx_posE].len = len;
 161              		.loc 1 25 14 is_stmt 0
 162 002e 83C5370D 		lbu	a1,211(a5)
 163              	.LVL9:
  25:src/uart/uart.cpp ****     bufferTX[tx_posE].len = len;
 164              		.loc 1 25 27
 165 0032 9205     		slli	a1,a1,4
 166 0034 BE95     		add	a1,a5,a1
 167 0036 2394C500 		sh	a2,8(a1)
  26:src/uart/uart.cpp ****     bufferTX[tx_posE].callback = callback;
 168              		.loc 1 26 5 is_stmt 1
  26:src/uart/uart.cpp ****     bufferTX[tx_posE].callback = callback;
 169              		.loc 1 26 14 is_stmt 0
 170 003a 03C6370D 		lbu	a2,211(a5)
 171              	.LVL10:
  26:src/uart/uart.cpp ****     bufferTX[tx_posE].callback = callback;
 172              		.loc 1 26 27
 173 003e 1206     		slli	a2,a2,4
 174 0040 3E96     		add	a2,a5,a2
 175 0042 23150600 		sh	zero,10(a2)
 176              	.LVL11:
  27:src/uart/uart.cpp ****     bufferTX[tx_posE].conf_l = conf;
 177              		.loc 1 27 5 is_stmt 1
  27:src/uart/uart.cpp ****     bufferTX[tx_posE].conf_l = conf;
 178              		.loc 1 27 14 is_stmt 0
 179 0046 03C6370D 		lbu	a2,211(a5)
  27:src/uart/uart.cpp ****     bufferTX[tx_posE].conf_l = conf;
 180              		.loc 1 27 32
 181 004a 1206     		slli	a2,a2,4
 182 004c 3E96     		add	a2,a5,a2
GAS LISTING /tmp/ccXSC0G0.s 			page 5


 183 004e 54C6     		sw	a3,12(a2)
  28:src/uart/uart.cpp ****     tx_posE ++;
 184              		.loc 1 28 5 is_stmt 1
  28:src/uart/uart.cpp ****     tx_posE ++;
 185              		.loc 1 28 14 is_stmt 0
 186 0050 83C6370D 		lbu	a3,211(a5)
 187              	.LVL12:
  28:src/uart/uart.cpp ****     tx_posE ++;
 188              		.loc 1 28 30
 189 0054 9206     		slli	a3,a3,4
 190 0056 BE96     		add	a3,a5,a3
 191 0058 2380E600 		sb	a4,0(a3)
 192              	.LVL13:
  29:src/uart/uart.cpp ****     if(tx_posE >= BUF_TX_LEN)
 193              		.loc 1 29 5 is_stmt 1
 194 005c 03C7370D 		lbu	a4,211(a5)
 195              	.LVL14:
  29:src/uart/uart.cpp ****     if(tx_posE >= BUF_TX_LEN)
 196              		.loc 1 29 13 is_stmt 0
 197 0060 0507     		addi	a4,a4,1
 198 0062 1377F70F 		andi	a4,a4,0xff
 199 0066 A389E70C 		sb	a4,211(a5)
 200              	.LVL15:
 201              		.loc 1 30 5 is_stmt 1
 202              		.loc 1 30 8 is_stmt 0
 203 006a 03C7370D 		lbu	a4,211(a5)
 204              		.loc 1 30 5
 205 006e 6374E500 		bleu	a4,a0,.L8
  31:src/uart/uart.cpp ****         tx_posE = 0;
 206              		.loc 1 31 9 is_stmt 1
 207              		.loc 1 31 17 is_stmt 0
 208 0072 A389070C 		sb	zero,211(a5)
 209              	.L8:
  32:src/uart/uart.cpp ****     usart->CTLR1 |= USART_CTLR1_TXEIE;
 210              		.loc 1 32 5 is_stmt 1
 211 0076 03A7870D 		lw	a4,216(a5)
  33:src/uart/uart.cpp ****     return true;
 212              		.loc 1 33 12 is_stmt 0
 213 007a 0545     		li	a0,1
  32:src/uart/uart.cpp ****     usart->CTLR1 |= USART_CTLR1_TXEIE;
 214              		.loc 1 32 12
 215 007c 8357C700 		lhu	a5,12(a4)
 216              	.LVL16:
  32:src/uart/uart.cpp ****     usart->CTLR1 |= USART_CTLR1_TXEIE;
 217              		.loc 1 32 18
 218 0080 93E70708 		ori	a5,a5,128
 219 0084 2316F700 		sh	a5,12(a4)
 220              		.loc 1 33 5 is_stmt 1
 221              		.loc 1 33 12 is_stmt 0
 222 0088 8280     		ret
 223              	.LVL17:
 224              	.L9:
  23:src/uart/uart.cpp ****     bufferTX[tx_posE].data = data;
 225              		.loc 1 23 16
 226 008a 0145     		li	a0,0
 227              	.L6:
  34:src/uart/uart.cpp **** }
GAS LISTING /tmp/ccXSC0G0.s 			page 6


 228              		.loc 1 34 1
 229 008c 8280     		ret
 230              		.cfi_endproc
 231              	.LFE18:
 233              		.section	.text._ZN4uart5printEPKc,"ax",@progbits
 234              		.align	1
 235              		.globl	_ZN4uart5printEPKc
 237              	_ZN4uart5printEPKc:
 238              	.LFB19:
  35:src/uart/uart.cpp **** bool uart::print(const char* str)
  36:src/uart/uart.cpp **** {
 239              		.loc 1 36 1 is_stmt 1
 240              		.cfi_startproc
 241              	.LVL18:
  37:src/uart/uart.cpp ****     int cnt = 0;
 242              		.loc 1 37 5
  38:src/uart/uart.cpp ****     while(str[cnt] != 0) {
 243              		.loc 1 38 5
 244              		.loc 1 38 20
  36:src/uart/uart.cpp ****     int cnt = 0;
 245              		.loc 1 36 1 is_stmt 0
 246 0000 5111     		addi	sp,sp,-12
 247              		.cfi_def_cfa_offset 12
 248 0002 22C2     		sw	s0,4(sp)
 249 0004 26C0     		sw	s1,0(sp)
 250 0006 06C4     		sw	ra,8(sp)
 251              		.cfi_offset 8, -8
 252              		.cfi_offset 9, -12
 253              		.cfi_offset 1, -4
 254              		.loc 1 38 20
 255 0008 83C70500 		lbu	a5,0(a1)
  36:src/uart/uart.cpp ****     int cnt = 0;
 256              		.loc 1 36 1
 257 000c 2E84     		mv	s0,a1
 258 000e AA84     		mv	s1,a0
 259              		.loc 1 38 20
 260 0010 9DC7     		beq	a5,zero,.L13
 261              		.loc 1 38 18
 262 0012 13851500 		addi	a0,a1,1
 263              	.LVL19:
 264 0016 97000000 		call	strlen
 264      E7800000 
 265              	.LVL20:
  39:src/uart/uart.cpp ****         cnt ++;
  40:src/uart/uart.cpp ****     }
  41:src/uart/uart.cpp ****     return send((uint8_t*)str, cnt);
 266              		.loc 1 41 16
 267 001e 13061500 		addi	a2,a0,1
 268 0022 4206     		slli	a2,a2,16
 269 0024 4182     		srli	a2,a2,16
 270              	.L12:
 271              		.loc 1 41 5 is_stmt 1
 272              		.loc 1 41 16 is_stmt 0
 273 0026 A285     		mv	a1,s0
  42:src/uart/uart.cpp **** }
 274              		.loc 1 42 1
 275 0028 1244     		lw	s0,4(sp)
GAS LISTING /tmp/ccXSC0G0.s 			page 7


 276              		.cfi_remember_state
 277              		.cfi_restore 8
 278              	.LVL21:
 279 002a A240     		lw	ra,8(sp)
 280              		.cfi_restore 1
  41:src/uart/uart.cpp **** }
 281              		.loc 1 41 16
 282 002c 2685     		mv	a0,s1
 283              		.loc 1 42 1
 284 002e 8244     		lw	s1,0(sp)
 285              		.cfi_restore 9
 286              	.LVL22:
  41:src/uart/uart.cpp **** }
 287              		.loc 1 41 16
 288 0030 0147     		li	a4,0
 289              		.loc 1 42 1
  41:src/uart/uart.cpp **** }
 290              		.loc 1 41 16
 291 0032 8146     		li	a3,0
 292              		.loc 1 42 1
 293 0034 3101     		addi	sp,sp,12
 294              		.cfi_def_cfa_offset 0
  41:src/uart/uart.cpp **** }
 295              		.loc 1 41 16
 296 0036 17030000 		tail	_ZN4uart4sendEPhtPFvvEh
 296      67000300 
 297              	.LVL23:
 298              	.L13:
 299              		.cfi_restore_state
  38:src/uart/uart.cpp ****         cnt ++;
 300              		.loc 1 38 20
 301 003e 0146     		li	a2,0
 302 0040 DDB7     		j	.L12
 303              		.cfi_endproc
 304              	.LFE19:
 306              		.section	.text._ZN4uart4syncEv,"ax",@progbits
 307              		.align	1
 308              		.globl	_ZN4uart4syncEv
 310              	_ZN4uart4syncEv:
 311              	.LFB20:
  43:src/uart/uart.cpp **** 
  44:src/uart/uart.cpp **** 
  45:src/uart/uart.cpp **** void uart::sync(void)
  46:src/uart/uart.cpp **** {
 312              		.loc 1 46 1 is_stmt 1
 313              		.cfi_startproc
 314              	.LVL24:
  47:src/uart/uart.cpp ****     while(!(usart->STATR & USART_STATR_TC) || tx_posS != tx_posE) {;}
 315              		.loc 1 47 5
 316              		.loc 1 47 13 is_stmt 0
 317 0000 0327850D 		lw	a4,216(a0)
 318              	.L16:
 319              		.loc 1 47 44 is_stmt 1 discriminator 7
 320              		.loc 1 47 20 is_stmt 0 discriminator 7
 321 0004 83570700 		lhu	a5,0(a4)
 322              		.loc 1 47 44 discriminator 7
 323 0008 93F70704 		andi	a5,a5,64
GAS LISTING /tmp/ccXSC0G0.s 			page 8


 324 000c E5DF     		beq	a5,zero,.L16
 325              		.loc 1 47 47 discriminator 2
 326 000e 8346250D 		lbu	a3,210(a0)
 327              		.loc 1 47 58 discriminator 2
 328 0012 8347350D 		lbu	a5,211(a0)
 329              		.loc 1 47 44 discriminator 2
 330 0016 E397F6FE 		bne	a3,a5,.L16
  48:src/uart/uart.cpp ****     return;
  49:src/uart/uart.cpp **** }
 331              		.loc 1 49 1
 332 001a 8280     		ret
 333              		.cfi_endproc
 334              	.LFE20:
 336              		.section	.text._ZN4uart9availableEv,"ax",@progbits
 337              		.align	1
 338              		.globl	_ZN4uart9availableEv
 340              	_ZN4uart9availableEv:
 341              	.LFB21:
  50:src/uart/uart.cpp ****     
  51:src/uart/uart.cpp **** int uart::available(void)
  52:src/uart/uart.cpp **** {
 342              		.loc 1 52 1 is_stmt 1
 343              		.cfi_startproc
 344              	.LVL25:
  53:src/uart/uart.cpp ****     if(rx_posS <= rx_posE)
 345              		.loc 1 53 5
 346              		.loc 1 53 8 is_stmt 0
 347 0000 0347450D 		lbu	a4,212(a0)
 348              		.loc 1 53 19
 349 0004 8347550D 		lbu	a5,213(a0)
 350              		.loc 1 53 5
 351 0008 63E9E700 		bgtu	a4,a5,.L22
  54:src/uart/uart.cpp ****         return rx_posE - rx_posS;
 352              		.loc 1 54 9 is_stmt 1
 353              		.loc 1 54 16 is_stmt 0
 354 000c 8347550D 		lbu	a5,213(a0)
 355              		.loc 1 54 26
 356 0010 0347450D 		lbu	a4,212(a0)
 357 0014 3385E740 		sub	a0,a5,a4
 358              	.LVL26:
 359 0018 8280     		ret
 360              	.LVL27:
 361              	.L22:
  55:src/uart/uart.cpp ****     return BUF_RX_LEN - rx_posS + rx_posE;
 362              		.loc 1 55 5 is_stmt 1
 363              		.loc 1 55 25 is_stmt 0
 364 001a 8347450D 		lbu	a5,212(a0)
 365              		.loc 1 55 35
 366 001e 0345550D 		lbu	a0,213(a0)
 367              	.LVL28:
 368              		.loc 1 55 23
 369 0022 1D8D     		sub	a0,a0,a5
 370              		.loc 1 55 35
 371 0024 13052503 		addi	a0,a0,50
  56:src/uart/uart.cpp **** }
 372              		.loc 1 56 1
 373 0028 8280     		ret
GAS LISTING /tmp/ccXSC0G0.s 			page 9


 374              		.cfi_endproc
 375              	.LFE21:
 377              		.section	.text._ZN4uart3getEv,"ax",@progbits
 378              		.align	1
 379              		.globl	_ZN4uart3getEv
 381              	_ZN4uart3getEv:
 382              	.LFB22:
  57:src/uart/uart.cpp **** uint8_t uart::get(void)
  58:src/uart/uart.cpp **** {
 383              		.loc 1 58 1 is_stmt 1
 384              		.cfi_startproc
 385              	.LVL29:
  59:src/uart/uart.cpp ****     //buffer is empty
  60:src/uart/uart.cpp ****     if(rx_posS == rx_posE)
 386              		.loc 1 60 5
 387              		.loc 1 60 8 is_stmt 0
 388 0000 8346450D 		lbu	a3,212(a0)
 389              		.loc 1 60 19
 390 0004 0347550D 		lbu	a4,213(a0)
  58:src/uart/uart.cpp ****     //buffer is empty
 391              		.loc 1 58 1
 392 0008 AA87     		mv	a5,a0
 393              		.loc 1 60 5
 394 000a 6387E602 		beq	a3,a4,.L28
  61:src/uart/uart.cpp ****         return 0;
  62:src/uart/uart.cpp ****     uint8_t val = bufferRX[rx_posS];
 395              		.loc 1 62 5 is_stmt 1
 396              		.loc 1 62 28 is_stmt 0
 397 000e 8346450D 		lbu	a3,212(a0)
  63:src/uart/uart.cpp ****     rx_posS ++;
 398              		.loc 1 63 5
 399 0012 0347450D 		lbu	a4,212(a0)
  64:src/uart/uart.cpp ****     if(rx_posS >= BUF_RX_LEN)
 400              		.loc 1 64 5
 401 0016 13061003 		li	a2,49
  62:src/uart/uart.cpp ****     rx_posS ++;
 402              		.loc 1 62 35
 403 001a AA96     		add	a3,a0,a3
  63:src/uart/uart.cpp ****     rx_posS ++;
 404              		.loc 1 63 13
 405 001c 0507     		addi	a4,a4,1
 406 001e 1377F70F 		andi	a4,a4,0xff
  62:src/uart/uart.cpp ****     rx_posS ++;
 407              		.loc 1 62 35
 408 0022 03C5060A 		lbu	a0,160(a3)
 409              	.LVL30:
  63:src/uart/uart.cpp ****     rx_posS ++;
 410              		.loc 1 63 5 is_stmt 1
  63:src/uart/uart.cpp ****     rx_posS ++;
 411              		.loc 1 63 13 is_stmt 0
 412 0026 238AE70C 		sb	a4,212(a5)
 413              		.loc 1 64 5 is_stmt 1
 414              		.loc 1 64 8 is_stmt 0
 415 002a 03C7470D 		lbu	a4,212(a5)
 416              		.loc 1 64 5
 417 002e 6376E600 		bleu	a4,a2,.L25
  65:src/uart/uart.cpp ****         rx_posS = 0;
GAS LISTING /tmp/ccXSC0G0.s 			page 10


 418              		.loc 1 65 9 is_stmt 1
 419              		.loc 1 65 17 is_stmt 0
 420 0032 238A070C 		sb	zero,212(a5)
 421 0036 8280     		ret
 422              	.LVL31:
 423              	.L28:
  61:src/uart/uart.cpp ****     uint8_t val = bufferRX[rx_posS];
 424              		.loc 1 61 16
 425 0038 0145     		li	a0,0
 426              	.LVL32:
 427              	.L25:
  66:src/uart/uart.cpp ****     return val;
  67:src/uart/uart.cpp **** }
 428              		.loc 1 67 1
 429 003a 8280     		ret
 430              		.cfi_endproc
 431              	.LFE22:
 433              		.section	.text._ZN4uart16interruptHandlerEv,"ax",@progbits
 434              		.align	1
 435              		.globl	_ZN4uart16interruptHandlerEv
 437              	_ZN4uart16interruptHandlerEv:
 438              	.LFB23:
  68:src/uart/uart.cpp **** void uart::interruptHandler(void)
  69:src/uart/uart.cpp **** {
 439              		.loc 1 69 1 is_stmt 1
 440              		.cfi_startproc
 441              	.LVL33:
  70:src/uart/uart.cpp ****     //Transmit
  71:src/uart/uart.cpp ****     if((usart->STATR & USART_STATR_TXE) && (usart->CTLR1 & USART_CTLR1_TXEIE)) {
 442              		.loc 1 71 5
 443              	.LBB6:
 444              		.loc 1 71 9 is_stmt 0
 445 0000 8327850D 		lw	a5,216(a0)
 446              	.LBE6:
  69:src/uart/uart.cpp ****     //Transmit
 447              		.loc 1 69 1
 448 0004 4111     		addi	sp,sp,-16
 449              		.cfi_def_cfa_offset 16
 450 0006 06C6     		sw	ra,12(sp)
 451              		.cfi_offset 1, -4
 452              	.LBB13:
 453              		.loc 1 71 16
 454 0008 03D70700 		lhu	a4,0(a5)
 455              		.loc 1 71 41
 456 000c 13770708 		andi	a4,a4,128
 457 0010 11C7     		beq	a4,zero,.L31
 458              		.loc 1 71 52 discriminator 1
 459 0012 03D7C700 		lhu	a4,12(a5)
 460              		.loc 1 71 41 discriminator 1
 461 0016 13770708 		andi	a4,a4,128
 462 001a 45EF     		bne	a4,zero,.L56
 463              	.LVL34:
 464              	.L31:
 465              	.LBE13:
  72:src/uart/uart.cpp ****         //buffer is empty
  73:src/uart/uart.cpp ****         if(tx_posS == tx_posE) {
  74:src/uart/uart.cpp ****             usart->CTLR1 &= ~(USART_CTLR1_TXEIE);
GAS LISTING /tmp/ccXSC0G0.s 			page 11


  75:src/uart/uart.cpp ****         }
  76:src/uart/uart.cpp ****         else {
  77:src/uart/uart.cpp ****             uint16_t tmp = 0;
  78:src/uart/uart.cpp ****             //9 bits
  79:src/uart/uart.cpp ****             if(bufferTX[tx_posS].conf_l & UART_CONF_9BIT) {
  80:src/uart/uart.cpp ****                 tmp = *(uint16_t*)(bufferTX[tx_posS].data + bufferTX[tx_posS].cnt);
  81:src/uart/uart.cpp ****                 bufferTX[tx_posS].cnt += 2;
  82:src/uart/uart.cpp ****             }
  83:src/uart/uart.cpp ****             else {
  84:src/uart/uart.cpp ****                 tmp = *(uint8_t*)(bufferTX[tx_posS].data + bufferTX[tx_posS].cnt);
  85:src/uart/uart.cpp ****                 bufferTX[tx_posS].cnt += 1;
  86:src/uart/uart.cpp ****             }
  87:src/uart/uart.cpp ****             usart->DATAR = tmp;
  88:src/uart/uart.cpp ****             if(bufferTX[tx_posS].cnt >= bufferTX[tx_posS].len) {
  89:src/uart/uart.cpp ****                 if(bufferTX[tx_posS].callback != nullptr)
  90:src/uart/uart.cpp ****                     bufferTX[tx_posS].callback();
  91:src/uart/uart.cpp ****                 tx_posS ++;
  92:src/uart/uart.cpp ****                 if(tx_posS >= BUF_TX_LEN)
  93:src/uart/uart.cpp ****                     tx_posS = 0;
  94:src/uart/uart.cpp ****             }
  95:src/uart/uart.cpp ****         }
  96:src/uart/uart.cpp ****     }
  97:src/uart/uart.cpp ****     //Receieve
  98:src/uart/uart.cpp ****     if((usart->STATR & USART_STATR_RXNE) && (usart->CTLR1 & USART_CTLR1_RXNEIE)) {
 466              		.loc 1 98 5 is_stmt 1
 467              		.loc 1 98 16 is_stmt 0
 468 001c 03D70700 		lhu	a4,0(a5)
 469              		.loc 1 98 42
 470 0020 13770702 		andi	a4,a4,32
 471 0024 55C3     		beq	a4,zero,.L39
 472              		.loc 1 98 53 discriminator 1
 473 0026 03D7C700 		lhu	a4,12(a5)
 474              		.loc 1 98 42 discriminator 1
 475 002a 13770702 		andi	a4,a4,32
 476 002e 49CF     		beq	a4,zero,.L39
  99:src/uart/uart.cpp ****         //9th bit
 100:src/uart/uart.cpp ****         if(usart->CTLR1 & USART_CTLR1_M) {
 477              		.loc 1 100 9 is_stmt 1
 478              		.loc 1 100 19 is_stmt 0
 479 0030 03D7C700 		lhu	a4,12(a5)
 480              		.loc 1 100 9
 481 0034 8566     		li	a3,4096
 482 0036 758F     		and	a4,a4,a3
 483 0038 21CB     		beq	a4,zero,.L42
 101:src/uart/uart.cpp ****             //buffer is not overflow
 102:src/uart/uart.cpp ****             if(!((rx_posS == 0 && rx_posE == BUF_RX_LEN - 1) || (rx_posE + 1 == rx_posS))) {
 484              		.loc 1 102 13 is_stmt 1
 485              		.loc 1 102 19 is_stmt 0
 486 003a 0347450D 		lbu	a4,212(a0)
 487              		.loc 1 102 16
 488 003e 19E7     		bne	a4,zero,.L43
 489              		.loc 1 102 35 discriminator 2
 490 0040 8346550D 		lbu	a3,213(a0)
 491              		.loc 1 102 32 discriminator 2
 492 0044 13071003 		li	a4,49
 493 0048 6380E604 		beq	a3,a4,.L42
 494              	.L43:
GAS LISTING /tmp/ccXSC0G0.s 			page 12


 495              		.loc 1 102 66 discriminator 3
 496 004c 0347550D 		lbu	a4,213(a0)
 497              		.loc 1 102 81 discriminator 3
 498 0050 8346450D 		lbu	a3,212(a0)
 499              		.loc 1 102 74 discriminator 3
 500 0054 0507     		addi	a4,a4,1
 501              		.loc 1 102 16 discriminator 3
 502 0056 6309D702 		beq	a4,a3,.L42
 103:src/uart/uart.cpp ****                 bufferRX[rx_posE] = usart->DATAR >> 8;
 503              		.loc 1 103 17 is_stmt 1
 504              		.loc 1 103 44 is_stmt 0
 505 005a 83D64700 		lhu	a3,4(a5)
 506              		.loc 1 103 26
 507 005e 0347550D 		lbu	a4,213(a0)
 104:src/uart/uart.cpp ****                 rx_posE ++;
 105:src/uart/uart.cpp ****                 if(rx_posE >= BUF_RX_LEN)
 508              		.loc 1 105 17
 509 0062 13061003 		li	a2,49
 103:src/uart/uart.cpp ****                 bufferRX[rx_posE] = usart->DATAR >> 8;
 510              		.loc 1 103 50
 511 0066 A182     		srli	a3,a3,8
 103:src/uart/uart.cpp ****                 bufferRX[rx_posE] = usart->DATAR >> 8;
 512              		.loc 1 103 35
 513 0068 2A97     		add	a4,a0,a4
 514 006a 2300D70A 		sb	a3,160(a4)
 104:src/uart/uart.cpp ****                 rx_posE ++;
 515              		.loc 1 104 17 is_stmt 1
 516 006e 0347550D 		lbu	a4,213(a0)
 104:src/uart/uart.cpp ****                 rx_posE ++;
 517              		.loc 1 104 25 is_stmt 0
 518 0072 0507     		addi	a4,a4,1
 519 0074 1377F70F 		andi	a4,a4,0xff
 520 0078 A30AE50C 		sb	a4,213(a0)
 521              		.loc 1 105 17 is_stmt 1
 522              		.loc 1 105 20 is_stmt 0
 523 007c 0347550D 		lbu	a4,213(a0)
 524              		.loc 1 105 17
 525 0080 6374E600 		bleu	a4,a2,.L42
 106:src/uart/uart.cpp ****                     rx_posE = 0;
 526              		.loc 1 106 21 is_stmt 1
 527              		.loc 1 106 29 is_stmt 0
 528 0084 A30A050C 		sb	zero,213(a0)
 529              	.L42:
 107:src/uart/uart.cpp ****                 }
 108:src/uart/uart.cpp ****         }
 109:src/uart/uart.cpp ****         //8 bits
 110:src/uart/uart.cpp ****         if(!((rx_posS == 0 && rx_posE == BUF_RX_LEN - 1) || (rx_posE + 1 == rx_posS))) {
 530              		.loc 1 110 9 is_stmt 1
 531              		.loc 1 110 15 is_stmt 0
 532 0088 0347450D 		lbu	a4,212(a0)
 533              		.loc 1 110 12
 534 008c 7DC7     		beq	a4,zero,.L57
 535              	.L45:
 536              		.loc 1 110 62 discriminator 3
 537 008e 0347550D 		lbu	a4,213(a0)
 538              		.loc 1 110 77 discriminator 3
 539 0092 8346450D 		lbu	a3,212(a0)
GAS LISTING /tmp/ccXSC0G0.s 			page 13


 540              		.loc 1 110 70 discriminator 3
 541 0096 0507     		addi	a4,a4,1
 542              		.loc 1 110 12 discriminator 3
 543 0098 6308D702 		beq	a4,a3,.L39
 111:src/uart/uart.cpp ****             bufferRX[rx_posE] = usart->DATAR & 0x00FF;
 544              		.loc 1 111 13 is_stmt 1
 545              		.loc 1 111 40 is_stmt 0
 546 009c 03D64700 		lhu	a2,4(a5)
 547              		.loc 1 111 22
 548 00a0 0347550D 		lbu	a4,213(a0)
 112:src/uart/uart.cpp ****             rx_posE ++;
 113:src/uart/uart.cpp ****             if(rx_posE >= BUF_RX_LEN)
 549              		.loc 1 113 13
 550 00a4 93061003 		li	a3,49
 111:src/uart/uart.cpp ****             bufferRX[rx_posE] = usart->DATAR & 0x00FF;
 551              		.loc 1 111 31
 552 00a8 2A97     		add	a4,a0,a4
 553 00aa 2300C70A 		sb	a2,160(a4)
 112:src/uart/uart.cpp ****             rx_posE ++;
 554              		.loc 1 112 13 is_stmt 1
 555 00ae 0347550D 		lbu	a4,213(a0)
 112:src/uart/uart.cpp ****             rx_posE ++;
 556              		.loc 1 112 21 is_stmt 0
 557 00b2 0507     		addi	a4,a4,1
 558 00b4 1377F70F 		andi	a4,a4,0xff
 559 00b8 A30AE50C 		sb	a4,213(a0)
 560              		.loc 1 113 13 is_stmt 1
 561              		.loc 1 113 16 is_stmt 0
 562 00bc 0347550D 		lbu	a4,213(a0)
 563              		.loc 1 113 13
 564 00c0 63F4E600 		bleu	a4,a3,.L39
 114:src/uart/uart.cpp ****                 rx_posE = 0;
 565              		.loc 1 114 17 is_stmt 1
 566              		.loc 1 114 25 is_stmt 0
 567 00c4 A30A050C 		sb	zero,213(a0)
 568              	.L39:
 115:src/uart/uart.cpp ****         }
 116:src/uart/uart.cpp ****     }
 117:src/uart/uart.cpp ****     usart->STATR = 0;
 569              		.loc 1 117 5 is_stmt 1
 118:src/uart/uart.cpp ****     return;
 119:src/uart/uart.cpp **** }...
 570              		.loc 1 119 1 is_stmt 0
 571 00c8 B240     		lw	ra,12(sp)
 572              		.cfi_remember_state
 573              		.cfi_restore 1
 117:src/uart/uart.cpp ****     usart->STATR = 0;
 574              		.loc 1 117 18
 575 00ca 23900700 		sh	zero,0(a5)
 118:src/uart/uart.cpp ****     return;
 576              		.loc 1 118 5 is_stmt 1
 577              		.loc 1 119 1 is_stmt 0
 578 00ce 4101     		addi	sp,sp,16
 579              		.cfi_def_cfa_offset 0
 580 00d0 8280     		jr	ra
 581              	.LVL35:
 582              	.L56:
GAS LISTING /tmp/ccXSC0G0.s 			page 14


 583              		.cfi_restore_state
  73:src/uart/uart.cpp ****         if(tx_posS == tx_posE) {
 584              		.loc 1 73 9 is_stmt 1
 585              	.LBB14:
 586              	.LBB7:
  73:src/uart/uart.cpp ****         if(tx_posS == tx_posE) {
 587              		.loc 1 73 12 is_stmt 0
 588 00d2 8346250D 		lbu	a3,210(a0)
  73:src/uart/uart.cpp ****         if(tx_posS == tx_posE) {
 589              		.loc 1 73 23
 590 00d6 0347350D 		lbu	a4,211(a0)
  73:src/uart/uart.cpp ****         if(tx_posS == tx_posE) {
 591              		.loc 1 73 9
 592 00da 6387E60A 		beq	a3,a4,.L58
 593              	.LBB8:
  77:src/uart/uart.cpp ****             uint16_t tmp = 0;
 594              		.loc 1 77 13 is_stmt 1
 595              	.LVL36:
  79:src/uart/uart.cpp ****             if(bufferTX[tx_posS].conf_l & UART_CONF_9BIT) {
 596              		.loc 1 79 13
  79:src/uart/uart.cpp ****             if(bufferTX[tx_posS].conf_l & UART_CONF_9BIT) {
 597              		.loc 1 79 25 is_stmt 0
 598 00de 0347250D 		lbu	a4,210(a0)
  80:src/uart/uart.cpp ****                 tmp = *(uint16_t*)(bufferTX[tx_posS].data + bufferTX[tx_posS].cnt);
 599              		.loc 1 80 45
 600 00e2 8346250D 		lbu	a3,210(a0)
  80:src/uart/uart.cpp ****                 tmp = *(uint16_t*)(bufferTX[tx_posS].data + bufferTX[tx_posS].cnt);
 601              		.loc 1 80 70
 602 00e6 0346250D 		lbu	a2,210(a0)
  79:src/uart/uart.cpp ****             if(bufferTX[tx_posS].conf_l & UART_CONF_9BIT) {
 603              		.loc 1 79 34
 604 00ea 1207     		slli	a4,a4,4
 605 00ec 2A97     		add	a4,a0,a4
  79:src/uart/uart.cpp ****             if(bufferTX[tx_posS].conf_l & UART_CONF_9BIT) {
 606              		.loc 1 79 13
 607 00ee 03470700 		lbu	a4,0(a4)
 608 00f2 058B     		andi	a4,a4,1
 609 00f4 4DC7     		beq	a4,zero,.L34
  80:src/uart/uart.cpp ****                 tmp = *(uint16_t*)(bufferTX[tx_posS].data + bufferTX[tx_posS].cnt);
 610              		.loc 1 80 17 is_stmt 1
  81:src/uart/uart.cpp ****                 bufferTX[tx_posS].cnt += 2;
 611              		.loc 1 81 26 is_stmt 0
 612 00f6 0347250D 		lbu	a4,210(a0)
  80:src/uart/uart.cpp ****                 tmp = *(uint16_t*)(bufferTX[tx_posS].data + bufferTX[tx_posS].cnt);
 613              		.loc 1 80 54
 614 00fa 9206     		slli	a3,a3,4
  80:src/uart/uart.cpp ****                 tmp = *(uint16_t*)(bufferTX[tx_posS].data + bufferTX[tx_posS].cnt);
 615              		.loc 1 80 79
 616 00fc 1206     		slli	a2,a2,4
 617 00fe 1207     		slli	a4,a4,4
 618 0100 2A97     		add	a4,a0,a4
 619 0102 2A96     		add	a2,a0,a2
  80:src/uart/uart.cpp ****                 tmp = *(uint16_t*)(bufferTX[tx_posS].data + bufferTX[tx_posS].cnt);
 620              		.loc 1 80 54
 621 0104 AA96     		add	a3,a0,a3
  80:src/uart/uart.cpp ****                 tmp = *(uint16_t*)(bufferTX[tx_posS].data + bufferTX[tx_posS].cnt);
 622              		.loc 1 80 79
GAS LISTING /tmp/ccXSC0G0.s 			page 15


 623 0106 8355A600 		lhu	a1,10(a2)
  80:src/uart/uart.cpp ****                 tmp = *(uint16_t*)(bufferTX[tx_posS].data + bufferTX[tx_posS].cnt);
 624              		.loc 1 80 21
 625 010a D442     		lw	a3,4(a3)
  81:src/uart/uart.cpp ****                 bufferTX[tx_posS].cnt += 2;
 626              		.loc 1 81 39
 627 010c 0356A700 		lhu	a2,10(a4)
  80:src/uart/uart.cpp ****                 tmp = *(uint16_t*)(bufferTX[tx_posS].data + bufferTX[tx_posS].cnt);
 628              		.loc 1 80 21
 629 0110 AE96     		add	a3,a3,a1
  81:src/uart/uart.cpp ****                 bufferTX[tx_posS].cnt += 2;
 630              		.loc 1 81 39
 631 0112 0906     		addi	a2,a2,2
  80:src/uart/uart.cpp ****                 tmp = *(uint16_t*)(bufferTX[tx_posS].data + bufferTX[tx_posS].cnt);
 632              		.loc 1 80 21
 633 0114 83D60600 		lhu	a3,0(a3)
 634              	.LVL37:
  81:src/uart/uart.cpp ****                 bufferTX[tx_posS].cnt += 2;
 635              		.loc 1 81 17 is_stmt 1
  81:src/uart/uart.cpp ****                 bufferTX[tx_posS].cnt += 2;
 636              		.loc 1 81 39 is_stmt 0
 637 0118 2315C700 		sh	a2,10(a4)
 638              	.LVL38:
 639              	.L35:
  87:src/uart/uart.cpp ****             usart->DATAR = tmp;
 640              		.loc 1 87 13 is_stmt 1
  87:src/uart/uart.cpp ****             usart->DATAR = tmp;
 641              		.loc 1 87 26 is_stmt 0
 642 011c 2392D700 		sh	a3,4(a5)
  88:src/uart/uart.cpp ****             if(bufferTX[tx_posS].cnt >= bufferTX[tx_posS].len) {
 643              		.loc 1 88 13 is_stmt 1
  88:src/uart/uart.cpp ****             if(bufferTX[tx_posS].cnt >= bufferTX[tx_posS].len) {
 644              		.loc 1 88 25 is_stmt 0
 645 0120 8346250D 		lbu	a3,210(a0)
 646              	.LVL39:
  88:src/uart/uart.cpp ****             if(bufferTX[tx_posS].cnt >= bufferTX[tx_posS].len) {
 647              		.loc 1 88 50
 648 0124 0347250D 		lbu	a4,210(a0)
  88:src/uart/uart.cpp ****             if(bufferTX[tx_posS].cnt >= bufferTX[tx_posS].len) {
 649              		.loc 1 88 34
 650 0128 9206     		slli	a3,a3,4
  88:src/uart/uart.cpp ****             if(bufferTX[tx_posS].cnt >= bufferTX[tx_posS].len) {
 651              		.loc 1 88 59
 652 012a 1207     		slli	a4,a4,4
  88:src/uart/uart.cpp ****             if(bufferTX[tx_posS].cnt >= bufferTX[tx_posS].len) {
 653              		.loc 1 88 34
 654 012c AA96     		add	a3,a0,a3
  88:src/uart/uart.cpp ****             if(bufferTX[tx_posS].cnt >= bufferTX[tx_posS].len) {
 655              		.loc 1 88 59
 656 012e 2A97     		add	a4,a0,a4
  88:src/uart/uart.cpp ****             if(bufferTX[tx_posS].cnt >= bufferTX[tx_posS].len) {
 657              		.loc 1 88 13
 658 0130 83D6A600 		lhu	a3,10(a3)
 659 0134 03578700 		lhu	a4,8(a4)
 660 0138 E3E2E6EE 		bltu	a3,a4,.L31
  89:src/uart/uart.cpp ****                 if(bufferTX[tx_posS].callback != nullptr)
 661              		.loc 1 89 17 is_stmt 1
GAS LISTING /tmp/ccXSC0G0.s 			page 16


  89:src/uart/uart.cpp ****                 if(bufferTX[tx_posS].callback != nullptr)
 662              		.loc 1 89 29 is_stmt 0
 663 013c 8347250D 		lbu	a5,210(a0)
 664              	.LVL40:
  89:src/uart/uart.cpp ****                 if(bufferTX[tx_posS].callback != nullptr)
 665              		.loc 1 89 38
 666 0140 9207     		slli	a5,a5,4
 667 0142 AA97     		add	a5,a0,a5
  89:src/uart/uart.cpp ****                 if(bufferTX[tx_posS].callback != nullptr)
 668              		.loc 1 89 17
 669 0144 DC47     		lw	a5,12(a5)
 670 0146 89CB     		beq	a5,zero,.L36
  90:src/uart/uart.cpp ****                     bufferTX[tx_posS].callback();
 671              		.loc 1 90 21 is_stmt 1
  90:src/uart/uart.cpp ****                     bufferTX[tx_posS].callback();
 672              		.loc 1 90 30 is_stmt 0
 673 0148 8347250D 		lbu	a5,210(a0)
  90:src/uart/uart.cpp ****                     bufferTX[tx_posS].callback();
 674              		.loc 1 90 39
 675 014c 2AC0     		sw	a0,0(sp)
 676 014e 9207     		slli	a5,a5,4
 677 0150 AA97     		add	a5,a0,a5
  90:src/uart/uart.cpp ****                     bufferTX[tx_posS].callback();
 678              		.loc 1 90 47
 679 0152 DC47     		lw	a5,12(a5)
 680 0154 8297     		jalr	a5
 681              	.LVL41:
 682 0156 0245     		lw	a0,0(sp)
 683              	.LVL42:
 684              	.L36:
  91:src/uart/uart.cpp ****                 tx_posS ++;
 685              		.loc 1 91 17 is_stmt 1
 686 0158 8347250D 		lbu	a5,210(a0)
  92:src/uart/uart.cpp ****                 if(tx_posS >= BUF_TX_LEN)
 687              		.loc 1 92 17 is_stmt 0
 688 015c 2547     		li	a4,9
  91:src/uart/uart.cpp ****                 tx_posS ++;
 689              		.loc 1 91 25
 690 015e 8507     		addi	a5,a5,1
 691 0160 93F7F70F 		andi	a5,a5,0xff
 692 0164 2309F50C 		sb	a5,210(a0)
  92:src/uart/uart.cpp ****                 if(tx_posS >= BUF_TX_LEN)
 693              		.loc 1 92 17 is_stmt 1
  92:src/uart/uart.cpp ****                 if(tx_posS >= BUF_TX_LEN)
 694              		.loc 1 92 20 is_stmt 0
 695 0168 8347250D 		lbu	a5,210(a0)
  92:src/uart/uart.cpp ****                 if(tx_posS >= BUF_TX_LEN)
 696              		.loc 1 92 17
 697 016c 637DF704 		bleu	a5,a4,.L59
  93:src/uart/uart.cpp ****                     tx_posS = 0;
 698              		.loc 1 93 21 is_stmt 1
 699              	.LBE8:
 700              	.LBE7:
 701              	.LBE14:
  98:src/uart/uart.cpp ****     if((usart->STATR & USART_STATR_RXNE) && (usart->CTLR1 & USART_CTLR1_RXNEIE)) {
 702              		.loc 1 98 9 is_stmt 0
 703 0170 8327850D 		lw	a5,216(a0)
GAS LISTING /tmp/ccXSC0G0.s 			page 17


 704              	.LBB15:
 705              	.LBB11:
 706              	.LBB9:
  93:src/uart/uart.cpp ****                     tx_posS = 0;
 707              		.loc 1 93 29
 708 0174 2309050C 		sb	zero,210(a0)
 709 0178 55B5     		j	.L31
 710              	.LVL43:
 711              	.L57:
 712              	.LBE9:
 713              	.LBE11:
 714              	.LBE15:
 110:src/uart/uart.cpp ****         if(!((rx_posS == 0 && rx_posE == BUF_RX_LEN - 1) || (rx_posE + 1 == rx_posS))) {
 715              		.loc 1 110 31 discriminator 2
 716 017a 8346550D 		lbu	a3,213(a0)
 110:src/uart/uart.cpp ****         if(!((rx_posS == 0 && rx_posE == BUF_RX_LEN - 1) || (rx_posE + 1 == rx_posS))) {
 717              		.loc 1 110 28 discriminator 2
 718 017e 13071003 		li	a4,49
 719 0182 E396E6F0 		bne	a3,a4,.L45
 720 0186 89B7     		j	.L39
 721              	.LVL44:
 722              	.L58:
 723              	.LBB16:
 724              	.LBB12:
  74:src/uart/uart.cpp ****             usart->CTLR1 &= ~(USART_CTLR1_TXEIE);
 725              		.loc 1 74 13 is_stmt 1
  74:src/uart/uart.cpp ****             usart->CTLR1 &= ~(USART_CTLR1_TXEIE);
 726              		.loc 1 74 20 is_stmt 0
 727 0188 03D7C700 		lhu	a4,12(a5)
 728 018c 4207     		slli	a4,a4,16
 729 018e 4183     		srli	a4,a4,16
  74:src/uart/uart.cpp ****             usart->CTLR1 &= ~(USART_CTLR1_TXEIE);
 730              		.loc 1 74 26
 731 0190 1377F7F7 		andi	a4,a4,-129
 732 0194 4207     		slli	a4,a4,16
 733 0196 4183     		srli	a4,a4,16
 734 0198 2396E700 		sh	a4,12(a5)
 735 019c 41B5     		j	.L31
 736              	.LVL45:
 737              	.L34:
 738              	.LBB10:
  84:src/uart/uart.cpp ****                 tmp = *(uint8_t*)(bufferTX[tx_posS].data + bufferTX[tx_posS].cnt);
 739              		.loc 1 84 17 is_stmt 1
  85:src/uart/uart.cpp ****                 bufferTX[tx_posS].cnt += 1;
 740              		.loc 1 85 26 is_stmt 0
 741 019e 0347250D 		lbu	a4,210(a0)
  84:src/uart/uart.cpp ****                 tmp = *(uint8_t*)(bufferTX[tx_posS].data + bufferTX[tx_posS].cnt);
 742              		.loc 1 84 53
 743 01a2 9206     		slli	a3,a3,4
  84:src/uart/uart.cpp ****                 tmp = *(uint8_t*)(bufferTX[tx_posS].data + bufferTX[tx_posS].cnt);
 744              		.loc 1 84 78
 745 01a4 1206     		slli	a2,a2,4
 746 01a6 1207     		slli	a4,a4,4
 747 01a8 2A97     		add	a4,a0,a4
 748 01aa 2A96     		add	a2,a0,a2
  84:src/uart/uart.cpp ****                 tmp = *(uint8_t*)(bufferTX[tx_posS].data + bufferTX[tx_posS].cnt);
 749              		.loc 1 84 53
GAS LISTING /tmp/ccXSC0G0.s 			page 18


 750 01ac AA96     		add	a3,a0,a3
  84:src/uart/uart.cpp ****                 tmp = *(uint8_t*)(bufferTX[tx_posS].data + bufferTX[tx_posS].cnt);
 751              		.loc 1 84 78
 752 01ae 8355A600 		lhu	a1,10(a2)
  84:src/uart/uart.cpp ****                 tmp = *(uint8_t*)(bufferTX[tx_posS].data + bufferTX[tx_posS].cnt);
 753              		.loc 1 84 23
 754 01b2 D442     		lw	a3,4(a3)
  85:src/uart/uart.cpp ****                 bufferTX[tx_posS].cnt += 1;
 755              		.loc 1 85 39
 756 01b4 0356A700 		lhu	a2,10(a4)
  84:src/uart/uart.cpp ****                 tmp = *(uint8_t*)(bufferTX[tx_posS].data + bufferTX[tx_posS].cnt);
 757              		.loc 1 84 23
 758 01b8 AE96     		add	a3,a3,a1
  85:src/uart/uart.cpp ****                 bufferTX[tx_posS].cnt += 1;
 759              		.loc 1 85 39
 760 01ba 0506     		addi	a2,a2,1
  84:src/uart/uart.cpp ****                 tmp = *(uint8_t*)(bufferTX[tx_posS].data + bufferTX[tx_posS].cnt);
 761              		.loc 1 84 21
 762 01bc 83C60600 		lbu	a3,0(a3)
 763              	.LVL46:
  85:src/uart/uart.cpp ****                 bufferTX[tx_posS].cnt += 1;
 764              		.loc 1 85 17 is_stmt 1
  85:src/uart/uart.cpp ****                 bufferTX[tx_posS].cnt += 1;
 765              		.loc 1 85 39 is_stmt 0
 766 01c0 2315C700 		sh	a2,10(a4)
 767 01c4 A1BF     		j	.L35
 768              	.LVL47:
 769              	.L59:
 770              	.LBE10:
 771              	.LBE12:
 772              	.LBE16:
  98:src/uart/uart.cpp ****     if((usart->STATR & USART_STATR_RXNE) && (usart->CTLR1 & USART_CTLR1_RXNEIE)) {
 773              		.loc 1 98 9
 774 01c6 8327850D 		lw	a5,216(a0)
 775 01ca 89BD     		j	.L31
 776              		.cfi_endproc
 777              	.LFE23:
 779              		.text
 780              	.Letext0:
 781              		.file 2 "/opt/MRS_toolchain/riscv-wch-elf/include/machine/_default_types.h"
 782              		.file 3 "/opt/MRS_toolchain/riscv-wch-elf/include/sys/_stdint.h"
 783              		.file 4 "src/core/ch32v00x.h"
 784              		.file 5 "src/uart/uart.h"
GAS LISTING /tmp/ccXSC0G0.s 			page 19


DEFINED SYMBOLS
                            *ABS*:0000000000000000 uart.cpp
     /tmp/ccXSC0G0.s:14     .text._ZN4uartC2EP13USART_TypeDefii9u_stopbit9u_wordlen:0000000000000000 _ZN4uartC2EP13USART_TypeDefii9u_stopbit9u_wordlen
     /tmp/ccXSC0G0.s:18     .text._ZN4uartC2EP13USART_TypeDefii9u_stopbit9u_wordlen:0000000000000000 .L0 
     /tmp/ccXSC0G0.s:20     .text._ZN4uartC2EP13USART_TypeDefii9u_stopbit9u_wordlen:0000000000000000 $x
     /tmp/ccXSC0G0.s:20     .text._ZN4uartC2EP13USART_TypeDefii9u_stopbit9u_wordlen:0000000000000000 .L0 
     /tmp/ccXSC0G0.s:21     .text._ZN4uartC2EP13USART_TypeDefii9u_stopbit9u_wordlen:0000000000000002 .L0 
     /tmp/ccXSC0G0.s:25     .text._ZN4uartC2EP13USART_TypeDefii9u_stopbit9u_wordlen:0000000000000008 .L0 
     /tmp/ccXSC0G0.s:26     .text._ZN4uartC2EP13USART_TypeDefii9u_stopbit9u_wordlen:0000000000000008 .L0 
     /tmp/ccXSC0G0.s:27     .text._ZN4uartC2EP13USART_TypeDefii9u_stopbit9u_wordlen:0000000000000008 .L0 
     /tmp/ccXSC0G0.s:30     .text._ZN4uartC2EP13USART_TypeDefii9u_stopbit9u_wordlen:0000000000000008 .L0 
     /tmp/ccXSC0G0.s:35     .text._ZN4uartC2EP13USART_TypeDefii9u_stopbit9u_wordlen:0000000000000014 .L0 
     /tmp/ccXSC0G0.s:38     .text._ZN4uartC2EP13USART_TypeDefii9u_stopbit9u_wordlen:0000000000000016 .L0 
     /tmp/ccXSC0G0.s:40     .text._ZN4uartC2EP13USART_TypeDefii9u_stopbit9u_wordlen:000000000000001a .L0 
     /tmp/ccXSC0G0.s:42     .text._ZN4uartC2EP13USART_TypeDefii9u_stopbit9u_wordlen:000000000000001e .L0 
     /tmp/ccXSC0G0.s:43     .text._ZN4uartC2EP13USART_TypeDefii9u_stopbit9u_wordlen:000000000000001e .L0 
     /tmp/ccXSC0G0.s:44     .text._ZN4uartC2EP13USART_TypeDefii9u_stopbit9u_wordlen:000000000000001e .L0 
     /tmp/ccXSC0G0.s:50     .text._ZN4uartC2EP13USART_TypeDefii9u_stopbit9u_wordlen:0000000000000022 .L0 
     /tmp/ccXSC0G0.s:54     .text._ZN4uartC2EP13USART_TypeDefii9u_stopbit9u_wordlen:0000000000000026 .L0 
     /tmp/ccXSC0G0.s:57     .text._ZN4uartC2EP13USART_TypeDefii9u_stopbit9u_wordlen:000000000000002e .L0 
     /tmp/ccXSC0G0.s:60     .text._ZN4uartC2EP13USART_TypeDefii9u_stopbit9u_wordlen:0000000000000032 .L0 
     /tmp/ccXSC0G0.s:62     .text._ZN4uartC2EP13USART_TypeDefii9u_stopbit9u_wordlen:0000000000000034 .L0 
     /tmp/ccXSC0G0.s:64     .text._ZN4uartC2EP13USART_TypeDefii9u_stopbit9u_wordlen:0000000000000038 .L0 
     /tmp/ccXSC0G0.s:65     .text._ZN4uartC2EP13USART_TypeDefii9u_stopbit9u_wordlen:0000000000000038 .L0 
     /tmp/ccXSC0G0.s:68     .text._ZN4uartC2EP13USART_TypeDefii9u_stopbit9u_wordlen:0000000000000040 .L0 
     /tmp/ccXSC0G0.s:69     .text._ZN4uartC2EP13USART_TypeDefii9u_stopbit9u_wordlen:0000000000000040 .L0 
     /tmp/ccXSC0G0.s:71     .text._ZN4uartC2EP13USART_TypeDefii9u_stopbit9u_wordlen:0000000000000044 .L0 
     /tmp/ccXSC0G0.s:73     .text._ZN4uartC2EP13USART_TypeDefii9u_stopbit9u_wordlen:0000000000000048 .L0 
     /tmp/ccXSC0G0.s:75     .text._ZN4uartC2EP13USART_TypeDefii9u_stopbit9u_wordlen:000000000000004a .L0 
     /tmp/ccXSC0G0.s:79     .text._ZN4uartC2EP13USART_TypeDefii9u_stopbit9u_wordlen:0000000000000050 .L0 
     /tmp/ccXSC0G0.s:81     .text._ZN4uartC2EP13USART_TypeDefii9u_stopbit9u_wordlen:0000000000000052 .L0 
     /tmp/ccXSC0G0.s:83     .text._ZN4uartC2EP13USART_TypeDefii9u_stopbit9u_wordlen:0000000000000056 .L0 
     /tmp/ccXSC0G0.s:85     .text._ZN4uartC2EP13USART_TypeDefii9u_stopbit9u_wordlen:000000000000005a .L0 
     /tmp/ccXSC0G0.s:86     .text._ZN4uartC2EP13USART_TypeDefii9u_stopbit9u_wordlen:000000000000005a .L0 
     /tmp/ccXSC0G0.s:88     .text._ZN4uartC2EP13USART_TypeDefii9u_stopbit9u_wordlen:000000000000005e .L0 
     /tmp/ccXSC0G0.s:93     .text._ZN4uartC2EP13USART_TypeDefii9u_stopbit9u_wordlen:0000000000000066 .L0 
     /tmp/ccXSC0G0.s:94     .text._ZN4uartC2EP13USART_TypeDefii9u_stopbit9u_wordlen:0000000000000066 .L0 
     /tmp/ccXSC0G0.s:97     .text._ZN4uartC2EP13USART_TypeDefii9u_stopbit9u_wordlen:000000000000006a .L0 
     /tmp/ccXSC0G0.s:98     .text._ZN4uartC2EP13USART_TypeDefii9u_stopbit9u_wordlen:000000000000006a .L0 
     /tmp/ccXSC0G0.s:99     .text._ZN4uartC2EP13USART_TypeDefii9u_stopbit9u_wordlen:000000000000006c .L0 
     /tmp/ccXSC0G0.s:102    .text._ZN4uartC2EP13USART_TypeDefii9u_stopbit9u_wordlen:000000000000006c .L0 
     /tmp/ccXSC0G0.s:105    .text._ZN4uartC2EP13USART_TypeDefii9u_stopbit9u_wordlen:0000000000000070 .L0 
     /tmp/ccXSC0G0.s:106    .text._ZN4uartC2EP13USART_TypeDefii9u_stopbit9u_wordlen:0000000000000072 .L0 
     /tmp/ccXSC0G0.s:109    .text._ZN4uartC2EP13USART_TypeDefii9u_stopbit9u_wordlen:0000000000000074 .L0 
     /tmp/ccXSC0G0.s:112    .text._ZN4uartC2EP13USART_TypeDefii9u_stopbit9u_wordlen:0000000000000076 .L0 
     /tmp/ccXSC0G0.s:115    .text._ZN4uartC2EP13USART_TypeDefii9u_stopbit9u_wordlen:0000000000000078 .L0 
     /tmp/ccXSC0G0.s:14     .text._ZN4uartC2EP13USART_TypeDefii9u_stopbit9u_wordlen:0000000000000000 _ZN4uartC1EP13USART_TypeDefii9u_stopbit9u_wordlen
     /tmp/ccXSC0G0.s:124    .text._ZN4uart4sendEPhtPFvvEh:0000000000000000 _ZN4uart4sendEPhtPFvvEh
     /tmp/ccXSC0G0.s:127    .text._ZN4uart4sendEPhtPFvvEh:0000000000000000 .L0 
     /tmp/ccXSC0G0.s:129    .text._ZN4uart4sendEPhtPFvvEh:0000000000000000 .L0 
     /tmp/ccXSC0G0.s:130    .text._ZN4uart4sendEPhtPFvvEh:0000000000000000 .L0 
     /tmp/ccXSC0G0.s:131    .text._ZN4uart4sendEPhtPFvvEh:0000000000000000 $x
     /tmp/ccXSC0G0.s:131    .text._ZN4uart4sendEPhtPFvvEh:0000000000000000 .L0 
     /tmp/ccXSC0G0.s:133    .text._ZN4uart4sendEPhtPFvvEh:0000000000000002 .L0 
     /tmp/ccXSC0G0.s:136    .text._ZN4uart4sendEPhtPFvvEh:0000000000000006 .L0 
     /tmp/ccXSC0G0.s:138    .text._ZN4uart4sendEPhtPFvvEh:000000000000000a .L0 
     /tmp/ccXSC0G0.s:140    .text._ZN4uart4sendEPhtPFvvEh:000000000000000c .L0 
GAS LISTING /tmp/ccXSC0G0.s 			page 20


     /tmp/ccXSC0G0.s:142    .text._ZN4uart4sendEPhtPFvvEh:0000000000000010 .L0 
     /tmp/ccXSC0G0.s:144    .text._ZN4uart4sendEPhtPFvvEh:0000000000000014 .L0 
     /tmp/ccXSC0G0.s:146    .text._ZN4uart4sendEPhtPFvvEh:0000000000000016 .L0 
     /tmp/ccXSC0G0.s:148    .text._ZN4uart4sendEPhtPFvvEh:000000000000001a .L0 
     /tmp/ccXSC0G0.s:152    .text._ZN4uart4sendEPhtPFvvEh:0000000000000020 .L0 
     /tmp/ccXSC0G0.s:153    .text._ZN4uart4sendEPhtPFvvEh:0000000000000020 .L0 
     /tmp/ccXSC0G0.s:155    .text._ZN4uart4sendEPhtPFvvEh:0000000000000024 .L0 
     /tmp/ccXSC0G0.s:157    .text._ZN4uart4sendEPhtPFvvEh:0000000000000026 .L0 
     /tmp/ccXSC0G0.s:161    .text._ZN4uart4sendEPhtPFvvEh:000000000000002e .L0 
     /tmp/ccXSC0G0.s:162    .text._ZN4uart4sendEPhtPFvvEh:000000000000002e .L0 
     /tmp/ccXSC0G0.s:165    .text._ZN4uart4sendEPhtPFvvEh:0000000000000032 .L0 
     /tmp/ccXSC0G0.s:169    .text._ZN4uart4sendEPhtPFvvEh:000000000000003a .L0 
     /tmp/ccXSC0G0.s:170    .text._ZN4uart4sendEPhtPFvvEh:000000000000003a .L0 
     /tmp/ccXSC0G0.s:173    .text._ZN4uart4sendEPhtPFvvEh:000000000000003e .L0 
     /tmp/ccXSC0G0.s:178    .text._ZN4uart4sendEPhtPFvvEh:0000000000000046 .L0 
     /tmp/ccXSC0G0.s:179    .text._ZN4uart4sendEPhtPFvvEh:0000000000000046 .L0 
     /tmp/ccXSC0G0.s:181    .text._ZN4uart4sendEPhtPFvvEh:000000000000004a .L0 
     /tmp/ccXSC0G0.s:185    .text._ZN4uart4sendEPhtPFvvEh:0000000000000050 .L0 
     /tmp/ccXSC0G0.s:186    .text._ZN4uart4sendEPhtPFvvEh:0000000000000050 .L0 
     /tmp/ccXSC0G0.s:189    .text._ZN4uart4sendEPhtPFvvEh:0000000000000054 .L0 
     /tmp/ccXSC0G0.s:194    .text._ZN4uart4sendEPhtPFvvEh:000000000000005c .L0 
     /tmp/ccXSC0G0.s:197    .text._ZN4uart4sendEPhtPFvvEh:0000000000000060 .L0 
     /tmp/ccXSC0G0.s:202    .text._ZN4uart4sendEPhtPFvvEh:000000000000006a .L0 
     /tmp/ccXSC0G0.s:203    .text._ZN4uart4sendEPhtPFvvEh:000000000000006a .L0 
     /tmp/ccXSC0G0.s:205    .text._ZN4uart4sendEPhtPFvvEh:000000000000006e .L0 
     /tmp/ccXSC0G0.s:207    .text._ZN4uart4sendEPhtPFvvEh:0000000000000072 .L0 
     /tmp/ccXSC0G0.s:208    .text._ZN4uart4sendEPhtPFvvEh:0000000000000072 .L0 
     /tmp/ccXSC0G0.s:211    .text._ZN4uart4sendEPhtPFvvEh:0000000000000076 .L0 
     /tmp/ccXSC0G0.s:213    .text._ZN4uart4sendEPhtPFvvEh:000000000000007a .L0 
     /tmp/ccXSC0G0.s:215    .text._ZN4uart4sendEPhtPFvvEh:000000000000007c .L0 
     /tmp/ccXSC0G0.s:218    .text._ZN4uart4sendEPhtPFvvEh:0000000000000080 .L0 
     /tmp/ccXSC0G0.s:221    .text._ZN4uart4sendEPhtPFvvEh:0000000000000088 .L0 
     /tmp/ccXSC0G0.s:222    .text._ZN4uart4sendEPhtPFvvEh:0000000000000088 .L0 
     /tmp/ccXSC0G0.s:226    .text._ZN4uart4sendEPhtPFvvEh:000000000000008a .L0 
     /tmp/ccXSC0G0.s:229    .text._ZN4uart4sendEPhtPFvvEh:000000000000008c .L0 
     /tmp/ccXSC0G0.s:230    .text._ZN4uart4sendEPhtPFvvEh:000000000000008e .L0 
     /tmp/ccXSC0G0.s:237    .text._ZN4uart5printEPKc:0000000000000000 _ZN4uart5printEPKc
     /tmp/ccXSC0G0.s:240    .text._ZN4uart5printEPKc:0000000000000000 .L0 
     /tmp/ccXSC0G0.s:242    .text._ZN4uart5printEPKc:0000000000000000 .L0 
     /tmp/ccXSC0G0.s:243    .text._ZN4uart5printEPKc:0000000000000000 .L0 
     /tmp/ccXSC0G0.s:244    .text._ZN4uart5printEPKc:0000000000000000 .L0 
     /tmp/ccXSC0G0.s:245    .text._ZN4uart5printEPKc:0000000000000000 .L0 
     /tmp/ccXSC0G0.s:246    .text._ZN4uart5printEPKc:0000000000000000 $x
     /tmp/ccXSC0G0.s:246    .text._ZN4uart5printEPKc:0000000000000000 .L0 
     /tmp/ccXSC0G0.s:247    .text._ZN4uart5printEPKc:0000000000000002 .L0 
     /tmp/ccXSC0G0.s:251    .text._ZN4uart5printEPKc:0000000000000008 .L0 
     /tmp/ccXSC0G0.s:252    .text._ZN4uart5printEPKc:0000000000000008 .L0 
     /tmp/ccXSC0G0.s:253    .text._ZN4uart5printEPKc:0000000000000008 .L0 
     /tmp/ccXSC0G0.s:255    .text._ZN4uart5printEPKc:0000000000000008 .L0 
     /tmp/ccXSC0G0.s:257    .text._ZN4uart5printEPKc:000000000000000c .L0 
     /tmp/ccXSC0G0.s:260    .text._ZN4uart5printEPKc:0000000000000010 .L0 
     /tmp/ccXSC0G0.s:262    .text._ZN4uart5printEPKc:0000000000000012 .L0 
     /tmp/ccXSC0G0.s:267    .text._ZN4uart5printEPKc:000000000000001e .L0 
     /tmp/ccXSC0G0.s:272    .text._ZN4uart5printEPKc:0000000000000026 .L0 
     /tmp/ccXSC0G0.s:273    .text._ZN4uart5printEPKc:0000000000000026 .L0 
     /tmp/ccXSC0G0.s:275    .text._ZN4uart5printEPKc:0000000000000028 .L0 
     /tmp/ccXSC0G0.s:276    .text._ZN4uart5printEPKc:000000000000002a .L0 
GAS LISTING /tmp/ccXSC0G0.s 			page 21


     /tmp/ccXSC0G0.s:277    .text._ZN4uart5printEPKc:000000000000002a .L0 
     /tmp/ccXSC0G0.s:280    .text._ZN4uart5printEPKc:000000000000002c .L0 
     /tmp/ccXSC0G0.s:282    .text._ZN4uart5printEPKc:000000000000002c .L0 
     /tmp/ccXSC0G0.s:284    .text._ZN4uart5printEPKc:000000000000002e .L0 
     /tmp/ccXSC0G0.s:285    .text._ZN4uart5printEPKc:0000000000000030 .L0 
     /tmp/ccXSC0G0.s:288    .text._ZN4uart5printEPKc:0000000000000030 .L0 
     /tmp/ccXSC0G0.s:290    .text._ZN4uart5printEPKc:0000000000000032 .L0 
     /tmp/ccXSC0G0.s:291    .text._ZN4uart5printEPKc:0000000000000032 .L0 
     /tmp/ccXSC0G0.s:293    .text._ZN4uart5printEPKc:0000000000000034 .L0 
     /tmp/ccXSC0G0.s:294    .text._ZN4uart5printEPKc:0000000000000036 .L0 
     /tmp/ccXSC0G0.s:296    .text._ZN4uart5printEPKc:0000000000000036 .L0 
     /tmp/ccXSC0G0.s:299    .text._ZN4uart5printEPKc:000000000000003e .L0 
     /tmp/ccXSC0G0.s:301    .text._ZN4uart5printEPKc:000000000000003e .L0 
     /tmp/ccXSC0G0.s:303    .text._ZN4uart5printEPKc:0000000000000042 .L0 
     /tmp/ccXSC0G0.s:310    .text._ZN4uart4syncEv:0000000000000000 _ZN4uart4syncEv
     /tmp/ccXSC0G0.s:313    .text._ZN4uart4syncEv:0000000000000000 .L0 
     /tmp/ccXSC0G0.s:315    .text._ZN4uart4syncEv:0000000000000000 .L0 
     /tmp/ccXSC0G0.s:316    .text._ZN4uart4syncEv:0000000000000000 .L0 
     /tmp/ccXSC0G0.s:317    .text._ZN4uart4syncEv:0000000000000000 $x
     /tmp/ccXSC0G0.s:317    .text._ZN4uart4syncEv:0000000000000000 .L0 
     /tmp/ccXSC0G0.s:320    .text._ZN4uart4syncEv:0000000000000004 .L0 
     /tmp/ccXSC0G0.s:321    .text._ZN4uart4syncEv:0000000000000004 .L0 
     /tmp/ccXSC0G0.s:323    .text._ZN4uart4syncEv:0000000000000008 .L0 
     /tmp/ccXSC0G0.s:326    .text._ZN4uart4syncEv:000000000000000e .L0 
     /tmp/ccXSC0G0.s:328    .text._ZN4uart4syncEv:0000000000000012 .L0 
     /tmp/ccXSC0G0.s:330    .text._ZN4uart4syncEv:0000000000000016 .L0 
     /tmp/ccXSC0G0.s:332    .text._ZN4uart4syncEv:000000000000001a .L0 
     /tmp/ccXSC0G0.s:333    .text._ZN4uart4syncEv:000000000000001c .L0 
     /tmp/ccXSC0G0.s:340    .text._ZN4uart9availableEv:0000000000000000 _ZN4uart9availableEv
     /tmp/ccXSC0G0.s:343    .text._ZN4uart9availableEv:0000000000000000 .L0 
     /tmp/ccXSC0G0.s:345    .text._ZN4uart9availableEv:0000000000000000 .L0 
     /tmp/ccXSC0G0.s:346    .text._ZN4uart9availableEv:0000000000000000 .L0 
     /tmp/ccXSC0G0.s:347    .text._ZN4uart9availableEv:0000000000000000 $x
     /tmp/ccXSC0G0.s:347    .text._ZN4uart9availableEv:0000000000000000 .L0 
     /tmp/ccXSC0G0.s:349    .text._ZN4uart9availableEv:0000000000000004 .L0 
     /tmp/ccXSC0G0.s:351    .text._ZN4uart9availableEv:0000000000000008 .L0 
     /tmp/ccXSC0G0.s:353    .text._ZN4uart9availableEv:000000000000000c .L0 
     /tmp/ccXSC0G0.s:354    .text._ZN4uart9availableEv:000000000000000c .L0 
     /tmp/ccXSC0G0.s:356    .text._ZN4uart9availableEv:0000000000000010 .L0 
     /tmp/ccXSC0G0.s:363    .text._ZN4uart9availableEv:000000000000001a .L0 
     /tmp/ccXSC0G0.s:364    .text._ZN4uart9availableEv:000000000000001a .L0 
     /tmp/ccXSC0G0.s:366    .text._ZN4uart9availableEv:000000000000001e .L0 
     /tmp/ccXSC0G0.s:369    .text._ZN4uart9availableEv:0000000000000022 .L0 
     /tmp/ccXSC0G0.s:371    .text._ZN4uart9availableEv:0000000000000024 .L0 
     /tmp/ccXSC0G0.s:373    .text._ZN4uart9availableEv:0000000000000028 .L0 
     /tmp/ccXSC0G0.s:374    .text._ZN4uart9availableEv:000000000000002a .L0 
     /tmp/ccXSC0G0.s:381    .text._ZN4uart3getEv:0000000000000000 _ZN4uart3getEv
     /tmp/ccXSC0G0.s:384    .text._ZN4uart3getEv:0000000000000000 .L0 
     /tmp/ccXSC0G0.s:386    .text._ZN4uart3getEv:0000000000000000 .L0 
     /tmp/ccXSC0G0.s:387    .text._ZN4uart3getEv:0000000000000000 .L0 
     /tmp/ccXSC0G0.s:388    .text._ZN4uart3getEv:0000000000000000 $x
     /tmp/ccXSC0G0.s:388    .text._ZN4uart3getEv:0000000000000000 .L0 
     /tmp/ccXSC0G0.s:390    .text._ZN4uart3getEv:0000000000000004 .L0 
     /tmp/ccXSC0G0.s:392    .text._ZN4uart3getEv:0000000000000008 .L0 
     /tmp/ccXSC0G0.s:394    .text._ZN4uart3getEv:000000000000000a .L0 
     /tmp/ccXSC0G0.s:396    .text._ZN4uart3getEv:000000000000000e .L0 
     /tmp/ccXSC0G0.s:397    .text._ZN4uart3getEv:000000000000000e .L0 
GAS LISTING /tmp/ccXSC0G0.s 			page 22


     /tmp/ccXSC0G0.s:399    .text._ZN4uart3getEv:0000000000000012 .L0 
     /tmp/ccXSC0G0.s:401    .text._ZN4uart3getEv:0000000000000016 .L0 
     /tmp/ccXSC0G0.s:403    .text._ZN4uart3getEv:000000000000001a .L0 
     /tmp/ccXSC0G0.s:405    .text._ZN4uart3getEv:000000000000001c .L0 
     /tmp/ccXSC0G0.s:408    .text._ZN4uart3getEv:0000000000000022 .L0 
     /tmp/ccXSC0G0.s:411    .text._ZN4uart3getEv:0000000000000026 .L0 
     /tmp/ccXSC0G0.s:412    .text._ZN4uart3getEv:0000000000000026 .L0 
     /tmp/ccXSC0G0.s:414    .text._ZN4uart3getEv:000000000000002a .L0 
     /tmp/ccXSC0G0.s:415    .text._ZN4uart3getEv:000000000000002a .L0 
     /tmp/ccXSC0G0.s:417    .text._ZN4uart3getEv:000000000000002e .L0 
     /tmp/ccXSC0G0.s:419    .text._ZN4uart3getEv:0000000000000032 .L0 
     /tmp/ccXSC0G0.s:420    .text._ZN4uart3getEv:0000000000000032 .L0 
     /tmp/ccXSC0G0.s:425    .text._ZN4uart3getEv:0000000000000038 .L0 
     /tmp/ccXSC0G0.s:429    .text._ZN4uart3getEv:000000000000003a .L0 
     /tmp/ccXSC0G0.s:430    .text._ZN4uart3getEv:000000000000003c .L0 
     /tmp/ccXSC0G0.s:437    .text._ZN4uart16interruptHandlerEv:0000000000000000 _ZN4uart16interruptHandlerEv
     /tmp/ccXSC0G0.s:440    .text._ZN4uart16interruptHandlerEv:0000000000000000 .L0 
     /tmp/ccXSC0G0.s:442    .text._ZN4uart16interruptHandlerEv:0000000000000000 .L0 
     /tmp/ccXSC0G0.s:444    .text._ZN4uart16interruptHandlerEv:0000000000000000 .L0 
     /tmp/ccXSC0G0.s:445    .text._ZN4uart16interruptHandlerEv:0000000000000000 $x
     /tmp/ccXSC0G0.s:445    .text._ZN4uart16interruptHandlerEv:0000000000000000 .L0 
     /tmp/ccXSC0G0.s:448    .text._ZN4uart16interruptHandlerEv:0000000000000004 .L0 
     /tmp/ccXSC0G0.s:449    .text._ZN4uart16interruptHandlerEv:0000000000000006 .L0 
     /tmp/ccXSC0G0.s:451    .text._ZN4uart16interruptHandlerEv:0000000000000008 .L0 
     /tmp/ccXSC0G0.s:454    .text._ZN4uart16interruptHandlerEv:0000000000000008 .L0 
     /tmp/ccXSC0G0.s:456    .text._ZN4uart16interruptHandlerEv:000000000000000c .L0 
     /tmp/ccXSC0G0.s:459    .text._ZN4uart16interruptHandlerEv:0000000000000012 .L0 
     /tmp/ccXSC0G0.s:461    .text._ZN4uart16interruptHandlerEv:0000000000000016 .L0 
     /tmp/ccXSC0G0.s:467    .text._ZN4uart16interruptHandlerEv:000000000000001c .L0 
     /tmp/ccXSC0G0.s:468    .text._ZN4uart16interruptHandlerEv:000000000000001c .L0 
     /tmp/ccXSC0G0.s:470    .text._ZN4uart16interruptHandlerEv:0000000000000020 .L0 
     /tmp/ccXSC0G0.s:473    .text._ZN4uart16interruptHandlerEv:0000000000000026 .L0 
     /tmp/ccXSC0G0.s:475    .text._ZN4uart16interruptHandlerEv:000000000000002a .L0 
     /tmp/ccXSC0G0.s:478    .text._ZN4uart16interruptHandlerEv:0000000000000030 .L0 
     /tmp/ccXSC0G0.s:479    .text._ZN4uart16interruptHandlerEv:0000000000000030 .L0 
     /tmp/ccXSC0G0.s:481    .text._ZN4uart16interruptHandlerEv:0000000000000034 .L0 
     /tmp/ccXSC0G0.s:485    .text._ZN4uart16interruptHandlerEv:000000000000003a .L0 
     /tmp/ccXSC0G0.s:486    .text._ZN4uart16interruptHandlerEv:000000000000003a .L0 
     /tmp/ccXSC0G0.s:488    .text._ZN4uart16interruptHandlerEv:000000000000003e .L0 
     /tmp/ccXSC0G0.s:490    .text._ZN4uart16interruptHandlerEv:0000000000000040 .L0 
     /tmp/ccXSC0G0.s:492    .text._ZN4uart16interruptHandlerEv:0000000000000044 .L0 
     /tmp/ccXSC0G0.s:496    .text._ZN4uart16interruptHandlerEv:000000000000004c .L0 
     /tmp/ccXSC0G0.s:498    .text._ZN4uart16interruptHandlerEv:0000000000000050 .L0 
     /tmp/ccXSC0G0.s:500    .text._ZN4uart16interruptHandlerEv:0000000000000054 .L0 
     /tmp/ccXSC0G0.s:502    .text._ZN4uart16interruptHandlerEv:0000000000000056 .L0 
     /tmp/ccXSC0G0.s:504    .text._ZN4uart16interruptHandlerEv:000000000000005a .L0 
     /tmp/ccXSC0G0.s:505    .text._ZN4uart16interruptHandlerEv:000000000000005a .L0 
     /tmp/ccXSC0G0.s:507    .text._ZN4uart16interruptHandlerEv:000000000000005e .L0 
     /tmp/ccXSC0G0.s:509    .text._ZN4uart16interruptHandlerEv:0000000000000062 .L0 
     /tmp/ccXSC0G0.s:511    .text._ZN4uart16interruptHandlerEv:0000000000000066 .L0 
     /tmp/ccXSC0G0.s:513    .text._ZN4uart16interruptHandlerEv:0000000000000068 .L0 
     /tmp/ccXSC0G0.s:516    .text._ZN4uart16interruptHandlerEv:000000000000006e .L0 
     /tmp/ccXSC0G0.s:518    .text._ZN4uart16interruptHandlerEv:0000000000000072 .L0 
     /tmp/ccXSC0G0.s:522    .text._ZN4uart16interruptHandlerEv:000000000000007c .L0 
     /tmp/ccXSC0G0.s:523    .text._ZN4uart16interruptHandlerEv:000000000000007c .L0 
     /tmp/ccXSC0G0.s:525    .text._ZN4uart16interruptHandlerEv:0000000000000080 .L0 
     /tmp/ccXSC0G0.s:527    .text._ZN4uart16interruptHandlerEv:0000000000000084 .L0 
GAS LISTING /tmp/ccXSC0G0.s 			page 23


     /tmp/ccXSC0G0.s:528    .text._ZN4uart16interruptHandlerEv:0000000000000084 .L0 
     /tmp/ccXSC0G0.s:531    .text._ZN4uart16interruptHandlerEv:0000000000000088 .L0 
     /tmp/ccXSC0G0.s:532    .text._ZN4uart16interruptHandlerEv:0000000000000088 .L0 
     /tmp/ccXSC0G0.s:534    .text._ZN4uart16interruptHandlerEv:000000000000008c .L0 
     /tmp/ccXSC0G0.s:537    .text._ZN4uart16interruptHandlerEv:000000000000008e .L0 
     /tmp/ccXSC0G0.s:539    .text._ZN4uart16interruptHandlerEv:0000000000000092 .L0 
     /tmp/ccXSC0G0.s:541    .text._ZN4uart16interruptHandlerEv:0000000000000096 .L0 
     /tmp/ccXSC0G0.s:543    .text._ZN4uart16interruptHandlerEv:0000000000000098 .L0 
     /tmp/ccXSC0G0.s:545    .text._ZN4uart16interruptHandlerEv:000000000000009c .L0 
     /tmp/ccXSC0G0.s:546    .text._ZN4uart16interruptHandlerEv:000000000000009c .L0 
     /tmp/ccXSC0G0.s:548    .text._ZN4uart16interruptHandlerEv:00000000000000a0 .L0 
     /tmp/ccXSC0G0.s:550    .text._ZN4uart16interruptHandlerEv:00000000000000a4 .L0 
     /tmp/ccXSC0G0.s:552    .text._ZN4uart16interruptHandlerEv:00000000000000a8 .L0 
     /tmp/ccXSC0G0.s:555    .text._ZN4uart16interruptHandlerEv:00000000000000ae .L0 
     /tmp/ccXSC0G0.s:557    .text._ZN4uart16interruptHandlerEv:00000000000000b2 .L0 
     /tmp/ccXSC0G0.s:561    .text._ZN4uart16interruptHandlerEv:00000000000000bc .L0 
     /tmp/ccXSC0G0.s:562    .text._ZN4uart16interruptHandlerEv:00000000000000bc .L0 
     /tmp/ccXSC0G0.s:564    .text._ZN4uart16interruptHandlerEv:00000000000000c0 .L0 
     /tmp/ccXSC0G0.s:566    .text._ZN4uart16interruptHandlerEv:00000000000000c4 .L0 
     /tmp/ccXSC0G0.s:567    .text._ZN4uart16interruptHandlerEv:00000000000000c4 .L0 
     /tmp/ccXSC0G0.s:570    .text._ZN4uart16interruptHandlerEv:00000000000000c8 .L0 
     /tmp/ccXSC0G0.s:571    .text._ZN4uart16interruptHandlerEv:00000000000000c8 .L0 
     /tmp/ccXSC0G0.s:572    .text._ZN4uart16interruptHandlerEv:00000000000000ca .L0 
     /tmp/ccXSC0G0.s:573    .text._ZN4uart16interruptHandlerEv:00000000000000ca .L0 
     /tmp/ccXSC0G0.s:575    .text._ZN4uart16interruptHandlerEv:00000000000000ca .L0 
     /tmp/ccXSC0G0.s:577    .text._ZN4uart16interruptHandlerEv:00000000000000ce .L0 
     /tmp/ccXSC0G0.s:578    .text._ZN4uart16interruptHandlerEv:00000000000000ce .L0 
     /tmp/ccXSC0G0.s:579    .text._ZN4uart16interruptHandlerEv:00000000000000d0 .L0 
     /tmp/ccXSC0G0.s:583    .text._ZN4uart16interruptHandlerEv:00000000000000d2 .L0 
     /tmp/ccXSC0G0.s:587    .text._ZN4uart16interruptHandlerEv:00000000000000d2 .L0 
     /tmp/ccXSC0G0.s:588    .text._ZN4uart16interruptHandlerEv:00000000000000d2 .L0 
     /tmp/ccXSC0G0.s:590    .text._ZN4uart16interruptHandlerEv:00000000000000d6 .L0 
     /tmp/ccXSC0G0.s:592    .text._ZN4uart16interruptHandlerEv:00000000000000da .L0 
     /tmp/ccXSC0G0.s:596    .text._ZN4uart16interruptHandlerEv:00000000000000de .L0 
     /tmp/ccXSC0G0.s:597    .text._ZN4uart16interruptHandlerEv:00000000000000de .L0 
     /tmp/ccXSC0G0.s:598    .text._ZN4uart16interruptHandlerEv:00000000000000de .L0 
     /tmp/ccXSC0G0.s:600    .text._ZN4uart16interruptHandlerEv:00000000000000e2 .L0 
     /tmp/ccXSC0G0.s:602    .text._ZN4uart16interruptHandlerEv:00000000000000e6 .L0 
     /tmp/ccXSC0G0.s:604    .text._ZN4uart16interruptHandlerEv:00000000000000ea .L0 
     /tmp/ccXSC0G0.s:607    .text._ZN4uart16interruptHandlerEv:00000000000000ee .L0 
     /tmp/ccXSC0G0.s:611    .text._ZN4uart16interruptHandlerEv:00000000000000f6 .L0 
     /tmp/ccXSC0G0.s:612    .text._ZN4uart16interruptHandlerEv:00000000000000f6 .L0 
     /tmp/ccXSC0G0.s:614    .text._ZN4uart16interruptHandlerEv:00000000000000fa .L0 
     /tmp/ccXSC0G0.s:616    .text._ZN4uart16interruptHandlerEv:00000000000000fc .L0 
     /tmp/ccXSC0G0.s:621    .text._ZN4uart16interruptHandlerEv:0000000000000104 .L0 
     /tmp/ccXSC0G0.s:623    .text._ZN4uart16interruptHandlerEv:0000000000000106 .L0 
     /tmp/ccXSC0G0.s:625    .text._ZN4uart16interruptHandlerEv:000000000000010a .L0 
     /tmp/ccXSC0G0.s:627    .text._ZN4uart16interruptHandlerEv:000000000000010c .L0 
     /tmp/ccXSC0G0.s:629    .text._ZN4uart16interruptHandlerEv:0000000000000110 .L0 
     /tmp/ccXSC0G0.s:631    .text._ZN4uart16interruptHandlerEv:0000000000000112 .L0 
     /tmp/ccXSC0G0.s:633    .text._ZN4uart16interruptHandlerEv:0000000000000114 .L0 
     /tmp/ccXSC0G0.s:636    .text._ZN4uart16interruptHandlerEv:0000000000000118 .L0 
     /tmp/ccXSC0G0.s:637    .text._ZN4uart16interruptHandlerEv:0000000000000118 .L0 
     /tmp/ccXSC0G0.s:641    .text._ZN4uart16interruptHandlerEv:000000000000011c .L0 
     /tmp/ccXSC0G0.s:642    .text._ZN4uart16interruptHandlerEv:000000000000011c .L0 
     /tmp/ccXSC0G0.s:644    .text._ZN4uart16interruptHandlerEv:0000000000000120 .L0 
     /tmp/ccXSC0G0.s:645    .text._ZN4uart16interruptHandlerEv:0000000000000120 .L0 
GAS LISTING /tmp/ccXSC0G0.s 			page 24


     /tmp/ccXSC0G0.s:648    .text._ZN4uart16interruptHandlerEv:0000000000000124 .L0 
     /tmp/ccXSC0G0.s:650    .text._ZN4uart16interruptHandlerEv:0000000000000128 .L0 
     /tmp/ccXSC0G0.s:652    .text._ZN4uart16interruptHandlerEv:000000000000012a .L0 
     /tmp/ccXSC0G0.s:654    .text._ZN4uart16interruptHandlerEv:000000000000012c .L0 
     /tmp/ccXSC0G0.s:656    .text._ZN4uart16interruptHandlerEv:000000000000012e .L0 
     /tmp/ccXSC0G0.s:658    .text._ZN4uart16interruptHandlerEv:0000000000000130 .L0 
     /tmp/ccXSC0G0.s:662    .text._ZN4uart16interruptHandlerEv:000000000000013c .L0 
     /tmp/ccXSC0G0.s:663    .text._ZN4uart16interruptHandlerEv:000000000000013c .L0 
     /tmp/ccXSC0G0.s:666    .text._ZN4uart16interruptHandlerEv:0000000000000140 .L0 
     /tmp/ccXSC0G0.s:669    .text._ZN4uart16interruptHandlerEv:0000000000000144 .L0 
     /tmp/ccXSC0G0.s:672    .text._ZN4uart16interruptHandlerEv:0000000000000148 .L0 
     /tmp/ccXSC0G0.s:673    .text._ZN4uart16interruptHandlerEv:0000000000000148 .L0 
     /tmp/ccXSC0G0.s:675    .text._ZN4uart16interruptHandlerEv:000000000000014c .L0 
     /tmp/ccXSC0G0.s:679    .text._ZN4uart16interruptHandlerEv:0000000000000152 .L0 
     /tmp/ccXSC0G0.s:686    .text._ZN4uart16interruptHandlerEv:0000000000000158 .L0 
     /tmp/ccXSC0G0.s:688    .text._ZN4uart16interruptHandlerEv:000000000000015c .L0 
     /tmp/ccXSC0G0.s:690    .text._ZN4uart16interruptHandlerEv:000000000000015e .L0 
     /tmp/ccXSC0G0.s:694    .text._ZN4uart16interruptHandlerEv:0000000000000168 .L0 
     /tmp/ccXSC0G0.s:695    .text._ZN4uart16interruptHandlerEv:0000000000000168 .L0 
     /tmp/ccXSC0G0.s:697    .text._ZN4uart16interruptHandlerEv:000000000000016c .L0 
     /tmp/ccXSC0G0.s:702    .text._ZN4uart16interruptHandlerEv:0000000000000170 .L0 
     /tmp/ccXSC0G0.s:703    .text._ZN4uart16interruptHandlerEv:0000000000000170 .L0 
     /tmp/ccXSC0G0.s:708    .text._ZN4uart16interruptHandlerEv:0000000000000174 .L0 
     /tmp/ccXSC0G0.s:716    .text._ZN4uart16interruptHandlerEv:000000000000017a .L0 
     /tmp/ccXSC0G0.s:718    .text._ZN4uart16interruptHandlerEv:000000000000017e .L0 
     /tmp/ccXSC0G0.s:726    .text._ZN4uart16interruptHandlerEv:0000000000000188 .L0 
     /tmp/ccXSC0G0.s:727    .text._ZN4uart16interruptHandlerEv:0000000000000188 .L0 
     /tmp/ccXSC0G0.s:731    .text._ZN4uart16interruptHandlerEv:0000000000000190 .L0 
     /tmp/ccXSC0G0.s:740    .text._ZN4uart16interruptHandlerEv:000000000000019e .L0 
     /tmp/ccXSC0G0.s:741    .text._ZN4uart16interruptHandlerEv:000000000000019e .L0 
     /tmp/ccXSC0G0.s:743    .text._ZN4uart16interruptHandlerEv:00000000000001a2 .L0 
     /tmp/ccXSC0G0.s:745    .text._ZN4uart16interruptHandlerEv:00000000000001a4 .L0 
     /tmp/ccXSC0G0.s:750    .text._ZN4uart16interruptHandlerEv:00000000000001ac .L0 
     /tmp/ccXSC0G0.s:752    .text._ZN4uart16interruptHandlerEv:00000000000001ae .L0 
     /tmp/ccXSC0G0.s:754    .text._ZN4uart16interruptHandlerEv:00000000000001b2 .L0 
     /tmp/ccXSC0G0.s:756    .text._ZN4uart16interruptHandlerEv:00000000000001b4 .L0 
     /tmp/ccXSC0G0.s:758    .text._ZN4uart16interruptHandlerEv:00000000000001b8 .L0 
     /tmp/ccXSC0G0.s:760    .text._ZN4uart16interruptHandlerEv:00000000000001ba .L0 
     /tmp/ccXSC0G0.s:762    .text._ZN4uart16interruptHandlerEv:00000000000001bc .L0 
     /tmp/ccXSC0G0.s:765    .text._ZN4uart16interruptHandlerEv:00000000000001c0 .L0 
     /tmp/ccXSC0G0.s:766    .text._ZN4uart16interruptHandlerEv:00000000000001c0 .L0 
     /tmp/ccXSC0G0.s:774    .text._ZN4uart16interruptHandlerEv:00000000000001c6 .L0 
     /tmp/ccXSC0G0.s:776    .text._ZN4uart16interruptHandlerEv:00000000000001cc .L0 
     /tmp/ccXSC0G0.s:2821   .debug_line_str:0000000000000034 .L0 
     /tmp/ccXSC0G0.s:2821   .debug_line_str:0000000000000056 .L0 
     /tmp/ccXSC0G0.s:2821   .debug_line_str:000000000000005f .L0 
     /tmp/ccXSC0G0.s:2821   .debug_line_str:0000000000000090 .L0 
     /tmp/ccXSC0G0.s:2821   .debug_line_str:00000000000000bd .L0 
     /tmp/ccXSC0G0.s:2821   .debug_line_str:00000000000000c6 .L0 
     /tmp/ccXSC0G0.s:2821   .debug_line_str:00000000000000cf .L0 
     /tmp/ccXSC0G0.s:2821   .debug_line_str:00000000000000d8 .L0 
     /tmp/ccXSC0G0.s:2821   .debug_line_str:00000000000000e9 .L0 
     /tmp/ccXSC0G0.s:2821   .debug_line_str:00000000000000f3 .L0 
     /tmp/ccXSC0G0.s:2821   .debug_line_str:00000000000000fe .L0 
     /tmp/ccXSC0G0.s:120    .text._ZN4uartC2EP13USART_TypeDefii9u_stopbit9u_wordlen:0000000000000078 .L0 
     /tmp/ccXSC0G0.s:233    .text._ZN4uart4sendEPhtPFvvEh:000000000000008e .L0 
     /tmp/ccXSC0G0.s:306    .text._ZN4uart5printEPKc:0000000000000042 .L0 
GAS LISTING /tmp/ccXSC0G0.s 			page 25


     /tmp/ccXSC0G0.s:336    .text._ZN4uart4syncEv:000000000000001c .L0 
     /tmp/ccXSC0G0.s:377    .text._ZN4uart9availableEv:000000000000002a .L0 
     /tmp/ccXSC0G0.s:433    .text._ZN4uart3getEv:000000000000003c .L0 
     /tmp/ccXSC0G0.s:779    .text._ZN4uart16interruptHandlerEv:00000000000001cc .L0 
     /tmp/ccXSC0G0.s:91     .text._ZN4uartC2EP13USART_TypeDefii9u_stopbit9u_wordlen:0000000000000066 .L2
     /tmp/ccXSC0G0.s:224    .text._ZN4uart4sendEPhtPFvvEh:000000000000008a .L9
     /tmp/ccXSC0G0.s:150    .text._ZN4uart4sendEPhtPFvvEh:0000000000000020 .L7
     /tmp/ccXSC0G0.s:227    .text._ZN4uart4sendEPhtPFvvEh:000000000000008c .L6
     /tmp/ccXSC0G0.s:209    .text._ZN4uart4sendEPhtPFvvEh:0000000000000076 .L8
     /tmp/ccXSC0G0.s:298    .text._ZN4uart5printEPKc:000000000000003e .L13
     /tmp/ccXSC0G0.s:270    .text._ZN4uart5printEPKc:0000000000000026 .L12
     /tmp/ccXSC0G0.s:318    .text._ZN4uart4syncEv:0000000000000004 .L16
     /tmp/ccXSC0G0.s:361    .text._ZN4uart9availableEv:000000000000001a .L22
     /tmp/ccXSC0G0.s:423    .text._ZN4uart3getEv:0000000000000038 .L28
     /tmp/ccXSC0G0.s:427    .text._ZN4uart3getEv:000000000000003a .L25
     /tmp/ccXSC0G0.s:464    .text._ZN4uart16interruptHandlerEv:000000000000001c .L31
     /tmp/ccXSC0G0.s:582    .text._ZN4uart16interruptHandlerEv:00000000000000d2 .L56
     /tmp/ccXSC0G0.s:568    .text._ZN4uart16interruptHandlerEv:00000000000000c8 .L39
     /tmp/ccXSC0G0.s:529    .text._ZN4uart16interruptHandlerEv:0000000000000088 .L42
     /tmp/ccXSC0G0.s:494    .text._ZN4uart16interruptHandlerEv:000000000000004c .L43
     /tmp/ccXSC0G0.s:711    .text._ZN4uart16interruptHandlerEv:000000000000017a .L57
     /tmp/ccXSC0G0.s:722    .text._ZN4uart16interruptHandlerEv:0000000000000188 .L58
     /tmp/ccXSC0G0.s:737    .text._ZN4uart16interruptHandlerEv:000000000000019e .L34
     /tmp/ccXSC0G0.s:684    .text._ZN4uart16interruptHandlerEv:0000000000000158 .L36
     /tmp/ccXSC0G0.s:769    .text._ZN4uart16interruptHandlerEv:00000000000001c6 .L59
     /tmp/ccXSC0G0.s:535    .text._ZN4uart16interruptHandlerEv:000000000000008e .L45
     /tmp/ccXSC0G0.s:639    .text._ZN4uart16interruptHandlerEv:000000000000011c .L35
     /tmp/ccXSC0G0.s:1457   .debug_abbrev:0000000000000000 .Ldebug_abbrev0
     /tmp/ccXSC0G0.s:2794   .debug_str:00000000000002ec .LASF68
     /tmp/ccXSC0G0.s:2819   .debug_line_str:0000000000000022 .LASF0
     /tmp/ccXSC0G0.s:2817   .debug_line_str:0000000000000000 .LASF1
     /tmp/ccXSC0G0.s:2643   .debug_rnglists:0000000000000028 .LLRL20
     /tmp/ccXSC0G0.s:2668   .debug_line:0000000000000000 .Ldebug_line0
     /tmp/ccXSC0G0.s:2714   .debug_str:000000000000015c .LASF2
     /tmp/ccXSC0G0.s:2688   .debug_str:00000000000000a3 .LASF3
     /tmp/ccXSC0G0.s:2672   .debug_str:0000000000000018 .LASF6
     /tmp/ccXSC0G0.s:2786   .debug_str:00000000000002be .LASF4
     /tmp/ccXSC0G0.s:2792   .debug_str:00000000000002e2 .LASF5
     /tmp/ccXSC0G0.s:2800   .debug_str:0000000000000380 .LASF7
     /tmp/ccXSC0G0.s:2732   .debug_str:00000000000001b3 .LASF8
     /tmp/ccXSC0G0.s:2694   .debug_str:00000000000000bd .LASF9
     /tmp/ccXSC0G0.s:2724   .debug_str:000000000000018a .LASF10
     /tmp/ccXSC0G0.s:2686   .debug_str:0000000000000095 .LASF11
     /tmp/ccXSC0G0.s:2678   .debug_str:000000000000003a .LASF12
     /tmp/ccXSC0G0.s:2810   .debug_str:00000000000003bb .LASF13
     /tmp/ccXSC0G0.s:2702   .debug_str:0000000000000103 .LASF14
     /tmp/ccXSC0G0.s:2808   .debug_str:00000000000003ab .LASF69
     /tmp/ccXSC0G0.s:2806   .debug_str:00000000000003a5 .LASF15
     /tmp/ccXSC0G0.s:2766   .debug_str:0000000000000258 .LASF16
     /tmp/ccXSC0G0.s:2760   .debug_str:000000000000023c .LASF17
     /tmp/ccXSC0G0.s:2768   .debug_str:0000000000000262 .LASF18
     /tmp/ccXSC0G0.s:2770   .debug_str:000000000000026c .LASF19
     /tmp/ccXSC0G0.s:2742   .debug_str:00000000000001eb .LASF20
     /tmp/ccXSC0G0.s:2772   .debug_str:0000000000000276 .LASF21
     /tmp/ccXSC0G0.s:2744   .debug_str:00000000000001f1 .LASF22
     /tmp/ccXSC0G0.s:2774   .debug_str:0000000000000280 .LASF23
     /tmp/ccXSC0G0.s:2746   .debug_str:00000000000001f7 .LASF24
GAS LISTING /tmp/ccXSC0G0.s 			page 26


     /tmp/ccXSC0G0.s:2776   .debug_str:000000000000028a .LASF25
     /tmp/ccXSC0G0.s:2778   .debug_str:0000000000000294 .LASF26
     /tmp/ccXSC0G0.s:2738   .debug_str:00000000000001d8 .LASF27
     /tmp/ccXSC0G0.s:2680   .debug_str:0000000000000051 .LASF70
     /tmp/ccXSC0G0.s:2748   .debug_str:00000000000001fd .LASF28
     /tmp/ccXSC0G0.s:2730   .debug_str:00000000000001ae .LASF29
     /tmp/ccXSC0G0.s:2736   .debug_str:00000000000001cf .LASF30
     /tmp/ccXSC0G0.s:2722   .debug_str:0000000000000180 .LASF35
     /tmp/ccXSC0G0.s:2698   .debug_str:00000000000000d9 .LASF31
     /tmp/ccXSC0G0.s:2752   .debug_str:0000000000000219 .LASF32
     /tmp/ccXSC0G0.s:2796   .debug_str:000000000000036e .LASF33
     /tmp/ccXSC0G0.s:2708   .debug_str:0000000000000143 .LASF34
     /tmp/ccXSC0G0.s:2726   .debug_str:000000000000019c .LASF36
     /tmp/ccXSC0G0.s:2788   .debug_str:00000000000002cc .LASF37
     /tmp/ccXSC0G0.s:2790   .debug_str:00000000000002d7 .LASF38
     /tmp/ccXSC0G0.s:2764   .debug_str:0000000000000253 .LASF50
     /tmp/ccXSC0G0.s:2802   .debug_str:000000000000038b .LASF39
     /tmp/ccXSC0G0.s:2758   .debug_str:0000000000000233 .LASF40
     /tmp/ccXSC0G0.s:2728   .debug_str:00000000000001a6 .LASF41
     /tmp/ccXSC0G0.s:2718   .debug_str:0000000000000171 .LASF42
     /tmp/ccXSC0G0.s:2716   .debug_str:0000000000000169 .LASF43
     /tmp/ccXSC0G0.s:2710   .debug_str:000000000000014e .LASF44
     /tmp/ccXSC0G0.s:2712   .debug_str:0000000000000156 .LASF45
     /tmp/ccXSC0G0.s:2706   .debug_str:0000000000000111 .LASF52
     /tmp/ccXSC0G0.s:2754   .debug_str:0000000000000224 .LASF46
     /tmp/ccXSC0G0.s:2670   .debug_str:0000000000000000 .LASF48
     /tmp/ccXSC0G0.s:2682   .debug_str:000000000000005d .LASF47
     /tmp/ccXSC0G0.s:2696   .debug_str:00000000000000c6 .LASF49
     /tmp/ccXSC0G0.s:2812   .debug_str:00000000000003c3 .LASF51
     /tmp/ccXSC0G0.s:2784   .debug_str:00000000000002ae .LASF53
     /tmp/ccXSC0G0.s:2782   .debug_str:00000000000002a4 .LASF54
     /tmp/ccXSC0G0.s:2750   .debug_str:0000000000000204 .LASF55
     /tmp/ccXSC0G0.s:2676   .debug_str:000000000000002b .LASF71
     /tmp/ccXSC0G0.s:2804   .debug_str:0000000000000394 .LASF72
     /tmp/ccXSC0G0.s:2700   .debug_str:00000000000000e6 .LASF73
     /tmp/ccXSC0G0.s:2740   .debug_str:00000000000001e6 .LASF56
     /tmp/ccXSC0G0.s:2798   .debug_str:000000000000037b .LASF57
     /tmp/ccXSC0G0.s:438    .text._ZN4uart16interruptHandlerEv:0000000000000000 .LFB23
     /tmp/ccXSC0G0.s:777    .text._ZN4uart16interruptHandlerEv:00000000000001cc .LFE23
     /tmp/ccXSC0G0.s:2704   .debug_str:000000000000010c .LASF58
     /tmp/ccXSC0G0.s:2158   .debug_loclists:000000000000000c .LLST17
     /tmp/ccXSC0G0.s:2632   .debug_rnglists:000000000000000c .LLRL18
     /tmp/ccXSC0G0.s:2205   .debug_loclists:0000000000000064 .LLST19
     /tmp/ccXSC0G0.s:382    .text._ZN4uart3getEv:0000000000000000 .LFB22
     /tmp/ccXSC0G0.s:431    .text._ZN4uart3getEv:000000000000003c .LFE22
     /tmp/ccXSC0G0.s:2235   .debug_loclists:000000000000009f .LLST15
     /tmp/ccXSC0G0.s:2257   .debug_loclists:00000000000000cc .LLST16
     /tmp/ccXSC0G0.s:341    .text._ZN4uart9availableEv:0000000000000000 .LFB21
     /tmp/ccXSC0G0.s:375    .text._ZN4uart9availableEv:000000000000002a .LFE21
     /tmp/ccXSC0G0.s:2264   .debug_loclists:00000000000000d8 .LLST14
     /tmp/ccXSC0G0.s:311    .text._ZN4uart4syncEv:0000000000000000 .LFB20
     /tmp/ccXSC0G0.s:334    .text._ZN4uart4syncEv:000000000000001c .LFE20
     /tmp/ccXSC0G0.s:238    .text._ZN4uart5printEPKc:0000000000000000 .LFB19
     /tmp/ccXSC0G0.s:304    .text._ZN4uart5printEPKc:0000000000000042 .LFE19
     /tmp/ccXSC0G0.s:2292   .debug_loclists:000000000000010b .LLST11
     /tmp/ccXSC0G0.s:2322   .debug_loclists:0000000000000146 .LLST12
     /tmp/ccXSC0G0.s:2352   .debug_loclists:0000000000000181 .LLST13
GAS LISTING /tmp/ccXSC0G0.s 			page 27


     /tmp/ccXSC0G0.s:265    .text._ZN4uart5printEPKc:000000000000001e .LVL20
     /tmp/ccXSC0G0.s:297    .text._ZN4uart5printEPKc:000000000000003e .LVL23
     /tmp/ccXSC0G0.s:125    .text._ZN4uart4sendEPhtPFvvEh:0000000000000000 .LFB18
     /tmp/ccXSC0G0.s:231    .text._ZN4uart4sendEPhtPFvvEh:000000000000008e .LFE18
     /tmp/ccXSC0G0.s:2366   .debug_loclists:000000000000019a .LLST6
     /tmp/ccXSC0G0.s:2391   .debug_loclists:00000000000001ca .LLST7
     /tmp/ccXSC0G0.s:2417   .debug_loclists:00000000000001fb .LLST8
     /tmp/ccXSC0G0.s:2443   .debug_loclists:000000000000022c .LLST9
     /tmp/ccXSC0G0.s:2692   .debug_str:00000000000000b8 .LASF59
     /tmp/ccXSC0G0.s:2469   .debug_loclists:000000000000025d .LLST10
     /tmp/ccXSC0G0.s:2756   .debug_str:0000000000000229 .LASF60
     /tmp/ccXSC0G0.s:2690   .debug_str:00000000000000af .LASF61
     /tmp/ccXSC0G0.s:2780   .debug_str:000000000000029e .LASF62
     /tmp/ccXSC0G0.s:2814   .debug_str:00000000000003c8 .LASF63
     /tmp/ccXSC0G0.s:2734   .debug_str:00000000000001c6 .LASF64
     /tmp/ccXSC0G0.s:2684   .debug_str:0000000000000063 .LASF74
     /tmp/ccXSC0G0.s:15     .text._ZN4uartC2EP13USART_TypeDefii9u_stopbit9u_wordlen:0000000000000000 .LFB16
     /tmp/ccXSC0G0.s:116    .text._ZN4uartC2EP13USART_TypeDefii9u_stopbit9u_wordlen:0000000000000078 .LFE16
     /tmp/ccXSC0G0.s:2495   .debug_loclists:000000000000028e .LLST0
     /tmp/ccXSC0G0.s:2510   .debug_loclists:00000000000002a8 .LLST1
     /tmp/ccXSC0G0.s:2530   .debug_loclists:00000000000002cd .LLST2
     /tmp/ccXSC0G0.s:2545   .debug_loclists:00000000000002e7 .LLST3
     /tmp/ccXSC0G0.s:2560   .debug_loclists:0000000000000301 .LLST4
     /tmp/ccXSC0G0.s:2580   .debug_loclists:0000000000000326 .LLST5
     /tmp/ccXSC0G0.s:55     .text._ZN4uartC2EP13USART_TypeDefii9u_stopbit9u_wordlen:000000000000002e .LVL3
     /tmp/ccXSC0G0.s:2720   .debug_str:0000000000000179 .LASF65
     /tmp/ccXSC0G0.s:2762   .debug_str:0000000000000242 .LASF67
     /tmp/ccXSC0G0.s:2674   .debug_str:0000000000000022 .LASF66
     /tmp/ccXSC0G0.s:441    .text._ZN4uart16interruptHandlerEv:0000000000000000 .LVL33
     /tmp/ccXSC0G0.s:463    .text._ZN4uart16interruptHandlerEv:000000000000001c .LVL34
     /tmp/ccXSC0G0.s:581    .text._ZN4uart16interruptHandlerEv:00000000000000d2 .LVL35
     /tmp/ccXSC0G0.s:681    .text._ZN4uart16interruptHandlerEv:0000000000000156 .LVL41
     /tmp/ccXSC0G0.s:683    .text._ZN4uart16interruptHandlerEv:0000000000000158 .LVL42
     /tmp/ccXSC0G0.s:721    .text._ZN4uart16interruptHandlerEv:0000000000000188 .LVL44
     /tmp/ccXSC0G0.s:768    .text._ZN4uart16interruptHandlerEv:00000000000001c6 .LVL47
     /tmp/ccXSC0G0.s:595    .text._ZN4uart16interruptHandlerEv:00000000000000de .LVL36
     /tmp/ccXSC0G0.s:634    .text._ZN4uart16interruptHandlerEv:0000000000000118 .LVL37
     /tmp/ccXSC0G0.s:646    .text._ZN4uart16interruptHandlerEv:0000000000000124 .LVL39
     /tmp/ccXSC0G0.s:664    .text._ZN4uart16interruptHandlerEv:0000000000000140 .LVL40
     /tmp/ccXSC0G0.s:736    .text._ZN4uart16interruptHandlerEv:000000000000019e .LVL45
     /tmp/ccXSC0G0.s:763    .text._ZN4uart16interruptHandlerEv:00000000000001c0 .LVL46
     /tmp/ccXSC0G0.s:385    .text._ZN4uart3getEv:0000000000000000 .LVL29
     /tmp/ccXSC0G0.s:409    .text._ZN4uart3getEv:0000000000000026 .LVL30
     /tmp/ccXSC0G0.s:422    .text._ZN4uart3getEv:0000000000000038 .LVL31
     /tmp/ccXSC0G0.s:426    .text._ZN4uart3getEv:000000000000003a .LVL32
     /tmp/ccXSC0G0.s:344    .text._ZN4uart9availableEv:0000000000000000 .LVL25
     /tmp/ccXSC0G0.s:358    .text._ZN4uart9availableEv:0000000000000018 .LVL26
     /tmp/ccXSC0G0.s:360    .text._ZN4uart9availableEv:000000000000001a .LVL27
     /tmp/ccXSC0G0.s:367    .text._ZN4uart9availableEv:0000000000000022 .LVL28
     /tmp/ccXSC0G0.s:241    .text._ZN4uart5printEPKc:0000000000000000 .LVL18
     /tmp/ccXSC0G0.s:263    .text._ZN4uart5printEPKc:0000000000000016 .LVL19
     /tmp/ccXSC0G0.s:286    .text._ZN4uart5printEPKc:0000000000000030 .LVL22
     /tmp/ccXSC0G0.s:278    .text._ZN4uart5printEPKc:000000000000002a .LVL21
     /tmp/ccXSC0G0.s:128    .text._ZN4uart4sendEPhtPFvvEh:0000000000000000 .LVL7
     /tmp/ccXSC0G0.s:134    .text._ZN4uart4sendEPhtPFvvEh:0000000000000006 .LVL8
     /tmp/ccXSC0G0.s:216    .text._ZN4uart4sendEPhtPFvvEh:0000000000000080 .LVL16
     /tmp/ccXSC0G0.s:223    .text._ZN4uart4sendEPhtPFvvEh:000000000000008a .LVL17
GAS LISTING /tmp/ccXSC0G0.s 			page 28


     /tmp/ccXSC0G0.s:163    .text._ZN4uart4sendEPhtPFvvEh:0000000000000032 .LVL9
     /tmp/ccXSC0G0.s:192    .text._ZN4uart4sendEPhtPFvvEh:000000000000005c .LVL13
     /tmp/ccXSC0G0.s:171    .text._ZN4uart4sendEPhtPFvvEh:000000000000003e .LVL10
     /tmp/ccXSC0G0.s:176    .text._ZN4uart4sendEPhtPFvvEh:0000000000000046 .LVL11
     /tmp/ccXSC0G0.s:187    .text._ZN4uart4sendEPhtPFvvEh:0000000000000054 .LVL12
     /tmp/ccXSC0G0.s:195    .text._ZN4uart4sendEPhtPFvvEh:0000000000000060 .LVL14
     /tmp/ccXSC0G0.s:200    .text._ZN4uart4sendEPhtPFvvEh:000000000000006a .LVL15
     /tmp/ccXSC0G0.s:19     .text._ZN4uartC2EP13USART_TypeDefii9u_stopbit9u_wordlen:0000000000000000 .LVL0
     /tmp/ccXSC0G0.s:47     .text._ZN4uartC2EP13USART_TypeDefii9u_stopbit9u_wordlen:0000000000000022 .LVL2
     /tmp/ccXSC0G0.s:45     .text._ZN4uartC2EP13USART_TypeDefii9u_stopbit9u_wordlen:0000000000000020 .LVL1
     /tmp/ccXSC0G0.s:107    .text._ZN4uartC2EP13USART_TypeDefii9u_stopbit9u_wordlen:0000000000000072 .LVL4
     /tmp/ccXSC0G0.s:110    .text._ZN4uartC2EP13USART_TypeDefii9u_stopbit9u_wordlen:0000000000000074 .LVL5
     /tmp/ccXSC0G0.s:113    .text._ZN4uartC2EP13USART_TypeDefii9u_stopbit9u_wordlen:0000000000000076 .LVL6
     /tmp/ccXSC0G0.s:786    .debug_info:0000000000000000 .Ldebug_info0
     /tmp/ccXSC0G0.s:593    .text._ZN4uart16interruptHandlerEv:00000000000000de .LBB8
     /tmp/ccXSC0G0.s:699    .text._ZN4uart16interruptHandlerEv:0000000000000170 .LBE8
     /tmp/ccXSC0G0.s:706    .text._ZN4uart16interruptHandlerEv:0000000000000174 .LBB9
     /tmp/ccXSC0G0.s:712    .text._ZN4uart16interruptHandlerEv:000000000000017a .LBE9
     /tmp/ccXSC0G0.s:738    .text._ZN4uart16interruptHandlerEv:000000000000019e .LBB10
     /tmp/ccXSC0G0.s:770    .text._ZN4uart16interruptHandlerEv:00000000000001c6 .LBE10

UNDEFINED SYMBOLS
__divsi3
strlen
