GAS LISTING /tmp/ccROyhCL.s 			page 1


   1              		.file	"uart.cpp"
   2              		.option nopic
   3              		.attribute arch, "rv32e1p9_c2p0_zicsr"
   4              		.attribute unaligned_access, 0
   5              		.attribute stack_align, 4
   6              		.text
   7              	.Ltext0:
   8              		.file 0 "/home/ignat/projects/AutoWatering" "src/uart/uart.cpp"
   9              		.globl	__divsi3
  10              		.section	.text._ZN4uartC2EP13USART_TypeDefii9u_stopbit9u_wordlen,"ax",@progbits
  11              		.align	1
  12              		.globl	_ZN4uartC2EP13USART_TypeDefii9u_stopbit9u_wordlen
  14              	_ZN4uartC2EP13USART_TypeDefii9u_stopbit9u_wordlen:
  15              	.LFB16:
  16              		.file 1 "src/uart/uart.cpp"
   1:src/uart/uart.cpp **** #include "uart.h"
   2:src/uart/uart.cpp **** 
   3:src/uart/uart.cpp **** uart::uart(USART_TypeDef* cur_usart, int baudrate, int f_clk, u_stopbit mode_stopBit, 
  17              		.loc 1 3 1
  18              		.cfi_startproc
  19              	.LVL0:
  20 0000 4111     		addi	sp,sp,-16
  21              		.cfi_def_cfa_offset 16
  22 0002 22C4     		sw	s0,8(sp)
  23 0004 26C2     		sw	s1,4(sp)
  24 0006 06C6     		sw	ra,12(sp)
  25              		.cfi_offset 8, -8
  26              		.cfi_offset 9, -12
  27              		.cfi_offset 1, -4
  28              	.LBB2:
   4:src/uart/uart.cpp ****     u_wordlen word_len)
  29              		.loc 1 4 23 is_stmt 0
  30 0008 2309050C 		sb	zero,210(a0)
  31 000c A309050C 		sb	zero,211(a0)
  32 0010 230A050C 		sb	zero,212(a0)
  33              	.LBE2:
   3:src/uart/uart.cpp ****     u_wordlen word_len)
  34              		.loc 1 3 1
  35 0014 2E84     		mv	s0,a1
  36              	.LBB3:
   5:src/uart/uart.cpp **** {
   6:src/uart/uart.cpp ****     usart = cur_usart;
  37              		.loc 1 6 11
  38 0016 232CB50C 		sw	a1,216(a0)
   4:src/uart/uart.cpp **** {
  39              		.loc 1 4 23
  40 001a A30A050C 		sb	zero,213(a0)
  41              		.loc 1 6 5 is_stmt 1
   7:src/uart/uart.cpp **** 
   8:src/uart/uart.cpp ****     usart->BRR = (uint16_t)(f_clk/baudrate);
  42              		.loc 1 8 5
  43              		.loc 1 8 34 is_stmt 0
  44 001e B285     		mv	a1,a2
  45              	.LVL1:
  46 0020 3685     		mv	a0,a3
  47              	.LVL2:
  48              	.LBE3:
GAS LISTING /tmp/ccROyhCL.s 			page 2


   3:src/uart/uart.cpp ****     u_wordlen word_len)
  49              		.loc 1 3 1
  50 0022 BA84     		mv	s1,a4
  51 0024 3EC0     		sw	a5,0(sp)
  52              	.LBB4:
  53              		.loc 1 8 34
  54 0026 97000000 		call	__divsi3
  54      E7800000 
  55              	.LVL3:
  56              		.loc 1 8 16
  57 002e 4205     		slli	a0,a0,16
  58 0030 4181     		srli	a0,a0,16
   9:src/uart/uart.cpp ****     usart->CTLR1 = USART_CTLR1_UE | USART_CTLR1_RE | USART_CTLR1_TE | USART_CTLR1_RXNEIE;
  59              		.loc 1 9 18
  60 0032 0967     		li	a4,8192
   8:src/uart/uart.cpp ****     usart->CTLR1 = USART_CTLR1_UE | USART_CTLR1_RE | USART_CTLR1_TE | USART_CTLR1_RXNEIE;
  61              		.loc 1 8 16
  62 0034 2314A400 		sh	a0,8(s0)
  63              		.loc 1 9 5 is_stmt 1
  64              		.loc 1 9 18 is_stmt 0
  65 0038 1307C702 		addi	a4,a4,44
  66 003c 2316E400 		sh	a4,12(s0)
  10:src/uart/uart.cpp **** 
  11:src/uart/uart.cpp ****     usart->CTLR2 |= mode_stopBit << 12;
  67              		.loc 1 11 5 is_stmt 1
  68              		.loc 1 11 12 is_stmt 0
  69 0040 83560401 		lhu	a3,16(s0)
  70              		.loc 1 11 34
  71 0044 1397C400 		slli	a4,s1,12
  12:src/uart/uart.cpp ****     if(word_len == word_len_9)
  72              		.loc 1 12 5
  73 0048 8247     		lw	a5,0(sp)
  11:src/uart/uart.cpp ****     if(word_len == word_len_9)
  74              		.loc 1 11 18
  75 004a 558F     		or	a4,a3,a4
  76 004c 4207     		slli	a4,a4,16
  77 004e 4183     		srli	a4,a4,16
  78              		.loc 1 12 5
  79 0050 0546     		li	a2,1
  11:src/uart/uart.cpp ****     if(word_len == word_len_9)
  80              		.loc 1 11 18
  81 0052 2318E400 		sh	a4,16(s0)
  82              		.loc 1 12 5 is_stmt 1
  83 0056 6398C700 		bne	a5,a2,.L2
  13:src/uart/uart.cpp ****         usart->CTLR1 |= USART_CTLR1_M;
  84              		.loc 1 13 9
  85              		.loc 1 13 16 is_stmt 0
  86 005a 8357C400 		lhu	a5,12(s0)
  87              		.loc 1 13 22
  88 005e 0567     		li	a4,4096
  89 0060 D98F     		or	a5,a5,a4
  90 0062 2316F400 		sh	a5,12(s0)
  91              	.L2:
  14:src/uart/uart.cpp **** 
  15:src/uart/uart.cpp ****     usart->CTLR3 = 0;
  92              		.loc 1 15 5 is_stmt 1
  93              		.loc 1 15 18 is_stmt 0
GAS LISTING /tmp/ccROyhCL.s 			page 3


  94 0066 231A0400 		sh	zero,20(s0)
  16:src/uart/uart.cpp ****     usart->STATR = 0;
  95              		.loc 1 16 5 is_stmt 1
  96              	.LBE4:
  17:src/uart/uart.cpp **** }
  97              		.loc 1 17 1 is_stmt 0
  98 006a B240     		lw	ra,12(sp)
  99              		.cfi_restore 1
 100              	.LBB5:
  16:src/uart/uart.cpp ****     usart->STATR = 0;
 101              		.loc 1 16 18
 102 006c 23100400 		sh	zero,0(s0)
 103              	.LBE5:
 104              		.loc 1 17 1
 105 0070 2244     		lw	s0,8(sp)
 106              		.cfi_restore 8
 107              	.LVL4:
 108 0072 9244     		lw	s1,4(sp)
 109              		.cfi_restore 9
 110              	.LVL5:
 111 0074 4101     		addi	sp,sp,16
 112              		.cfi_def_cfa_offset 0
 113              	.LVL6:
 114 0076 8280     		jr	ra
 115              		.cfi_endproc
 116              	.LFE16:
 118              		.globl	_ZN4uartC1EP13USART_TypeDefii9u_stopbit9u_wordlen
 119              		.set	_ZN4uartC1EP13USART_TypeDefii9u_stopbit9u_wordlen,_ZN4uartC2EP13USART_TypeDefii9u_stopbit9u_w
 120              		.section	.text._ZN4uart4sendEPhtPFvvEh,"ax",@progbits
 121              		.align	1
 122              		.globl	_ZN4uart4sendEPhtPFvvEh
 124              	_ZN4uart4sendEPhtPFvvEh:
 125              	.LFB18:
  18:src/uart/uart.cpp ****     
  19:src/uart/uart.cpp **** bool uart::send(uint8_t *data, uint16_t len, void (*callback)(void), uint8_t conf)
  20:src/uart/uart.cpp **** {
 126              		.loc 1 20 1 is_stmt 1
 127              		.cfi_startproc
 128              	.LVL7:
  21:src/uart/uart.cpp ****     //buffer is owerflow
  22:src/uart/uart.cpp ****     if((tx_posE + 1 == tx_posS) || (tx_posS == 0 && tx_posE == BUF_TX_LEN - 1))
 129              		.loc 1 22 5
  20:src/uart/uart.cpp ****     //buffer is owerflow
 130              		.loc 1 20 1 is_stmt 0
 131 0000 AA87     		mv	a5,a0
 132              		.loc 1 22 9
 133 0002 0345350D 		lbu	a0,211(a0)
 134              	.LVL8:
 135              		.loc 1 22 24
 136 0006 03C3270D 		lbu	t1,210(a5)
 137              		.loc 1 22 17
 138 000a 0505     		addi	a0,a0,1
 139              		.loc 1 22 33
 140 000c 630F6506 		beq	a0,t1,.L9
 141              		.loc 1 22 37 discriminator 2
 142 0010 03C5270D 		lbu	a0,210(a5)
 143              		.loc 1 22 33 discriminator 2
GAS LISTING /tmp/ccROyhCL.s 			page 4


 144 0014 11E5     		bne	a0,zero,.L7
 145              		.loc 1 22 53 discriminator 3
 146 0016 83C2370D 		lbu	t0,211(a5)
 147              		.loc 1 22 50 discriminator 3
 148 001a 2543     		li	t1,9
 149 001c 63886206 		beq	t0,t1,.L6
 150              	.L7:
  23:src/uart/uart.cpp ****         return false;
  24:src/uart/uart.cpp ****     bufferTX[tx_posE].data = data;
 151              		.loc 1 24 5 is_stmt 1
 152              		.loc 1 24 14 is_stmt 0
 153 0020 03C3370D 		lbu	t1,211(a5)
  25:src/uart/uart.cpp ****     bufferTX[tx_posE].len = len;
  26:src/uart/uart.cpp ****     bufferTX[tx_posE].cnt = 0;
  27:src/uart/uart.cpp ****     bufferTX[tx_posE].callback = callback;
  28:src/uart/uart.cpp ****     bufferTX[tx_posE].conf_l = conf;
  29:src/uart/uart.cpp ****     tx_posE ++;
  30:src/uart/uart.cpp ****     if(tx_posE >= BUF_TX_LEN)
 154              		.loc 1 30 5
 155 0024 2545     		li	a0,9
  24:src/uart/uart.cpp ****     bufferTX[tx_posE].len = len;
 156              		.loc 1 24 28
 157 0026 1203     		slli	t1,t1,4
 158 0028 3E93     		add	t1,a5,t1
 159 002a 2322B300 		sw	a1,4(t1)
  25:src/uart/uart.cpp ****     bufferTX[tx_posE].len = len;
 160              		.loc 1 25 5 is_stmt 1
  25:src/uart/uart.cpp ****     bufferTX[tx_posE].len = len;
 161              		.loc 1 25 14 is_stmt 0
 162 002e 83C5370D 		lbu	a1,211(a5)
 163              	.LVL9:
  25:src/uart/uart.cpp ****     bufferTX[tx_posE].len = len;
 164              		.loc 1 25 27
 165 0032 9205     		slli	a1,a1,4
 166 0034 BE95     		add	a1,a5,a1
 167 0036 2394C500 		sh	a2,8(a1)
  26:src/uart/uart.cpp ****     bufferTX[tx_posE].callback = callback;
 168              		.loc 1 26 5 is_stmt 1
  26:src/uart/uart.cpp ****     bufferTX[tx_posE].callback = callback;
 169              		.loc 1 26 14 is_stmt 0
 170 003a 03C6370D 		lbu	a2,211(a5)
 171              	.LVL10:
  26:src/uart/uart.cpp ****     bufferTX[tx_posE].callback = callback;
 172              		.loc 1 26 27
 173 003e 1206     		slli	a2,a2,4
 174 0040 3E96     		add	a2,a5,a2
 175 0042 23150600 		sh	zero,10(a2)
 176              	.LVL11:
  27:src/uart/uart.cpp ****     bufferTX[tx_posE].conf_l = conf;
 177              		.loc 1 27 5 is_stmt 1
  27:src/uart/uart.cpp ****     bufferTX[tx_posE].conf_l = conf;
 178              		.loc 1 27 14 is_stmt 0
 179 0046 03C6370D 		lbu	a2,211(a5)
  27:src/uart/uart.cpp ****     bufferTX[tx_posE].conf_l = conf;
 180              		.loc 1 27 32
 181 004a 1206     		slli	a2,a2,4
 182 004c 3E96     		add	a2,a5,a2
GAS LISTING /tmp/ccROyhCL.s 			page 5


 183 004e 54C6     		sw	a3,12(a2)
  28:src/uart/uart.cpp ****     tx_posE ++;
 184              		.loc 1 28 5 is_stmt 1
  28:src/uart/uart.cpp ****     tx_posE ++;
 185              		.loc 1 28 14 is_stmt 0
 186 0050 83C6370D 		lbu	a3,211(a5)
 187              	.LVL12:
  28:src/uart/uart.cpp ****     tx_posE ++;
 188              		.loc 1 28 30
 189 0054 9206     		slli	a3,a3,4
 190 0056 BE96     		add	a3,a5,a3
 191 0058 2380E600 		sb	a4,0(a3)
 192              	.LVL13:
  29:src/uart/uart.cpp ****     if(tx_posE >= BUF_TX_LEN)
 193              		.loc 1 29 5 is_stmt 1
 194 005c 03C7370D 		lbu	a4,211(a5)
 195              	.LVL14:
  29:src/uart/uart.cpp ****     if(tx_posE >= BUF_TX_LEN)
 196              		.loc 1 29 13 is_stmt 0
 197 0060 0507     		addi	a4,a4,1
 198 0062 1377F70F 		andi	a4,a4,0xff
 199 0066 A389E70C 		sb	a4,211(a5)
 200              	.LVL15:
 201              		.loc 1 30 5 is_stmt 1
 202              		.loc 1 30 8 is_stmt 0
 203 006a 03C7370D 		lbu	a4,211(a5)
 204              		.loc 1 30 5
 205 006e 6374E500 		bleu	a4,a0,.L8
  31:src/uart/uart.cpp ****         tx_posE = 0;
 206              		.loc 1 31 9 is_stmt 1
 207              		.loc 1 31 17 is_stmt 0
 208 0072 A389070C 		sb	zero,211(a5)
 209              	.L8:
  32:src/uart/uart.cpp ****     usart->CTLR1 |= USART_CTLR1_TXEIE;
 210              		.loc 1 32 5 is_stmt 1
 211 0076 03A7870D 		lw	a4,216(a5)
  33:src/uart/uart.cpp ****     return true;
 212              		.loc 1 33 12 is_stmt 0
 213 007a 0545     		li	a0,1
  32:src/uart/uart.cpp ****     usart->CTLR1 |= USART_CTLR1_TXEIE;
 214              		.loc 1 32 12
 215 007c 8357C700 		lhu	a5,12(a4)
 216              	.LVL16:
  32:src/uart/uart.cpp ****     usart->CTLR1 |= USART_CTLR1_TXEIE;
 217              		.loc 1 32 18
 218 0080 93E70708 		ori	a5,a5,128
 219 0084 2316F700 		sh	a5,12(a4)
 220              		.loc 1 33 5 is_stmt 1
 221              		.loc 1 33 12 is_stmt 0
 222 0088 8280     		ret
 223              	.LVL17:
 224              	.L9:
  23:src/uart/uart.cpp ****     bufferTX[tx_posE].data = data;
 225              		.loc 1 23 16
 226 008a 0145     		li	a0,0
 227              	.L6:
  34:src/uart/uart.cpp **** }
GAS LISTING /tmp/ccROyhCL.s 			page 6


 228              		.loc 1 34 1
 229 008c 8280     		ret
 230              		.cfi_endproc
 231              	.LFE18:
 233              		.section	.text._ZN4uart5printEPKc,"ax",@progbits
 234              		.align	1
 235              		.globl	_ZN4uart5printEPKc
 237              	_ZN4uart5printEPKc:
 238              	.LFB19:
  35:src/uart/uart.cpp **** bool uart::print(const char* str)
  36:src/uart/uart.cpp **** {
 239              		.loc 1 36 1 is_stmt 1
 240              		.cfi_startproc
 241              	.LVL18:
  37:src/uart/uart.cpp ****     int cnt = 0;
 242              		.loc 1 37 5
  38:src/uart/uart.cpp ****     while(str[cnt] != 0) {
 243              		.loc 1 38 5
 244              		.loc 1 38 20
  36:src/uart/uart.cpp ****     int cnt = 0;
 245              		.loc 1 36 1 is_stmt 0
 246 0000 5111     		addi	sp,sp,-12
 247              		.cfi_def_cfa_offset 12
 248 0002 22C2     		sw	s0,4(sp)
 249 0004 26C0     		sw	s1,0(sp)
 250 0006 06C4     		sw	ra,8(sp)
 251              		.cfi_offset 8, -8
 252              		.cfi_offset 9, -12
 253              		.cfi_offset 1, -4
 254              		.loc 1 38 20
 255 0008 83C70500 		lbu	a5,0(a1)
  36:src/uart/uart.cpp ****     int cnt = 0;
 256              		.loc 1 36 1
 257 000c 2E84     		mv	s0,a1
 258 000e AA84     		mv	s1,a0
 259              		.loc 1 38 20
 260 0010 9DC7     		beq	a5,zero,.L13
 261              		.loc 1 38 18
 262 0012 13851500 		addi	a0,a1,1
 263              	.LVL19:
 264 0016 97000000 		call	strlen
 264      E7800000 
 265              	.LVL20:
  39:src/uart/uart.cpp ****         cnt ++;
  40:src/uart/uart.cpp ****     }
  41:src/uart/uart.cpp ****     return send((uint8_t*)str, cnt);
 266              		.loc 1 41 16
 267 001e 13061500 		addi	a2,a0,1
 268 0022 4206     		slli	a2,a2,16
 269 0024 4182     		srli	a2,a2,16
 270              	.L12:
 271              		.loc 1 41 5 is_stmt 1
 272              		.loc 1 41 16 is_stmt 0
 273 0026 A285     		mv	a1,s0
  42:src/uart/uart.cpp **** }
 274              		.loc 1 42 1
 275 0028 1244     		lw	s0,4(sp)
GAS LISTING /tmp/ccROyhCL.s 			page 7


 276              		.cfi_remember_state
 277              		.cfi_restore 8
 278              	.LVL21:
 279 002a A240     		lw	ra,8(sp)
 280              		.cfi_restore 1
  41:src/uart/uart.cpp **** }
 281              		.loc 1 41 16
 282 002c 2685     		mv	a0,s1
 283              		.loc 1 42 1
 284 002e 8244     		lw	s1,0(sp)
 285              		.cfi_restore 9
 286              	.LVL22:
  41:src/uart/uart.cpp **** }
 287              		.loc 1 41 16
 288 0030 0147     		li	a4,0
 289              		.loc 1 42 1
  41:src/uart/uart.cpp **** }
 290              		.loc 1 41 16
 291 0032 8146     		li	a3,0
 292              		.loc 1 42 1
 293 0034 3101     		addi	sp,sp,12
 294              		.cfi_def_cfa_offset 0
  41:src/uart/uart.cpp **** }
 295              		.loc 1 41 16
 296 0036 17030000 		tail	_ZN4uart4sendEPhtPFvvEh
 296      67000300 
 297              	.LVL23:
 298              	.L13:
 299              		.cfi_restore_state
  38:src/uart/uart.cpp ****         cnt ++;
 300              		.loc 1 38 20
 301 003e 0146     		li	a2,0
 302 0040 DDB7     		j	.L12
 303              		.cfi_endproc
 304              	.LFE19:
 306              		.section	.text._ZN4uart4syncEv,"ax",@progbits
 307              		.align	1
 308              		.globl	_ZN4uart4syncEv
 310              	_ZN4uart4syncEv:
 311              	.LFB20:
  43:src/uart/uart.cpp **** 
  44:src/uart/uart.cpp **** 
  45:src/uart/uart.cpp **** void uart::sync(void)
  46:src/uart/uart.cpp **** {
 312              		.loc 1 46 1 is_stmt 1
 313              		.cfi_startproc
 314              	.LVL24:
  47:src/uart/uart.cpp ****     while(tx_posS != tx_posE) {
 315              		.loc 1 47 5
 316 0000 01A8     		j	.L16
 317              	.L18:
  48:src/uart/uart.cpp ****         if(!(usart->CTLR1 & USART_CTLR1_TXEIE))
 318              		.loc 1 48 14 is_stmt 0
 319 0002 8327850D 		lw	a5,216(a0)
 320              		.loc 1 48 21
 321 0006 83D7C700 		lhu	a5,12(a5)
 322              		.loc 1 48 9
GAS LISTING /tmp/ccROyhCL.s 			page 8


 323 000a 93F70708 		andi	a5,a5,128
 324 000e 99C7     		beq	a5,zero,.L15
 325              	.L16:
 326              		.loc 1 48 9 is_stmt 1
  47:src/uart/uart.cpp ****     while(tx_posS != tx_posE) {
 327              		.loc 1 47 19
  47:src/uart/uart.cpp ****     while(tx_posS != tx_posE) {
 328              		.loc 1 47 11 is_stmt 0
 329 0010 0347250D 		lbu	a4,210(a0)
  47:src/uart/uart.cpp ****     while(tx_posS != tx_posE) {
 330              		.loc 1 47 22
 331 0014 8347350D 		lbu	a5,211(a0)
  47:src/uart/uart.cpp ****     while(tx_posS != tx_posE) {
 332              		.loc 1 47 19
 333 0018 E315F7FE 		bne	a4,a5,.L18
 334              	.L15:
  49:src/uart/uart.cpp ****             return;
  50:src/uart/uart.cpp ****     }
  51:src/uart/uart.cpp ****     return;
  52:src/uart/uart.cpp **** }
 335              		.loc 1 52 1
 336 001c 8280     		ret
 337              		.cfi_endproc
 338              	.LFE20:
 340              		.section	.text._ZN4uart9availableEv,"ax",@progbits
 341              		.align	1
 342              		.globl	_ZN4uart9availableEv
 344              	_ZN4uart9availableEv:
 345              	.LFB21:
  53:src/uart/uart.cpp ****     
  54:src/uart/uart.cpp **** int uart::available(void)
  55:src/uart/uart.cpp **** {
 346              		.loc 1 55 1 is_stmt 1
 347              		.cfi_startproc
 348              	.LVL25:
  56:src/uart/uart.cpp ****     if(rx_posS <= rx_posE)
 349              		.loc 1 56 5
 350              		.loc 1 56 8 is_stmt 0
 351 0000 0347450D 		lbu	a4,212(a0)
 352              		.loc 1 56 19
 353 0004 8347550D 		lbu	a5,213(a0)
 354              		.loc 1 56 5
 355 0008 63E9E700 		bgtu	a4,a5,.L23
  57:src/uart/uart.cpp ****         return rx_posE - rx_posS;
 356              		.loc 1 57 9 is_stmt 1
 357              		.loc 1 57 16 is_stmt 0
 358 000c 8347550D 		lbu	a5,213(a0)
 359              		.loc 1 57 26
 360 0010 0347450D 		lbu	a4,212(a0)
 361 0014 3385E740 		sub	a0,a5,a4
 362              	.LVL26:
 363 0018 8280     		ret
 364              	.LVL27:
 365              	.L23:
  58:src/uart/uart.cpp ****     return BUF_RX_LEN - rx_posS + rx_posE;
 366              		.loc 1 58 5 is_stmt 1
 367              		.loc 1 58 25 is_stmt 0
GAS LISTING /tmp/ccROyhCL.s 			page 9


 368 001a 8347450D 		lbu	a5,212(a0)
 369              		.loc 1 58 35
 370 001e 0345550D 		lbu	a0,213(a0)
 371              	.LVL28:
 372              		.loc 1 58 23
 373 0022 1D8D     		sub	a0,a0,a5
 374              		.loc 1 58 35
 375 0024 13052503 		addi	a0,a0,50
  59:src/uart/uart.cpp **** }
 376              		.loc 1 59 1
 377 0028 8280     		ret
 378              		.cfi_endproc
 379              	.LFE21:
 381              		.section	.text._ZN4uart3getEv,"ax",@progbits
 382              		.align	1
 383              		.globl	_ZN4uart3getEv
 385              	_ZN4uart3getEv:
 386              	.LFB22:
  60:src/uart/uart.cpp **** uint8_t uart::get(void)
  61:src/uart/uart.cpp **** {
 387              		.loc 1 61 1 is_stmt 1
 388              		.cfi_startproc
 389              	.LVL29:
  62:src/uart/uart.cpp ****     //buffer is empty
  63:src/uart/uart.cpp ****     if(rx_posS == rx_posE)
 390              		.loc 1 63 5
 391              		.loc 1 63 8 is_stmt 0
 392 0000 8346450D 		lbu	a3,212(a0)
 393              		.loc 1 63 19
 394 0004 0347550D 		lbu	a4,213(a0)
  61:src/uart/uart.cpp ****     //buffer is empty
 395              		.loc 1 61 1
 396 0008 AA87     		mv	a5,a0
 397              		.loc 1 63 5
 398 000a 6387E602 		beq	a3,a4,.L29
  64:src/uart/uart.cpp ****         return 0;
  65:src/uart/uart.cpp ****     uint8_t val = bufferRX[rx_posS];
 399              		.loc 1 65 5 is_stmt 1
 400              		.loc 1 65 28 is_stmt 0
 401 000e 8346450D 		lbu	a3,212(a0)
  66:src/uart/uart.cpp ****     rx_posS ++;
 402              		.loc 1 66 5
 403 0012 0347450D 		lbu	a4,212(a0)
  67:src/uart/uart.cpp ****     if(rx_posS >= BUF_RX_LEN)
 404              		.loc 1 67 5
 405 0016 13061003 		li	a2,49
  65:src/uart/uart.cpp ****     rx_posS ++;
 406              		.loc 1 65 35
 407 001a AA96     		add	a3,a0,a3
  66:src/uart/uart.cpp ****     rx_posS ++;
 408              		.loc 1 66 13
 409 001c 0507     		addi	a4,a4,1
 410 001e 1377F70F 		andi	a4,a4,0xff
  65:src/uart/uart.cpp ****     rx_posS ++;
 411              		.loc 1 65 35
 412 0022 03C5060A 		lbu	a0,160(a3)
 413              	.LVL30:
GAS LISTING /tmp/ccROyhCL.s 			page 10


  66:src/uart/uart.cpp ****     rx_posS ++;
 414              		.loc 1 66 5 is_stmt 1
  66:src/uart/uart.cpp ****     rx_posS ++;
 415              		.loc 1 66 13 is_stmt 0
 416 0026 238AE70C 		sb	a4,212(a5)
 417              		.loc 1 67 5 is_stmt 1
 418              		.loc 1 67 8 is_stmt 0
 419 002a 03C7470D 		lbu	a4,212(a5)
 420              		.loc 1 67 5
 421 002e 6376E600 		bleu	a4,a2,.L26
  68:src/uart/uart.cpp ****         rx_posS = 0;
 422              		.loc 1 68 9 is_stmt 1
 423              		.loc 1 68 17 is_stmt 0
 424 0032 238A070C 		sb	zero,212(a5)
 425 0036 8280     		ret
 426              	.LVL31:
 427              	.L29:
  64:src/uart/uart.cpp ****     uint8_t val = bufferRX[rx_posS];
 428              		.loc 1 64 16
 429 0038 0145     		li	a0,0
 430              	.LVL32:
 431              	.L26:
  69:src/uart/uart.cpp ****     return val;
  70:src/uart/uart.cpp **** }
 432              		.loc 1 70 1
 433 003a 8280     		ret
 434              		.cfi_endproc
 435              	.LFE22:
 437              		.section	.text._ZN4uart16interruptHandlerEv,"ax",@progbits
 438              		.align	1
 439              		.globl	_ZN4uart16interruptHandlerEv
 441              	_ZN4uart16interruptHandlerEv:
 442              	.LFB23:
  71:src/uart/uart.cpp **** void uart::interruptHandler(void)
  72:src/uart/uart.cpp **** {
 443              		.loc 1 72 1 is_stmt 1
 444              		.cfi_startproc
 445              	.LVL33:
  73:src/uart/uart.cpp ****     //Transmit
  74:src/uart/uart.cpp ****     if((usart->STATR & USART_STATR_TXE) && (usart->CTLR1 & USART_CTLR1_TXEIE)) {
 446              		.loc 1 74 5
 447              	.LBB6:
 448              		.loc 1 74 9 is_stmt 0
 449 0000 8327850D 		lw	a5,216(a0)
 450              	.LBE6:
  72:src/uart/uart.cpp ****     //Transmit
 451              		.loc 1 72 1
 452 0004 4111     		addi	sp,sp,-16
 453              		.cfi_def_cfa_offset 16
 454 0006 06C6     		sw	ra,12(sp)
 455              		.cfi_offset 1, -4
 456              	.LBB13:
 457              		.loc 1 74 16
 458 0008 03D70700 		lhu	a4,0(a5)
 459              		.loc 1 74 41
 460 000c 13770708 		andi	a4,a4,128
 461 0010 11C7     		beq	a4,zero,.L32
GAS LISTING /tmp/ccROyhCL.s 			page 11


 462              		.loc 1 74 52 discriminator 1
 463 0012 03D7C700 		lhu	a4,12(a5)
 464              		.loc 1 74 41 discriminator 1
 465 0016 13770708 		andi	a4,a4,128
 466 001a 45EF     		bne	a4,zero,.L57
 467              	.LVL34:
 468              	.L32:
 469              	.LBE13:
  75:src/uart/uart.cpp ****         //buffer is empty
  76:src/uart/uart.cpp ****         if(tx_posS == tx_posE) {
  77:src/uart/uart.cpp ****             usart->CTLR1 &= ~(USART_CTLR1_TXEIE);
  78:src/uart/uart.cpp ****         }
  79:src/uart/uart.cpp ****         else {
  80:src/uart/uart.cpp ****             uint16_t tmp = 0;
  81:src/uart/uart.cpp ****             //9 bits
  82:src/uart/uart.cpp ****             if(bufferTX[tx_posS].conf_l & UART_CONF_9BIT) {
  83:src/uart/uart.cpp ****                 tmp = *(uint16_t*)(bufferTX[tx_posS].data + bufferTX[tx_posS].cnt);
  84:src/uart/uart.cpp ****                 bufferTX[tx_posS].cnt += 2;
  85:src/uart/uart.cpp ****             }
  86:src/uart/uart.cpp ****             else {
  87:src/uart/uart.cpp ****                 tmp = *(uint8_t*)(bufferTX[tx_posS].data + bufferTX[tx_posS].cnt);
  88:src/uart/uart.cpp ****                 bufferTX[tx_posS].cnt += 1;
  89:src/uart/uart.cpp ****             }
  90:src/uart/uart.cpp ****             usart->DATAR = tmp;
  91:src/uart/uart.cpp ****             if(bufferTX[tx_posS].cnt >= bufferTX[tx_posS].len) {
  92:src/uart/uart.cpp ****                 if(bufferTX[tx_posS].callback != nullptr)
  93:src/uart/uart.cpp ****                     bufferTX[tx_posS].callback();
  94:src/uart/uart.cpp ****                 tx_posS ++;
  95:src/uart/uart.cpp ****                 if(tx_posS >= BUF_TX_LEN)
  96:src/uart/uart.cpp ****                     tx_posS = 0;
  97:src/uart/uart.cpp ****             }
  98:src/uart/uart.cpp ****         }
  99:src/uart/uart.cpp ****     }
 100:src/uart/uart.cpp ****     //Receieve
 101:src/uart/uart.cpp ****     if((usart->STATR & USART_STATR_RXNE) && (usart->CTLR1 & USART_CTLR1_RXNEIE)) {
 470              		.loc 1 101 5 is_stmt 1
 471              		.loc 1 101 16 is_stmt 0
 472 001c 03D70700 		lhu	a4,0(a5)
 473              		.loc 1 101 42
 474 0020 13770702 		andi	a4,a4,32
 475 0024 55C3     		beq	a4,zero,.L40
 476              		.loc 1 101 53 discriminator 1
 477 0026 03D7C700 		lhu	a4,12(a5)
 478              		.loc 1 101 42 discriminator 1
 479 002a 13770702 		andi	a4,a4,32
 480 002e 49CF     		beq	a4,zero,.L40
 102:src/uart/uart.cpp ****         //9th bit
 103:src/uart/uart.cpp ****         if(usart->CTLR1 & USART_CTLR1_M) {
 481              		.loc 1 103 9 is_stmt 1
 482              		.loc 1 103 19 is_stmt 0
 483 0030 03D7C700 		lhu	a4,12(a5)
 484              		.loc 1 103 9
 485 0034 8566     		li	a3,4096
 486 0036 758F     		and	a4,a4,a3
 487 0038 21CB     		beq	a4,zero,.L43
 104:src/uart/uart.cpp ****             //buffer is not overflow
 105:src/uart/uart.cpp ****             if(!((rx_posS == 0 && rx_posE == BUF_RX_LEN - 1) || (rx_posE + 1 == rx_posS))) {
GAS LISTING /tmp/ccROyhCL.s 			page 12


 488              		.loc 1 105 13 is_stmt 1
 489              		.loc 1 105 19 is_stmt 0
 490 003a 0347450D 		lbu	a4,212(a0)
 491              		.loc 1 105 16
 492 003e 19E7     		bne	a4,zero,.L44
 493              		.loc 1 105 35 discriminator 2
 494 0040 8346550D 		lbu	a3,213(a0)
 495              		.loc 1 105 32 discriminator 2
 496 0044 13071003 		li	a4,49
 497 0048 6380E604 		beq	a3,a4,.L43
 498              	.L44:
 499              		.loc 1 105 66 discriminator 3
 500 004c 0347550D 		lbu	a4,213(a0)
 501              		.loc 1 105 81 discriminator 3
 502 0050 8346450D 		lbu	a3,212(a0)
 503              		.loc 1 105 74 discriminator 3
 504 0054 0507     		addi	a4,a4,1
 505              		.loc 1 105 16 discriminator 3
 506 0056 6309D702 		beq	a4,a3,.L43
 106:src/uart/uart.cpp ****                 bufferRX[rx_posE] = usart->DATAR >> 8;
 507              		.loc 1 106 17 is_stmt 1
 508              		.loc 1 106 44 is_stmt 0
 509 005a 83D64700 		lhu	a3,4(a5)
 510              		.loc 1 106 26
 511 005e 0347550D 		lbu	a4,213(a0)
 107:src/uart/uart.cpp ****                 rx_posE ++;
 108:src/uart/uart.cpp ****                 if(rx_posE >= BUF_RX_LEN)
 512              		.loc 1 108 17
 513 0062 13061003 		li	a2,49
 106:src/uart/uart.cpp ****                 bufferRX[rx_posE] = usart->DATAR >> 8;
 514              		.loc 1 106 50
 515 0066 A182     		srli	a3,a3,8
 106:src/uart/uart.cpp ****                 bufferRX[rx_posE] = usart->DATAR >> 8;
 516              		.loc 1 106 35
 517 0068 2A97     		add	a4,a0,a4
 518 006a 2300D70A 		sb	a3,160(a4)
 107:src/uart/uart.cpp ****                 rx_posE ++;
 519              		.loc 1 107 17 is_stmt 1
 520 006e 0347550D 		lbu	a4,213(a0)
 107:src/uart/uart.cpp ****                 rx_posE ++;
 521              		.loc 1 107 25 is_stmt 0
 522 0072 0507     		addi	a4,a4,1
 523 0074 1377F70F 		andi	a4,a4,0xff
 524 0078 A30AE50C 		sb	a4,213(a0)
 525              		.loc 1 108 17 is_stmt 1
 526              		.loc 1 108 20 is_stmt 0
 527 007c 0347550D 		lbu	a4,213(a0)
 528              		.loc 1 108 17
 529 0080 6374E600 		bleu	a4,a2,.L43
 109:src/uart/uart.cpp ****                     rx_posE = 0;
 530              		.loc 1 109 21 is_stmt 1
 531              		.loc 1 109 29 is_stmt 0
 532 0084 A30A050C 		sb	zero,213(a0)
 533              	.L43:
 110:src/uart/uart.cpp ****                 }
 111:src/uart/uart.cpp ****         }
 112:src/uart/uart.cpp ****         //8 bits
GAS LISTING /tmp/ccROyhCL.s 			page 13


 113:src/uart/uart.cpp ****         if(!((rx_posS == 0 && rx_posE == BUF_RX_LEN - 1) || (rx_posE + 1 == rx_posS))) {
 534              		.loc 1 113 9 is_stmt 1
 535              		.loc 1 113 15 is_stmt 0
 536 0088 0347450D 		lbu	a4,212(a0)
 537              		.loc 1 113 12
 538 008c 7DC7     		beq	a4,zero,.L58
 539              	.L46:
 540              		.loc 1 113 62 discriminator 3
 541 008e 0347550D 		lbu	a4,213(a0)
 542              		.loc 1 113 77 discriminator 3
 543 0092 8346450D 		lbu	a3,212(a0)
 544              		.loc 1 113 70 discriminator 3
 545 0096 0507     		addi	a4,a4,1
 546              		.loc 1 113 12 discriminator 3
 547 0098 6308D702 		beq	a4,a3,.L40
 114:src/uart/uart.cpp ****             bufferRX[rx_posE] = usart->DATAR & 0x00FF;
 548              		.loc 1 114 13 is_stmt 1
 549              		.loc 1 114 40 is_stmt 0
 550 009c 03D64700 		lhu	a2,4(a5)
 551              		.loc 1 114 22
 552 00a0 0347550D 		lbu	a4,213(a0)
 115:src/uart/uart.cpp ****             rx_posE ++;
 116:src/uart/uart.cpp ****             if(rx_posE >= BUF_RX_LEN)
 553              		.loc 1 116 13
 554 00a4 93061003 		li	a3,49
 114:src/uart/uart.cpp ****             bufferRX[rx_posE] = usart->DATAR & 0x00FF;
 555              		.loc 1 114 31
 556 00a8 2A97     		add	a4,a0,a4
 557 00aa 2300C70A 		sb	a2,160(a4)
 115:src/uart/uart.cpp ****             rx_posE ++;
 558              		.loc 1 115 13 is_stmt 1
 559 00ae 0347550D 		lbu	a4,213(a0)
 115:src/uart/uart.cpp ****             rx_posE ++;
 560              		.loc 1 115 21 is_stmt 0
 561 00b2 0507     		addi	a4,a4,1
 562 00b4 1377F70F 		andi	a4,a4,0xff
 563 00b8 A30AE50C 		sb	a4,213(a0)
 564              		.loc 1 116 13 is_stmt 1
 565              		.loc 1 116 16 is_stmt 0
 566 00bc 0347550D 		lbu	a4,213(a0)
 567              		.loc 1 116 13
 568 00c0 63F4E600 		bleu	a4,a3,.L40
 117:src/uart/uart.cpp ****                 rx_posE = 0;
 569              		.loc 1 117 17 is_stmt 1
 570              		.loc 1 117 25 is_stmt 0
 571 00c4 A30A050C 		sb	zero,213(a0)
 572              	.L40:
 118:src/uart/uart.cpp ****         }
 119:src/uart/uart.cpp ****     }
 120:src/uart/uart.cpp ****     usart->STATR = 0;
 573              		.loc 1 120 5 is_stmt 1
 121:src/uart/uart.cpp ****     return;
 122:src/uart/uart.cpp **** }...
 574              		.loc 1 122 1 is_stmt 0
 575 00c8 B240     		lw	ra,12(sp)
 576              		.cfi_remember_state
 577              		.cfi_restore 1
GAS LISTING /tmp/ccROyhCL.s 			page 14


 120:src/uart/uart.cpp ****     usart->STATR = 0;
 578              		.loc 1 120 18
 579 00ca 23900700 		sh	zero,0(a5)
 121:src/uart/uart.cpp ****     return;
 580              		.loc 1 121 5 is_stmt 1
 581              		.loc 1 122 1 is_stmt 0
 582 00ce 4101     		addi	sp,sp,16
 583              		.cfi_def_cfa_offset 0
 584 00d0 8280     		jr	ra
 585              	.LVL35:
 586              	.L57:
 587              		.cfi_restore_state
  76:src/uart/uart.cpp ****         if(tx_posS == tx_posE) {
 588              		.loc 1 76 9 is_stmt 1
 589              	.LBB14:
 590              	.LBB7:
  76:src/uart/uart.cpp ****         if(tx_posS == tx_posE) {
 591              		.loc 1 76 12 is_stmt 0
 592 00d2 8346250D 		lbu	a3,210(a0)
  76:src/uart/uart.cpp ****         if(tx_posS == tx_posE) {
 593              		.loc 1 76 23
 594 00d6 0347350D 		lbu	a4,211(a0)
  76:src/uart/uart.cpp ****         if(tx_posS == tx_posE) {
 595              		.loc 1 76 9
 596 00da 6387E60A 		beq	a3,a4,.L59
 597              	.LBB8:
  80:src/uart/uart.cpp ****             uint16_t tmp = 0;
 598              		.loc 1 80 13 is_stmt 1
 599              	.LVL36:
  82:src/uart/uart.cpp ****             if(bufferTX[tx_posS].conf_l & UART_CONF_9BIT) {
 600              		.loc 1 82 13
  82:src/uart/uart.cpp ****             if(bufferTX[tx_posS].conf_l & UART_CONF_9BIT) {
 601              		.loc 1 82 25 is_stmt 0
 602 00de 0347250D 		lbu	a4,210(a0)
  83:src/uart/uart.cpp ****                 tmp = *(uint16_t*)(bufferTX[tx_posS].data + bufferTX[tx_posS].cnt);
 603              		.loc 1 83 45
 604 00e2 8346250D 		lbu	a3,210(a0)
  83:src/uart/uart.cpp ****                 tmp = *(uint16_t*)(bufferTX[tx_posS].data + bufferTX[tx_posS].cnt);
 605              		.loc 1 83 70
 606 00e6 0346250D 		lbu	a2,210(a0)
  82:src/uart/uart.cpp ****             if(bufferTX[tx_posS].conf_l & UART_CONF_9BIT) {
 607              		.loc 1 82 34
 608 00ea 1207     		slli	a4,a4,4
 609 00ec 2A97     		add	a4,a0,a4
  82:src/uart/uart.cpp ****             if(bufferTX[tx_posS].conf_l & UART_CONF_9BIT) {
 610              		.loc 1 82 13
 611 00ee 03470700 		lbu	a4,0(a4)
 612 00f2 058B     		andi	a4,a4,1
 613 00f4 4DC7     		beq	a4,zero,.L35
  83:src/uart/uart.cpp ****                 tmp = *(uint16_t*)(bufferTX[tx_posS].data + bufferTX[tx_posS].cnt);
 614              		.loc 1 83 17 is_stmt 1
  84:src/uart/uart.cpp ****                 bufferTX[tx_posS].cnt += 2;
 615              		.loc 1 84 26 is_stmt 0
 616 00f6 0347250D 		lbu	a4,210(a0)
  83:src/uart/uart.cpp ****                 tmp = *(uint16_t*)(bufferTX[tx_posS].data + bufferTX[tx_posS].cnt);
 617              		.loc 1 83 54
 618 00fa 9206     		slli	a3,a3,4
GAS LISTING /tmp/ccROyhCL.s 			page 15


  83:src/uart/uart.cpp ****                 tmp = *(uint16_t*)(bufferTX[tx_posS].data + bufferTX[tx_posS].cnt);
 619              		.loc 1 83 79
 620 00fc 1206     		slli	a2,a2,4
 621 00fe 1207     		slli	a4,a4,4
 622 0100 2A97     		add	a4,a0,a4
 623 0102 2A96     		add	a2,a0,a2
  83:src/uart/uart.cpp ****                 tmp = *(uint16_t*)(bufferTX[tx_posS].data + bufferTX[tx_posS].cnt);
 624              		.loc 1 83 54
 625 0104 AA96     		add	a3,a0,a3
  83:src/uart/uart.cpp ****                 tmp = *(uint16_t*)(bufferTX[tx_posS].data + bufferTX[tx_posS].cnt);
 626              		.loc 1 83 79
 627 0106 8355A600 		lhu	a1,10(a2)
  83:src/uart/uart.cpp ****                 tmp = *(uint16_t*)(bufferTX[tx_posS].data + bufferTX[tx_posS].cnt);
 628              		.loc 1 83 21
 629 010a D442     		lw	a3,4(a3)
  84:src/uart/uart.cpp ****                 bufferTX[tx_posS].cnt += 2;
 630              		.loc 1 84 39
 631 010c 0356A700 		lhu	a2,10(a4)
  83:src/uart/uart.cpp ****                 tmp = *(uint16_t*)(bufferTX[tx_posS].data + bufferTX[tx_posS].cnt);
 632              		.loc 1 83 21
 633 0110 AE96     		add	a3,a3,a1
  84:src/uart/uart.cpp ****                 bufferTX[tx_posS].cnt += 2;
 634              		.loc 1 84 39
 635 0112 0906     		addi	a2,a2,2
  83:src/uart/uart.cpp ****                 tmp = *(uint16_t*)(bufferTX[tx_posS].data + bufferTX[tx_posS].cnt);
 636              		.loc 1 83 21
 637 0114 83D60600 		lhu	a3,0(a3)
 638              	.LVL37:
  84:src/uart/uart.cpp ****                 bufferTX[tx_posS].cnt += 2;
 639              		.loc 1 84 17 is_stmt 1
  84:src/uart/uart.cpp ****                 bufferTX[tx_posS].cnt += 2;
 640              		.loc 1 84 39 is_stmt 0
 641 0118 2315C700 		sh	a2,10(a4)
 642              	.LVL38:
 643              	.L36:
  90:src/uart/uart.cpp ****             usart->DATAR = tmp;
 644              		.loc 1 90 13 is_stmt 1
  90:src/uart/uart.cpp ****             usart->DATAR = tmp;
 645              		.loc 1 90 26 is_stmt 0
 646 011c 2392D700 		sh	a3,4(a5)
  91:src/uart/uart.cpp ****             if(bufferTX[tx_posS].cnt >= bufferTX[tx_posS].len) {
 647              		.loc 1 91 13 is_stmt 1
  91:src/uart/uart.cpp ****             if(bufferTX[tx_posS].cnt >= bufferTX[tx_posS].len) {
 648              		.loc 1 91 25 is_stmt 0
 649 0120 8346250D 		lbu	a3,210(a0)
 650              	.LVL39:
  91:src/uart/uart.cpp ****             if(bufferTX[tx_posS].cnt >= bufferTX[tx_posS].len) {
 651              		.loc 1 91 50
 652 0124 0347250D 		lbu	a4,210(a0)
  91:src/uart/uart.cpp ****             if(bufferTX[tx_posS].cnt >= bufferTX[tx_posS].len) {
 653              		.loc 1 91 34
 654 0128 9206     		slli	a3,a3,4
  91:src/uart/uart.cpp ****             if(bufferTX[tx_posS].cnt >= bufferTX[tx_posS].len) {
 655              		.loc 1 91 59
 656 012a 1207     		slli	a4,a4,4
  91:src/uart/uart.cpp ****             if(bufferTX[tx_posS].cnt >= bufferTX[tx_posS].len) {
 657              		.loc 1 91 34
GAS LISTING /tmp/ccROyhCL.s 			page 16


 658 012c AA96     		add	a3,a0,a3
  91:src/uart/uart.cpp ****             if(bufferTX[tx_posS].cnt >= bufferTX[tx_posS].len) {
 659              		.loc 1 91 59
 660 012e 2A97     		add	a4,a0,a4
  91:src/uart/uart.cpp ****             if(bufferTX[tx_posS].cnt >= bufferTX[tx_posS].len) {
 661              		.loc 1 91 13
 662 0130 83D6A600 		lhu	a3,10(a3)
 663 0134 03578700 		lhu	a4,8(a4)
 664 0138 E3E2E6EE 		bltu	a3,a4,.L32
  92:src/uart/uart.cpp ****                 if(bufferTX[tx_posS].callback != nullptr)
 665              		.loc 1 92 17 is_stmt 1
  92:src/uart/uart.cpp ****                 if(bufferTX[tx_posS].callback != nullptr)
 666              		.loc 1 92 29 is_stmt 0
 667 013c 8347250D 		lbu	a5,210(a0)
 668              	.LVL40:
  92:src/uart/uart.cpp ****                 if(bufferTX[tx_posS].callback != nullptr)
 669              		.loc 1 92 38
 670 0140 9207     		slli	a5,a5,4
 671 0142 AA97     		add	a5,a0,a5
  92:src/uart/uart.cpp ****                 if(bufferTX[tx_posS].callback != nullptr)
 672              		.loc 1 92 17
 673 0144 DC47     		lw	a5,12(a5)
 674 0146 89CB     		beq	a5,zero,.L37
  93:src/uart/uart.cpp ****                     bufferTX[tx_posS].callback();
 675              		.loc 1 93 21 is_stmt 1
  93:src/uart/uart.cpp ****                     bufferTX[tx_posS].callback();
 676              		.loc 1 93 30 is_stmt 0
 677 0148 8347250D 		lbu	a5,210(a0)
  93:src/uart/uart.cpp ****                     bufferTX[tx_posS].callback();
 678              		.loc 1 93 39
 679 014c 2AC0     		sw	a0,0(sp)
 680 014e 9207     		slli	a5,a5,4
 681 0150 AA97     		add	a5,a0,a5
  93:src/uart/uart.cpp ****                     bufferTX[tx_posS].callback();
 682              		.loc 1 93 47
 683 0152 DC47     		lw	a5,12(a5)
 684 0154 8297     		jalr	a5
 685              	.LVL41:
 686 0156 0245     		lw	a0,0(sp)
 687              	.LVL42:
 688              	.L37:
  94:src/uart/uart.cpp ****                 tx_posS ++;
 689              		.loc 1 94 17 is_stmt 1
 690 0158 8347250D 		lbu	a5,210(a0)
  95:src/uart/uart.cpp ****                 if(tx_posS >= BUF_TX_LEN)
 691              		.loc 1 95 17 is_stmt 0
 692 015c 2547     		li	a4,9
  94:src/uart/uart.cpp ****                 tx_posS ++;
 693              		.loc 1 94 25
 694 015e 8507     		addi	a5,a5,1
 695 0160 93F7F70F 		andi	a5,a5,0xff
 696 0164 2309F50C 		sb	a5,210(a0)
  95:src/uart/uart.cpp ****                 if(tx_posS >= BUF_TX_LEN)
 697              		.loc 1 95 17 is_stmt 1
  95:src/uart/uart.cpp ****                 if(tx_posS >= BUF_TX_LEN)
 698              		.loc 1 95 20 is_stmt 0
 699 0168 8347250D 		lbu	a5,210(a0)
GAS LISTING /tmp/ccROyhCL.s 			page 17


  95:src/uart/uart.cpp ****                 if(tx_posS >= BUF_TX_LEN)
 700              		.loc 1 95 17
 701 016c 637DF704 		bleu	a5,a4,.L60
  96:src/uart/uart.cpp ****                     tx_posS = 0;
 702              		.loc 1 96 21 is_stmt 1
 703              	.LBE8:
 704              	.LBE7:
 705              	.LBE14:
 101:src/uart/uart.cpp ****     if((usart->STATR & USART_STATR_RXNE) && (usart->CTLR1 & USART_CTLR1_RXNEIE)) {
 706              		.loc 1 101 9 is_stmt 0
 707 0170 8327850D 		lw	a5,216(a0)
 708              	.LBB15:
 709              	.LBB11:
 710              	.LBB9:
  96:src/uart/uart.cpp ****                     tx_posS = 0;
 711              		.loc 1 96 29
 712 0174 2309050C 		sb	zero,210(a0)
 713 0178 55B5     		j	.L32
 714              	.LVL43:
 715              	.L58:
 716              	.LBE9:
 717              	.LBE11:
 718              	.LBE15:
 113:src/uart/uart.cpp ****         if(!((rx_posS == 0 && rx_posE == BUF_RX_LEN - 1) || (rx_posE + 1 == rx_posS))) {
 719              		.loc 1 113 31 discriminator 2
 720 017a 8346550D 		lbu	a3,213(a0)
 113:src/uart/uart.cpp ****         if(!((rx_posS == 0 && rx_posE == BUF_RX_LEN - 1) || (rx_posE + 1 == rx_posS))) {
 721              		.loc 1 113 28 discriminator 2
 722 017e 13071003 		li	a4,49
 723 0182 E396E6F0 		bne	a3,a4,.L46
 724 0186 89B7     		j	.L40
 725              	.LVL44:
 726              	.L59:
 727              	.LBB16:
 728              	.LBB12:
  77:src/uart/uart.cpp ****             usart->CTLR1 &= ~(USART_CTLR1_TXEIE);
 729              		.loc 1 77 13 is_stmt 1
  77:src/uart/uart.cpp ****             usart->CTLR1 &= ~(USART_CTLR1_TXEIE);
 730              		.loc 1 77 20 is_stmt 0
 731 0188 03D7C700 		lhu	a4,12(a5)
 732 018c 4207     		slli	a4,a4,16
 733 018e 4183     		srli	a4,a4,16
  77:src/uart/uart.cpp ****             usart->CTLR1 &= ~(USART_CTLR1_TXEIE);
 734              		.loc 1 77 26
 735 0190 1377F7F7 		andi	a4,a4,-129
 736 0194 4207     		slli	a4,a4,16
 737 0196 4183     		srli	a4,a4,16
 738 0198 2396E700 		sh	a4,12(a5)
 739 019c 41B5     		j	.L32
 740              	.LVL45:
 741              	.L35:
 742              	.LBB10:
  87:src/uart/uart.cpp ****                 tmp = *(uint8_t*)(bufferTX[tx_posS].data + bufferTX[tx_posS].cnt);
 743              		.loc 1 87 17 is_stmt 1
  88:src/uart/uart.cpp ****                 bufferTX[tx_posS].cnt += 1;
 744              		.loc 1 88 26 is_stmt 0
 745 019e 0347250D 		lbu	a4,210(a0)
GAS LISTING /tmp/ccROyhCL.s 			page 18


  87:src/uart/uart.cpp ****                 tmp = *(uint8_t*)(bufferTX[tx_posS].data + bufferTX[tx_posS].cnt);
 746              		.loc 1 87 53
 747 01a2 9206     		slli	a3,a3,4
  87:src/uart/uart.cpp ****                 tmp = *(uint8_t*)(bufferTX[tx_posS].data + bufferTX[tx_posS].cnt);
 748              		.loc 1 87 78
 749 01a4 1206     		slli	a2,a2,4
 750 01a6 1207     		slli	a4,a4,4
 751 01a8 2A97     		add	a4,a0,a4
 752 01aa 2A96     		add	a2,a0,a2
  87:src/uart/uart.cpp ****                 tmp = *(uint8_t*)(bufferTX[tx_posS].data + bufferTX[tx_posS].cnt);
 753              		.loc 1 87 53
 754 01ac AA96     		add	a3,a0,a3
  87:src/uart/uart.cpp ****                 tmp = *(uint8_t*)(bufferTX[tx_posS].data + bufferTX[tx_posS].cnt);
 755              		.loc 1 87 78
 756 01ae 8355A600 		lhu	a1,10(a2)
  87:src/uart/uart.cpp ****                 tmp = *(uint8_t*)(bufferTX[tx_posS].data + bufferTX[tx_posS].cnt);
 757              		.loc 1 87 23
 758 01b2 D442     		lw	a3,4(a3)
  88:src/uart/uart.cpp ****                 bufferTX[tx_posS].cnt += 1;
 759              		.loc 1 88 39
 760 01b4 0356A700 		lhu	a2,10(a4)
  87:src/uart/uart.cpp ****                 tmp = *(uint8_t*)(bufferTX[tx_posS].data + bufferTX[tx_posS].cnt);
 761              		.loc 1 87 23
 762 01b8 AE96     		add	a3,a3,a1
  88:src/uart/uart.cpp ****                 bufferTX[tx_posS].cnt += 1;
 763              		.loc 1 88 39
 764 01ba 0506     		addi	a2,a2,1
  87:src/uart/uart.cpp ****                 tmp = *(uint8_t*)(bufferTX[tx_posS].data + bufferTX[tx_posS].cnt);
 765              		.loc 1 87 21
 766 01bc 83C60600 		lbu	a3,0(a3)
 767              	.LVL46:
  88:src/uart/uart.cpp ****                 bufferTX[tx_posS].cnt += 1;
 768              		.loc 1 88 17 is_stmt 1
  88:src/uart/uart.cpp ****                 bufferTX[tx_posS].cnt += 1;
 769              		.loc 1 88 39 is_stmt 0
 770 01c0 2315C700 		sh	a2,10(a4)
 771 01c4 A1BF     		j	.L36
 772              	.LVL47:
 773              	.L60:
 774              	.LBE10:
 775              	.LBE12:
 776              	.LBE16:
 101:src/uart/uart.cpp ****     if((usart->STATR & USART_STATR_RXNE) && (usart->CTLR1 & USART_CTLR1_RXNEIE)) {
 777              		.loc 1 101 9
 778 01c6 8327850D 		lw	a5,216(a0)
 779 01ca 89BD     		j	.L32
 780              		.cfi_endproc
 781              	.LFE23:
 783              		.text
 784              	.Letext0:
 785              		.file 2 "/opt/MRS_toolchain/riscv-wch-elf/include/machine/_default_types.h"
 786              		.file 3 "/opt/MRS_toolchain/riscv-wch-elf/include/sys/_stdint.h"
 787              		.file 4 "src/core/ch32v00x.h"
 788              		.file 5 "src/uart/uart.h"
GAS LISTING /tmp/ccROyhCL.s 			page 19


DEFINED SYMBOLS
                            *ABS*:0000000000000000 uart.cpp
     /tmp/ccROyhCL.s:14     .text._ZN4uartC2EP13USART_TypeDefii9u_stopbit9u_wordlen:0000000000000000 _ZN4uartC2EP13USART_TypeDefii9u_stopbit9u_wordlen
     /tmp/ccROyhCL.s:18     .text._ZN4uartC2EP13USART_TypeDefii9u_stopbit9u_wordlen:0000000000000000 .L0 
     /tmp/ccROyhCL.s:20     .text._ZN4uartC2EP13USART_TypeDefii9u_stopbit9u_wordlen:0000000000000000 $x
     /tmp/ccROyhCL.s:20     .text._ZN4uartC2EP13USART_TypeDefii9u_stopbit9u_wordlen:0000000000000000 .L0 
     /tmp/ccROyhCL.s:21     .text._ZN4uartC2EP13USART_TypeDefii9u_stopbit9u_wordlen:0000000000000002 .L0 
     /tmp/ccROyhCL.s:25     .text._ZN4uartC2EP13USART_TypeDefii9u_stopbit9u_wordlen:0000000000000008 .L0 
     /tmp/ccROyhCL.s:26     .text._ZN4uartC2EP13USART_TypeDefii9u_stopbit9u_wordlen:0000000000000008 .L0 
     /tmp/ccROyhCL.s:27     .text._ZN4uartC2EP13USART_TypeDefii9u_stopbit9u_wordlen:0000000000000008 .L0 
     /tmp/ccROyhCL.s:30     .text._ZN4uartC2EP13USART_TypeDefii9u_stopbit9u_wordlen:0000000000000008 .L0 
     /tmp/ccROyhCL.s:35     .text._ZN4uartC2EP13USART_TypeDefii9u_stopbit9u_wordlen:0000000000000014 .L0 
     /tmp/ccROyhCL.s:38     .text._ZN4uartC2EP13USART_TypeDefii9u_stopbit9u_wordlen:0000000000000016 .L0 
     /tmp/ccROyhCL.s:40     .text._ZN4uartC2EP13USART_TypeDefii9u_stopbit9u_wordlen:000000000000001a .L0 
     /tmp/ccROyhCL.s:42     .text._ZN4uartC2EP13USART_TypeDefii9u_stopbit9u_wordlen:000000000000001e .L0 
     /tmp/ccROyhCL.s:43     .text._ZN4uartC2EP13USART_TypeDefii9u_stopbit9u_wordlen:000000000000001e .L0 
     /tmp/ccROyhCL.s:44     .text._ZN4uartC2EP13USART_TypeDefii9u_stopbit9u_wordlen:000000000000001e .L0 
     /tmp/ccROyhCL.s:50     .text._ZN4uartC2EP13USART_TypeDefii9u_stopbit9u_wordlen:0000000000000022 .L0 
     /tmp/ccROyhCL.s:54     .text._ZN4uartC2EP13USART_TypeDefii9u_stopbit9u_wordlen:0000000000000026 .L0 
     /tmp/ccROyhCL.s:57     .text._ZN4uartC2EP13USART_TypeDefii9u_stopbit9u_wordlen:000000000000002e .L0 
     /tmp/ccROyhCL.s:60     .text._ZN4uartC2EP13USART_TypeDefii9u_stopbit9u_wordlen:0000000000000032 .L0 
     /tmp/ccROyhCL.s:62     .text._ZN4uartC2EP13USART_TypeDefii9u_stopbit9u_wordlen:0000000000000034 .L0 
     /tmp/ccROyhCL.s:64     .text._ZN4uartC2EP13USART_TypeDefii9u_stopbit9u_wordlen:0000000000000038 .L0 
     /tmp/ccROyhCL.s:65     .text._ZN4uartC2EP13USART_TypeDefii9u_stopbit9u_wordlen:0000000000000038 .L0 
     /tmp/ccROyhCL.s:68     .text._ZN4uartC2EP13USART_TypeDefii9u_stopbit9u_wordlen:0000000000000040 .L0 
     /tmp/ccROyhCL.s:69     .text._ZN4uartC2EP13USART_TypeDefii9u_stopbit9u_wordlen:0000000000000040 .L0 
     /tmp/ccROyhCL.s:71     .text._ZN4uartC2EP13USART_TypeDefii9u_stopbit9u_wordlen:0000000000000044 .L0 
     /tmp/ccROyhCL.s:73     .text._ZN4uartC2EP13USART_TypeDefii9u_stopbit9u_wordlen:0000000000000048 .L0 
     /tmp/ccROyhCL.s:75     .text._ZN4uartC2EP13USART_TypeDefii9u_stopbit9u_wordlen:000000000000004a .L0 
     /tmp/ccROyhCL.s:79     .text._ZN4uartC2EP13USART_TypeDefii9u_stopbit9u_wordlen:0000000000000050 .L0 
     /tmp/ccROyhCL.s:81     .text._ZN4uartC2EP13USART_TypeDefii9u_stopbit9u_wordlen:0000000000000052 .L0 
     /tmp/ccROyhCL.s:83     .text._ZN4uartC2EP13USART_TypeDefii9u_stopbit9u_wordlen:0000000000000056 .L0 
     /tmp/ccROyhCL.s:85     .text._ZN4uartC2EP13USART_TypeDefii9u_stopbit9u_wordlen:000000000000005a .L0 
     /tmp/ccROyhCL.s:86     .text._ZN4uartC2EP13USART_TypeDefii9u_stopbit9u_wordlen:000000000000005a .L0 
     /tmp/ccROyhCL.s:88     .text._ZN4uartC2EP13USART_TypeDefii9u_stopbit9u_wordlen:000000000000005e .L0 
     /tmp/ccROyhCL.s:93     .text._ZN4uartC2EP13USART_TypeDefii9u_stopbit9u_wordlen:0000000000000066 .L0 
     /tmp/ccROyhCL.s:94     .text._ZN4uartC2EP13USART_TypeDefii9u_stopbit9u_wordlen:0000000000000066 .L0 
     /tmp/ccROyhCL.s:97     .text._ZN4uartC2EP13USART_TypeDefii9u_stopbit9u_wordlen:000000000000006a .L0 
     /tmp/ccROyhCL.s:98     .text._ZN4uartC2EP13USART_TypeDefii9u_stopbit9u_wordlen:000000000000006a .L0 
     /tmp/ccROyhCL.s:99     .text._ZN4uartC2EP13USART_TypeDefii9u_stopbit9u_wordlen:000000000000006c .L0 
     /tmp/ccROyhCL.s:102    .text._ZN4uartC2EP13USART_TypeDefii9u_stopbit9u_wordlen:000000000000006c .L0 
     /tmp/ccROyhCL.s:105    .text._ZN4uartC2EP13USART_TypeDefii9u_stopbit9u_wordlen:0000000000000070 .L0 
     /tmp/ccROyhCL.s:106    .text._ZN4uartC2EP13USART_TypeDefii9u_stopbit9u_wordlen:0000000000000072 .L0 
     /tmp/ccROyhCL.s:109    .text._ZN4uartC2EP13USART_TypeDefii9u_stopbit9u_wordlen:0000000000000074 .L0 
     /tmp/ccROyhCL.s:112    .text._ZN4uartC2EP13USART_TypeDefii9u_stopbit9u_wordlen:0000000000000076 .L0 
     /tmp/ccROyhCL.s:115    .text._ZN4uartC2EP13USART_TypeDefii9u_stopbit9u_wordlen:0000000000000078 .L0 
     /tmp/ccROyhCL.s:14     .text._ZN4uartC2EP13USART_TypeDefii9u_stopbit9u_wordlen:0000000000000000 _ZN4uartC1EP13USART_TypeDefii9u_stopbit9u_wordlen
     /tmp/ccROyhCL.s:124    .text._ZN4uart4sendEPhtPFvvEh:0000000000000000 _ZN4uart4sendEPhtPFvvEh
     /tmp/ccROyhCL.s:127    .text._ZN4uart4sendEPhtPFvvEh:0000000000000000 .L0 
     /tmp/ccROyhCL.s:129    .text._ZN4uart4sendEPhtPFvvEh:0000000000000000 .L0 
     /tmp/ccROyhCL.s:130    .text._ZN4uart4sendEPhtPFvvEh:0000000000000000 .L0 
     /tmp/ccROyhCL.s:131    .text._ZN4uart4sendEPhtPFvvEh:0000000000000000 $x
     /tmp/ccROyhCL.s:131    .text._ZN4uart4sendEPhtPFvvEh:0000000000000000 .L0 
     /tmp/ccROyhCL.s:133    .text._ZN4uart4sendEPhtPFvvEh:0000000000000002 .L0 
     /tmp/ccROyhCL.s:136    .text._ZN4uart4sendEPhtPFvvEh:0000000000000006 .L0 
     /tmp/ccROyhCL.s:138    .text._ZN4uart4sendEPhtPFvvEh:000000000000000a .L0 
     /tmp/ccROyhCL.s:140    .text._ZN4uart4sendEPhtPFvvEh:000000000000000c .L0 
GAS LISTING /tmp/ccROyhCL.s 			page 20


     /tmp/ccROyhCL.s:142    .text._ZN4uart4sendEPhtPFvvEh:0000000000000010 .L0 
     /tmp/ccROyhCL.s:144    .text._ZN4uart4sendEPhtPFvvEh:0000000000000014 .L0 
     /tmp/ccROyhCL.s:146    .text._ZN4uart4sendEPhtPFvvEh:0000000000000016 .L0 
     /tmp/ccROyhCL.s:148    .text._ZN4uart4sendEPhtPFvvEh:000000000000001a .L0 
     /tmp/ccROyhCL.s:152    .text._ZN4uart4sendEPhtPFvvEh:0000000000000020 .L0 
     /tmp/ccROyhCL.s:153    .text._ZN4uart4sendEPhtPFvvEh:0000000000000020 .L0 
     /tmp/ccROyhCL.s:155    .text._ZN4uart4sendEPhtPFvvEh:0000000000000024 .L0 
     /tmp/ccROyhCL.s:157    .text._ZN4uart4sendEPhtPFvvEh:0000000000000026 .L0 
     /tmp/ccROyhCL.s:161    .text._ZN4uart4sendEPhtPFvvEh:000000000000002e .L0 
     /tmp/ccROyhCL.s:162    .text._ZN4uart4sendEPhtPFvvEh:000000000000002e .L0 
     /tmp/ccROyhCL.s:165    .text._ZN4uart4sendEPhtPFvvEh:0000000000000032 .L0 
     /tmp/ccROyhCL.s:169    .text._ZN4uart4sendEPhtPFvvEh:000000000000003a .L0 
     /tmp/ccROyhCL.s:170    .text._ZN4uart4sendEPhtPFvvEh:000000000000003a .L0 
     /tmp/ccROyhCL.s:173    .text._ZN4uart4sendEPhtPFvvEh:000000000000003e .L0 
     /tmp/ccROyhCL.s:178    .text._ZN4uart4sendEPhtPFvvEh:0000000000000046 .L0 
     /tmp/ccROyhCL.s:179    .text._ZN4uart4sendEPhtPFvvEh:0000000000000046 .L0 
     /tmp/ccROyhCL.s:181    .text._ZN4uart4sendEPhtPFvvEh:000000000000004a .L0 
     /tmp/ccROyhCL.s:185    .text._ZN4uart4sendEPhtPFvvEh:0000000000000050 .L0 
     /tmp/ccROyhCL.s:186    .text._ZN4uart4sendEPhtPFvvEh:0000000000000050 .L0 
     /tmp/ccROyhCL.s:189    .text._ZN4uart4sendEPhtPFvvEh:0000000000000054 .L0 
     /tmp/ccROyhCL.s:194    .text._ZN4uart4sendEPhtPFvvEh:000000000000005c .L0 
     /tmp/ccROyhCL.s:197    .text._ZN4uart4sendEPhtPFvvEh:0000000000000060 .L0 
     /tmp/ccROyhCL.s:202    .text._ZN4uart4sendEPhtPFvvEh:000000000000006a .L0 
     /tmp/ccROyhCL.s:203    .text._ZN4uart4sendEPhtPFvvEh:000000000000006a .L0 
     /tmp/ccROyhCL.s:205    .text._ZN4uart4sendEPhtPFvvEh:000000000000006e .L0 
     /tmp/ccROyhCL.s:207    .text._ZN4uart4sendEPhtPFvvEh:0000000000000072 .L0 
     /tmp/ccROyhCL.s:208    .text._ZN4uart4sendEPhtPFvvEh:0000000000000072 .L0 
     /tmp/ccROyhCL.s:211    .text._ZN4uart4sendEPhtPFvvEh:0000000000000076 .L0 
     /tmp/ccROyhCL.s:213    .text._ZN4uart4sendEPhtPFvvEh:000000000000007a .L0 
     /tmp/ccROyhCL.s:215    .text._ZN4uart4sendEPhtPFvvEh:000000000000007c .L0 
     /tmp/ccROyhCL.s:218    .text._ZN4uart4sendEPhtPFvvEh:0000000000000080 .L0 
     /tmp/ccROyhCL.s:221    .text._ZN4uart4sendEPhtPFvvEh:0000000000000088 .L0 
     /tmp/ccROyhCL.s:222    .text._ZN4uart4sendEPhtPFvvEh:0000000000000088 .L0 
     /tmp/ccROyhCL.s:226    .text._ZN4uart4sendEPhtPFvvEh:000000000000008a .L0 
     /tmp/ccROyhCL.s:229    .text._ZN4uart4sendEPhtPFvvEh:000000000000008c .L0 
     /tmp/ccROyhCL.s:230    .text._ZN4uart4sendEPhtPFvvEh:000000000000008e .L0 
     /tmp/ccROyhCL.s:237    .text._ZN4uart5printEPKc:0000000000000000 _ZN4uart5printEPKc
     /tmp/ccROyhCL.s:240    .text._ZN4uart5printEPKc:0000000000000000 .L0 
     /tmp/ccROyhCL.s:242    .text._ZN4uart5printEPKc:0000000000000000 .L0 
     /tmp/ccROyhCL.s:243    .text._ZN4uart5printEPKc:0000000000000000 .L0 
     /tmp/ccROyhCL.s:244    .text._ZN4uart5printEPKc:0000000000000000 .L0 
     /tmp/ccROyhCL.s:245    .text._ZN4uart5printEPKc:0000000000000000 .L0 
     /tmp/ccROyhCL.s:246    .text._ZN4uart5printEPKc:0000000000000000 $x
     /tmp/ccROyhCL.s:246    .text._ZN4uart5printEPKc:0000000000000000 .L0 
     /tmp/ccROyhCL.s:247    .text._ZN4uart5printEPKc:0000000000000002 .L0 
     /tmp/ccROyhCL.s:251    .text._ZN4uart5printEPKc:0000000000000008 .L0 
     /tmp/ccROyhCL.s:252    .text._ZN4uart5printEPKc:0000000000000008 .L0 
     /tmp/ccROyhCL.s:253    .text._ZN4uart5printEPKc:0000000000000008 .L0 
     /tmp/ccROyhCL.s:255    .text._ZN4uart5printEPKc:0000000000000008 .L0 
     /tmp/ccROyhCL.s:257    .text._ZN4uart5printEPKc:000000000000000c .L0 
     /tmp/ccROyhCL.s:260    .text._ZN4uart5printEPKc:0000000000000010 .L0 
     /tmp/ccROyhCL.s:262    .text._ZN4uart5printEPKc:0000000000000012 .L0 
     /tmp/ccROyhCL.s:267    .text._ZN4uart5printEPKc:000000000000001e .L0 
     /tmp/ccROyhCL.s:272    .text._ZN4uart5printEPKc:0000000000000026 .L0 
     /tmp/ccROyhCL.s:273    .text._ZN4uart5printEPKc:0000000000000026 .L0 
     /tmp/ccROyhCL.s:275    .text._ZN4uart5printEPKc:0000000000000028 .L0 
     /tmp/ccROyhCL.s:276    .text._ZN4uart5printEPKc:000000000000002a .L0 
GAS LISTING /tmp/ccROyhCL.s 			page 21


     /tmp/ccROyhCL.s:277    .text._ZN4uart5printEPKc:000000000000002a .L0 
     /tmp/ccROyhCL.s:280    .text._ZN4uart5printEPKc:000000000000002c .L0 
     /tmp/ccROyhCL.s:282    .text._ZN4uart5printEPKc:000000000000002c .L0 
     /tmp/ccROyhCL.s:284    .text._ZN4uart5printEPKc:000000000000002e .L0 
     /tmp/ccROyhCL.s:285    .text._ZN4uart5printEPKc:0000000000000030 .L0 
     /tmp/ccROyhCL.s:288    .text._ZN4uart5printEPKc:0000000000000030 .L0 
     /tmp/ccROyhCL.s:290    .text._ZN4uart5printEPKc:0000000000000032 .L0 
     /tmp/ccROyhCL.s:291    .text._ZN4uart5printEPKc:0000000000000032 .L0 
     /tmp/ccROyhCL.s:293    .text._ZN4uart5printEPKc:0000000000000034 .L0 
     /tmp/ccROyhCL.s:294    .text._ZN4uart5printEPKc:0000000000000036 .L0 
     /tmp/ccROyhCL.s:296    .text._ZN4uart5printEPKc:0000000000000036 .L0 
     /tmp/ccROyhCL.s:299    .text._ZN4uart5printEPKc:000000000000003e .L0 
     /tmp/ccROyhCL.s:301    .text._ZN4uart5printEPKc:000000000000003e .L0 
     /tmp/ccROyhCL.s:303    .text._ZN4uart5printEPKc:0000000000000042 .L0 
     /tmp/ccROyhCL.s:310    .text._ZN4uart4syncEv:0000000000000000 _ZN4uart4syncEv
     /tmp/ccROyhCL.s:313    .text._ZN4uart4syncEv:0000000000000000 .L0 
     /tmp/ccROyhCL.s:315    .text._ZN4uart4syncEv:0000000000000000 .L0 
     /tmp/ccROyhCL.s:316    .text._ZN4uart4syncEv:0000000000000000 $x
     /tmp/ccROyhCL.s:316    .text._ZN4uart4syncEv:0000000000000000 .L0 
     /tmp/ccROyhCL.s:319    .text._ZN4uart4syncEv:0000000000000002 .L0 
     /tmp/ccROyhCL.s:321    .text._ZN4uart4syncEv:0000000000000006 .L0 
     /tmp/ccROyhCL.s:323    .text._ZN4uart4syncEv:000000000000000a .L0 
     /tmp/ccROyhCL.s:327    .text._ZN4uart4syncEv:0000000000000010 .L0 
     /tmp/ccROyhCL.s:328    .text._ZN4uart4syncEv:0000000000000010 .L0 
     /tmp/ccROyhCL.s:329    .text._ZN4uart4syncEv:0000000000000010 .L0 
     /tmp/ccROyhCL.s:331    .text._ZN4uart4syncEv:0000000000000014 .L0 
     /tmp/ccROyhCL.s:333    .text._ZN4uart4syncEv:0000000000000018 .L0 
     /tmp/ccROyhCL.s:336    .text._ZN4uart4syncEv:000000000000001c .L0 
     /tmp/ccROyhCL.s:337    .text._ZN4uart4syncEv:000000000000001e .L0 
     /tmp/ccROyhCL.s:344    .text._ZN4uart9availableEv:0000000000000000 _ZN4uart9availableEv
     /tmp/ccROyhCL.s:347    .text._ZN4uart9availableEv:0000000000000000 .L0 
     /tmp/ccROyhCL.s:349    .text._ZN4uart9availableEv:0000000000000000 .L0 
     /tmp/ccROyhCL.s:350    .text._ZN4uart9availableEv:0000000000000000 .L0 
     /tmp/ccROyhCL.s:351    .text._ZN4uart9availableEv:0000000000000000 $x
     /tmp/ccROyhCL.s:351    .text._ZN4uart9availableEv:0000000000000000 .L0 
     /tmp/ccROyhCL.s:353    .text._ZN4uart9availableEv:0000000000000004 .L0 
     /tmp/ccROyhCL.s:355    .text._ZN4uart9availableEv:0000000000000008 .L0 
     /tmp/ccROyhCL.s:357    .text._ZN4uart9availableEv:000000000000000c .L0 
     /tmp/ccROyhCL.s:358    .text._ZN4uart9availableEv:000000000000000c .L0 
     /tmp/ccROyhCL.s:360    .text._ZN4uart9availableEv:0000000000000010 .L0 
     /tmp/ccROyhCL.s:367    .text._ZN4uart9availableEv:000000000000001a .L0 
     /tmp/ccROyhCL.s:368    .text._ZN4uart9availableEv:000000000000001a .L0 
     /tmp/ccROyhCL.s:370    .text._ZN4uart9availableEv:000000000000001e .L0 
     /tmp/ccROyhCL.s:373    .text._ZN4uart9availableEv:0000000000000022 .L0 
     /tmp/ccROyhCL.s:375    .text._ZN4uart9availableEv:0000000000000024 .L0 
     /tmp/ccROyhCL.s:377    .text._ZN4uart9availableEv:0000000000000028 .L0 
     /tmp/ccROyhCL.s:378    .text._ZN4uart9availableEv:000000000000002a .L0 
     /tmp/ccROyhCL.s:385    .text._ZN4uart3getEv:0000000000000000 _ZN4uart3getEv
     /tmp/ccROyhCL.s:388    .text._ZN4uart3getEv:0000000000000000 .L0 
     /tmp/ccROyhCL.s:390    .text._ZN4uart3getEv:0000000000000000 .L0 
     /tmp/ccROyhCL.s:391    .text._ZN4uart3getEv:0000000000000000 .L0 
     /tmp/ccROyhCL.s:392    .text._ZN4uart3getEv:0000000000000000 $x
     /tmp/ccROyhCL.s:392    .text._ZN4uart3getEv:0000000000000000 .L0 
     /tmp/ccROyhCL.s:394    .text._ZN4uart3getEv:0000000000000004 .L0 
     /tmp/ccROyhCL.s:396    .text._ZN4uart3getEv:0000000000000008 .L0 
     /tmp/ccROyhCL.s:398    .text._ZN4uart3getEv:000000000000000a .L0 
     /tmp/ccROyhCL.s:400    .text._ZN4uart3getEv:000000000000000e .L0 
GAS LISTING /tmp/ccROyhCL.s 			page 22


     /tmp/ccROyhCL.s:401    .text._ZN4uart3getEv:000000000000000e .L0 
     /tmp/ccROyhCL.s:403    .text._ZN4uart3getEv:0000000000000012 .L0 
     /tmp/ccROyhCL.s:405    .text._ZN4uart3getEv:0000000000000016 .L0 
     /tmp/ccROyhCL.s:407    .text._ZN4uart3getEv:000000000000001a .L0 
     /tmp/ccROyhCL.s:409    .text._ZN4uart3getEv:000000000000001c .L0 
     /tmp/ccROyhCL.s:412    .text._ZN4uart3getEv:0000000000000022 .L0 
     /tmp/ccROyhCL.s:415    .text._ZN4uart3getEv:0000000000000026 .L0 
     /tmp/ccROyhCL.s:416    .text._ZN4uart3getEv:0000000000000026 .L0 
     /tmp/ccROyhCL.s:418    .text._ZN4uart3getEv:000000000000002a .L0 
     /tmp/ccROyhCL.s:419    .text._ZN4uart3getEv:000000000000002a .L0 
     /tmp/ccROyhCL.s:421    .text._ZN4uart3getEv:000000000000002e .L0 
     /tmp/ccROyhCL.s:423    .text._ZN4uart3getEv:0000000000000032 .L0 
     /tmp/ccROyhCL.s:424    .text._ZN4uart3getEv:0000000000000032 .L0 
     /tmp/ccROyhCL.s:429    .text._ZN4uart3getEv:0000000000000038 .L0 
     /tmp/ccROyhCL.s:433    .text._ZN4uart3getEv:000000000000003a .L0 
     /tmp/ccROyhCL.s:434    .text._ZN4uart3getEv:000000000000003c .L0 
     /tmp/ccROyhCL.s:441    .text._ZN4uart16interruptHandlerEv:0000000000000000 _ZN4uart16interruptHandlerEv
     /tmp/ccROyhCL.s:444    .text._ZN4uart16interruptHandlerEv:0000000000000000 .L0 
     /tmp/ccROyhCL.s:446    .text._ZN4uart16interruptHandlerEv:0000000000000000 .L0 
     /tmp/ccROyhCL.s:448    .text._ZN4uart16interruptHandlerEv:0000000000000000 .L0 
     /tmp/ccROyhCL.s:449    .text._ZN4uart16interruptHandlerEv:0000000000000000 $x
     /tmp/ccROyhCL.s:449    .text._ZN4uart16interruptHandlerEv:0000000000000000 .L0 
     /tmp/ccROyhCL.s:452    .text._ZN4uart16interruptHandlerEv:0000000000000004 .L0 
     /tmp/ccROyhCL.s:453    .text._ZN4uart16interruptHandlerEv:0000000000000006 .L0 
     /tmp/ccROyhCL.s:455    .text._ZN4uart16interruptHandlerEv:0000000000000008 .L0 
     /tmp/ccROyhCL.s:458    .text._ZN4uart16interruptHandlerEv:0000000000000008 .L0 
     /tmp/ccROyhCL.s:460    .text._ZN4uart16interruptHandlerEv:000000000000000c .L0 
     /tmp/ccROyhCL.s:463    .text._ZN4uart16interruptHandlerEv:0000000000000012 .L0 
     /tmp/ccROyhCL.s:465    .text._ZN4uart16interruptHandlerEv:0000000000000016 .L0 
     /tmp/ccROyhCL.s:471    .text._ZN4uart16interruptHandlerEv:000000000000001c .L0 
     /tmp/ccROyhCL.s:472    .text._ZN4uart16interruptHandlerEv:000000000000001c .L0 
     /tmp/ccROyhCL.s:474    .text._ZN4uart16interruptHandlerEv:0000000000000020 .L0 
     /tmp/ccROyhCL.s:477    .text._ZN4uart16interruptHandlerEv:0000000000000026 .L0 
     /tmp/ccROyhCL.s:479    .text._ZN4uart16interruptHandlerEv:000000000000002a .L0 
     /tmp/ccROyhCL.s:482    .text._ZN4uart16interruptHandlerEv:0000000000000030 .L0 
     /tmp/ccROyhCL.s:483    .text._ZN4uart16interruptHandlerEv:0000000000000030 .L0 
     /tmp/ccROyhCL.s:485    .text._ZN4uart16interruptHandlerEv:0000000000000034 .L0 
     /tmp/ccROyhCL.s:489    .text._ZN4uart16interruptHandlerEv:000000000000003a .L0 
     /tmp/ccROyhCL.s:490    .text._ZN4uart16interruptHandlerEv:000000000000003a .L0 
     /tmp/ccROyhCL.s:492    .text._ZN4uart16interruptHandlerEv:000000000000003e .L0 
     /tmp/ccROyhCL.s:494    .text._ZN4uart16interruptHandlerEv:0000000000000040 .L0 
     /tmp/ccROyhCL.s:496    .text._ZN4uart16interruptHandlerEv:0000000000000044 .L0 
     /tmp/ccROyhCL.s:500    .text._ZN4uart16interruptHandlerEv:000000000000004c .L0 
     /tmp/ccROyhCL.s:502    .text._ZN4uart16interruptHandlerEv:0000000000000050 .L0 
     /tmp/ccROyhCL.s:504    .text._ZN4uart16interruptHandlerEv:0000000000000054 .L0 
     /tmp/ccROyhCL.s:506    .text._ZN4uart16interruptHandlerEv:0000000000000056 .L0 
     /tmp/ccROyhCL.s:508    .text._ZN4uart16interruptHandlerEv:000000000000005a .L0 
     /tmp/ccROyhCL.s:509    .text._ZN4uart16interruptHandlerEv:000000000000005a .L0 
     /tmp/ccROyhCL.s:511    .text._ZN4uart16interruptHandlerEv:000000000000005e .L0 
     /tmp/ccROyhCL.s:513    .text._ZN4uart16interruptHandlerEv:0000000000000062 .L0 
     /tmp/ccROyhCL.s:515    .text._ZN4uart16interruptHandlerEv:0000000000000066 .L0 
     /tmp/ccROyhCL.s:517    .text._ZN4uart16interruptHandlerEv:0000000000000068 .L0 
     /tmp/ccROyhCL.s:520    .text._ZN4uart16interruptHandlerEv:000000000000006e .L0 
     /tmp/ccROyhCL.s:522    .text._ZN4uart16interruptHandlerEv:0000000000000072 .L0 
     /tmp/ccROyhCL.s:526    .text._ZN4uart16interruptHandlerEv:000000000000007c .L0 
     /tmp/ccROyhCL.s:527    .text._ZN4uart16interruptHandlerEv:000000000000007c .L0 
     /tmp/ccROyhCL.s:529    .text._ZN4uart16interruptHandlerEv:0000000000000080 .L0 
GAS LISTING /tmp/ccROyhCL.s 			page 23


     /tmp/ccROyhCL.s:531    .text._ZN4uart16interruptHandlerEv:0000000000000084 .L0 
     /tmp/ccROyhCL.s:532    .text._ZN4uart16interruptHandlerEv:0000000000000084 .L0 
     /tmp/ccROyhCL.s:535    .text._ZN4uart16interruptHandlerEv:0000000000000088 .L0 
     /tmp/ccROyhCL.s:536    .text._ZN4uart16interruptHandlerEv:0000000000000088 .L0 
     /tmp/ccROyhCL.s:538    .text._ZN4uart16interruptHandlerEv:000000000000008c .L0 
     /tmp/ccROyhCL.s:541    .text._ZN4uart16interruptHandlerEv:000000000000008e .L0 
     /tmp/ccROyhCL.s:543    .text._ZN4uart16interruptHandlerEv:0000000000000092 .L0 
     /tmp/ccROyhCL.s:545    .text._ZN4uart16interruptHandlerEv:0000000000000096 .L0 
     /tmp/ccROyhCL.s:547    .text._ZN4uart16interruptHandlerEv:0000000000000098 .L0 
     /tmp/ccROyhCL.s:549    .text._ZN4uart16interruptHandlerEv:000000000000009c .L0 
     /tmp/ccROyhCL.s:550    .text._ZN4uart16interruptHandlerEv:000000000000009c .L0 
     /tmp/ccROyhCL.s:552    .text._ZN4uart16interruptHandlerEv:00000000000000a0 .L0 
     /tmp/ccROyhCL.s:554    .text._ZN4uart16interruptHandlerEv:00000000000000a4 .L0 
     /tmp/ccROyhCL.s:556    .text._ZN4uart16interruptHandlerEv:00000000000000a8 .L0 
     /tmp/ccROyhCL.s:559    .text._ZN4uart16interruptHandlerEv:00000000000000ae .L0 
     /tmp/ccROyhCL.s:561    .text._ZN4uart16interruptHandlerEv:00000000000000b2 .L0 
     /tmp/ccROyhCL.s:565    .text._ZN4uart16interruptHandlerEv:00000000000000bc .L0 
     /tmp/ccROyhCL.s:566    .text._ZN4uart16interruptHandlerEv:00000000000000bc .L0 
     /tmp/ccROyhCL.s:568    .text._ZN4uart16interruptHandlerEv:00000000000000c0 .L0 
     /tmp/ccROyhCL.s:570    .text._ZN4uart16interruptHandlerEv:00000000000000c4 .L0 
     /tmp/ccROyhCL.s:571    .text._ZN4uart16interruptHandlerEv:00000000000000c4 .L0 
     /tmp/ccROyhCL.s:574    .text._ZN4uart16interruptHandlerEv:00000000000000c8 .L0 
     /tmp/ccROyhCL.s:575    .text._ZN4uart16interruptHandlerEv:00000000000000c8 .L0 
     /tmp/ccROyhCL.s:576    .text._ZN4uart16interruptHandlerEv:00000000000000ca .L0 
     /tmp/ccROyhCL.s:577    .text._ZN4uart16interruptHandlerEv:00000000000000ca .L0 
     /tmp/ccROyhCL.s:579    .text._ZN4uart16interruptHandlerEv:00000000000000ca .L0 
     /tmp/ccROyhCL.s:581    .text._ZN4uart16interruptHandlerEv:00000000000000ce .L0 
     /tmp/ccROyhCL.s:582    .text._ZN4uart16interruptHandlerEv:00000000000000ce .L0 
     /tmp/ccROyhCL.s:583    .text._ZN4uart16interruptHandlerEv:00000000000000d0 .L0 
     /tmp/ccROyhCL.s:587    .text._ZN4uart16interruptHandlerEv:00000000000000d2 .L0 
     /tmp/ccROyhCL.s:591    .text._ZN4uart16interruptHandlerEv:00000000000000d2 .L0 
     /tmp/ccROyhCL.s:592    .text._ZN4uart16interruptHandlerEv:00000000000000d2 .L0 
     /tmp/ccROyhCL.s:594    .text._ZN4uart16interruptHandlerEv:00000000000000d6 .L0 
     /tmp/ccROyhCL.s:596    .text._ZN4uart16interruptHandlerEv:00000000000000da .L0 
     /tmp/ccROyhCL.s:600    .text._ZN4uart16interruptHandlerEv:00000000000000de .L0 
     /tmp/ccROyhCL.s:601    .text._ZN4uart16interruptHandlerEv:00000000000000de .L0 
     /tmp/ccROyhCL.s:602    .text._ZN4uart16interruptHandlerEv:00000000000000de .L0 
     /tmp/ccROyhCL.s:604    .text._ZN4uart16interruptHandlerEv:00000000000000e2 .L0 
     /tmp/ccROyhCL.s:606    .text._ZN4uart16interruptHandlerEv:00000000000000e6 .L0 
     /tmp/ccROyhCL.s:608    .text._ZN4uart16interruptHandlerEv:00000000000000ea .L0 
     /tmp/ccROyhCL.s:611    .text._ZN4uart16interruptHandlerEv:00000000000000ee .L0 
     /tmp/ccROyhCL.s:615    .text._ZN4uart16interruptHandlerEv:00000000000000f6 .L0 
     /tmp/ccROyhCL.s:616    .text._ZN4uart16interruptHandlerEv:00000000000000f6 .L0 
     /tmp/ccROyhCL.s:618    .text._ZN4uart16interruptHandlerEv:00000000000000fa .L0 
     /tmp/ccROyhCL.s:620    .text._ZN4uart16interruptHandlerEv:00000000000000fc .L0 
     /tmp/ccROyhCL.s:625    .text._ZN4uart16interruptHandlerEv:0000000000000104 .L0 
     /tmp/ccROyhCL.s:627    .text._ZN4uart16interruptHandlerEv:0000000000000106 .L0 
     /tmp/ccROyhCL.s:629    .text._ZN4uart16interruptHandlerEv:000000000000010a .L0 
     /tmp/ccROyhCL.s:631    .text._ZN4uart16interruptHandlerEv:000000000000010c .L0 
     /tmp/ccROyhCL.s:633    .text._ZN4uart16interruptHandlerEv:0000000000000110 .L0 
     /tmp/ccROyhCL.s:635    .text._ZN4uart16interruptHandlerEv:0000000000000112 .L0 
     /tmp/ccROyhCL.s:637    .text._ZN4uart16interruptHandlerEv:0000000000000114 .L0 
     /tmp/ccROyhCL.s:640    .text._ZN4uart16interruptHandlerEv:0000000000000118 .L0 
     /tmp/ccROyhCL.s:641    .text._ZN4uart16interruptHandlerEv:0000000000000118 .L0 
     /tmp/ccROyhCL.s:645    .text._ZN4uart16interruptHandlerEv:000000000000011c .L0 
     /tmp/ccROyhCL.s:646    .text._ZN4uart16interruptHandlerEv:000000000000011c .L0 
     /tmp/ccROyhCL.s:648    .text._ZN4uart16interruptHandlerEv:0000000000000120 .L0 
GAS LISTING /tmp/ccROyhCL.s 			page 24


     /tmp/ccROyhCL.s:649    .text._ZN4uart16interruptHandlerEv:0000000000000120 .L0 
     /tmp/ccROyhCL.s:652    .text._ZN4uart16interruptHandlerEv:0000000000000124 .L0 
     /tmp/ccROyhCL.s:654    .text._ZN4uart16interruptHandlerEv:0000000000000128 .L0 
     /tmp/ccROyhCL.s:656    .text._ZN4uart16interruptHandlerEv:000000000000012a .L0 
     /tmp/ccROyhCL.s:658    .text._ZN4uart16interruptHandlerEv:000000000000012c .L0 
     /tmp/ccROyhCL.s:660    .text._ZN4uart16interruptHandlerEv:000000000000012e .L0 
     /tmp/ccROyhCL.s:662    .text._ZN4uart16interruptHandlerEv:0000000000000130 .L0 
     /tmp/ccROyhCL.s:666    .text._ZN4uart16interruptHandlerEv:000000000000013c .L0 
     /tmp/ccROyhCL.s:667    .text._ZN4uart16interruptHandlerEv:000000000000013c .L0 
     /tmp/ccROyhCL.s:670    .text._ZN4uart16interruptHandlerEv:0000000000000140 .L0 
     /tmp/ccROyhCL.s:673    .text._ZN4uart16interruptHandlerEv:0000000000000144 .L0 
     /tmp/ccROyhCL.s:676    .text._ZN4uart16interruptHandlerEv:0000000000000148 .L0 
     /tmp/ccROyhCL.s:677    .text._ZN4uart16interruptHandlerEv:0000000000000148 .L0 
     /tmp/ccROyhCL.s:679    .text._ZN4uart16interruptHandlerEv:000000000000014c .L0 
     /tmp/ccROyhCL.s:683    .text._ZN4uart16interruptHandlerEv:0000000000000152 .L0 
     /tmp/ccROyhCL.s:690    .text._ZN4uart16interruptHandlerEv:0000000000000158 .L0 
     /tmp/ccROyhCL.s:692    .text._ZN4uart16interruptHandlerEv:000000000000015c .L0 
     /tmp/ccROyhCL.s:694    .text._ZN4uart16interruptHandlerEv:000000000000015e .L0 
     /tmp/ccROyhCL.s:698    .text._ZN4uart16interruptHandlerEv:0000000000000168 .L0 
     /tmp/ccROyhCL.s:699    .text._ZN4uart16interruptHandlerEv:0000000000000168 .L0 
     /tmp/ccROyhCL.s:701    .text._ZN4uart16interruptHandlerEv:000000000000016c .L0 
     /tmp/ccROyhCL.s:706    .text._ZN4uart16interruptHandlerEv:0000000000000170 .L0 
     /tmp/ccROyhCL.s:707    .text._ZN4uart16interruptHandlerEv:0000000000000170 .L0 
     /tmp/ccROyhCL.s:712    .text._ZN4uart16interruptHandlerEv:0000000000000174 .L0 
     /tmp/ccROyhCL.s:720    .text._ZN4uart16interruptHandlerEv:000000000000017a .L0 
     /tmp/ccROyhCL.s:722    .text._ZN4uart16interruptHandlerEv:000000000000017e .L0 
     /tmp/ccROyhCL.s:730    .text._ZN4uart16interruptHandlerEv:0000000000000188 .L0 
     /tmp/ccROyhCL.s:731    .text._ZN4uart16interruptHandlerEv:0000000000000188 .L0 
     /tmp/ccROyhCL.s:735    .text._ZN4uart16interruptHandlerEv:0000000000000190 .L0 
     /tmp/ccROyhCL.s:744    .text._ZN4uart16interruptHandlerEv:000000000000019e .L0 
     /tmp/ccROyhCL.s:745    .text._ZN4uart16interruptHandlerEv:000000000000019e .L0 
     /tmp/ccROyhCL.s:747    .text._ZN4uart16interruptHandlerEv:00000000000001a2 .L0 
     /tmp/ccROyhCL.s:749    .text._ZN4uart16interruptHandlerEv:00000000000001a4 .L0 
     /tmp/ccROyhCL.s:754    .text._ZN4uart16interruptHandlerEv:00000000000001ac .L0 
     /tmp/ccROyhCL.s:756    .text._ZN4uart16interruptHandlerEv:00000000000001ae .L0 
     /tmp/ccROyhCL.s:758    .text._ZN4uart16interruptHandlerEv:00000000000001b2 .L0 
     /tmp/ccROyhCL.s:760    .text._ZN4uart16interruptHandlerEv:00000000000001b4 .L0 
     /tmp/ccROyhCL.s:762    .text._ZN4uart16interruptHandlerEv:00000000000001b8 .L0 
     /tmp/ccROyhCL.s:764    .text._ZN4uart16interruptHandlerEv:00000000000001ba .L0 
     /tmp/ccROyhCL.s:766    .text._ZN4uart16interruptHandlerEv:00000000000001bc .L0 
     /tmp/ccROyhCL.s:769    .text._ZN4uart16interruptHandlerEv:00000000000001c0 .L0 
     /tmp/ccROyhCL.s:770    .text._ZN4uart16interruptHandlerEv:00000000000001c0 .L0 
     /tmp/ccROyhCL.s:778    .text._ZN4uart16interruptHandlerEv:00000000000001c6 .L0 
     /tmp/ccROyhCL.s:780    .text._ZN4uart16interruptHandlerEv:00000000000001cc .L0 
     /tmp/ccROyhCL.s:2825   .debug_line_str:0000000000000034 .L0 
     /tmp/ccROyhCL.s:2825   .debug_line_str:0000000000000056 .L0 
     /tmp/ccROyhCL.s:2825   .debug_line_str:000000000000005f .L0 
     /tmp/ccROyhCL.s:2825   .debug_line_str:0000000000000090 .L0 
     /tmp/ccROyhCL.s:2825   .debug_line_str:00000000000000bd .L0 
     /tmp/ccROyhCL.s:2825   .debug_line_str:00000000000000c6 .L0 
     /tmp/ccROyhCL.s:2825   .debug_line_str:00000000000000cf .L0 
     /tmp/ccROyhCL.s:2825   .debug_line_str:00000000000000d8 .L0 
     /tmp/ccROyhCL.s:2825   .debug_line_str:00000000000000e9 .L0 
     /tmp/ccROyhCL.s:2825   .debug_line_str:00000000000000f3 .L0 
     /tmp/ccROyhCL.s:2825   .debug_line_str:00000000000000fe .L0 
     /tmp/ccROyhCL.s:120    .text._ZN4uartC2EP13USART_TypeDefii9u_stopbit9u_wordlen:0000000000000078 .L0 
     /tmp/ccROyhCL.s:233    .text._ZN4uart4sendEPhtPFvvEh:000000000000008e .L0 
GAS LISTING /tmp/ccROyhCL.s 			page 25


     /tmp/ccROyhCL.s:306    .text._ZN4uart5printEPKc:0000000000000042 .L0 
     /tmp/ccROyhCL.s:340    .text._ZN4uart4syncEv:000000000000001e .L0 
     /tmp/ccROyhCL.s:381    .text._ZN4uart9availableEv:000000000000002a .L0 
     /tmp/ccROyhCL.s:437    .text._ZN4uart3getEv:000000000000003c .L0 
     /tmp/ccROyhCL.s:783    .text._ZN4uart16interruptHandlerEv:00000000000001cc .L0 
     /tmp/ccROyhCL.s:91     .text._ZN4uartC2EP13USART_TypeDefii9u_stopbit9u_wordlen:0000000000000066 .L2
     /tmp/ccROyhCL.s:224    .text._ZN4uart4sendEPhtPFvvEh:000000000000008a .L9
     /tmp/ccROyhCL.s:150    .text._ZN4uart4sendEPhtPFvvEh:0000000000000020 .L7
     /tmp/ccROyhCL.s:227    .text._ZN4uart4sendEPhtPFvvEh:000000000000008c .L6
     /tmp/ccROyhCL.s:209    .text._ZN4uart4sendEPhtPFvvEh:0000000000000076 .L8
     /tmp/ccROyhCL.s:298    .text._ZN4uart5printEPKc:000000000000003e .L13
     /tmp/ccROyhCL.s:270    .text._ZN4uart5printEPKc:0000000000000026 .L12
     /tmp/ccROyhCL.s:325    .text._ZN4uart4syncEv:0000000000000010 .L16
     /tmp/ccROyhCL.s:334    .text._ZN4uart4syncEv:000000000000001c .L15
     /tmp/ccROyhCL.s:317    .text._ZN4uart4syncEv:0000000000000002 .L18
     /tmp/ccROyhCL.s:365    .text._ZN4uart9availableEv:000000000000001a .L23
     /tmp/ccROyhCL.s:427    .text._ZN4uart3getEv:0000000000000038 .L29
     /tmp/ccROyhCL.s:431    .text._ZN4uart3getEv:000000000000003a .L26
     /tmp/ccROyhCL.s:468    .text._ZN4uart16interruptHandlerEv:000000000000001c .L32
     /tmp/ccROyhCL.s:586    .text._ZN4uart16interruptHandlerEv:00000000000000d2 .L57
     /tmp/ccROyhCL.s:572    .text._ZN4uart16interruptHandlerEv:00000000000000c8 .L40
     /tmp/ccROyhCL.s:533    .text._ZN4uart16interruptHandlerEv:0000000000000088 .L43
     /tmp/ccROyhCL.s:498    .text._ZN4uart16interruptHandlerEv:000000000000004c .L44
     /tmp/ccROyhCL.s:715    .text._ZN4uart16interruptHandlerEv:000000000000017a .L58
     /tmp/ccROyhCL.s:726    .text._ZN4uart16interruptHandlerEv:0000000000000188 .L59
     /tmp/ccROyhCL.s:741    .text._ZN4uart16interruptHandlerEv:000000000000019e .L35
     /tmp/ccROyhCL.s:688    .text._ZN4uart16interruptHandlerEv:0000000000000158 .L37
     /tmp/ccROyhCL.s:773    .text._ZN4uart16interruptHandlerEv:00000000000001c6 .L60
     /tmp/ccROyhCL.s:539    .text._ZN4uart16interruptHandlerEv:000000000000008e .L46
     /tmp/ccROyhCL.s:643    .text._ZN4uart16interruptHandlerEv:000000000000011c .L36
     /tmp/ccROyhCL.s:1461   .debug_abbrev:0000000000000000 .Ldebug_abbrev0
     /tmp/ccROyhCL.s:2798   .debug_str:00000000000002ec .LASF68
     /tmp/ccROyhCL.s:2823   .debug_line_str:0000000000000022 .LASF0
     /tmp/ccROyhCL.s:2821   .debug_line_str:0000000000000000 .LASF1
     /tmp/ccROyhCL.s:2647   .debug_rnglists:0000000000000028 .LLRL20
     /tmp/ccROyhCL.s:2672   .debug_line:0000000000000000 .Ldebug_line0
     /tmp/ccROyhCL.s:2718   .debug_str:000000000000015c .LASF2
     /tmp/ccROyhCL.s:2692   .debug_str:00000000000000a3 .LASF3
     /tmp/ccROyhCL.s:2676   .debug_str:0000000000000018 .LASF6
     /tmp/ccROyhCL.s:2790   .debug_str:00000000000002be .LASF4
     /tmp/ccROyhCL.s:2796   .debug_str:00000000000002e2 .LASF5
     /tmp/ccROyhCL.s:2804   .debug_str:0000000000000380 .LASF7
     /tmp/ccROyhCL.s:2736   .debug_str:00000000000001b3 .LASF8
     /tmp/ccROyhCL.s:2698   .debug_str:00000000000000bd .LASF9
     /tmp/ccROyhCL.s:2728   .debug_str:000000000000018a .LASF10
     /tmp/ccROyhCL.s:2690   .debug_str:0000000000000095 .LASF11
     /tmp/ccROyhCL.s:2682   .debug_str:000000000000003a .LASF12
     /tmp/ccROyhCL.s:2814   .debug_str:00000000000003bb .LASF13
     /tmp/ccROyhCL.s:2706   .debug_str:0000000000000103 .LASF14
     /tmp/ccROyhCL.s:2812   .debug_str:00000000000003ab .LASF69
     /tmp/ccROyhCL.s:2810   .debug_str:00000000000003a5 .LASF15
     /tmp/ccROyhCL.s:2770   .debug_str:0000000000000258 .LASF16
     /tmp/ccROyhCL.s:2764   .debug_str:000000000000023c .LASF17
     /tmp/ccROyhCL.s:2772   .debug_str:0000000000000262 .LASF18
     /tmp/ccROyhCL.s:2774   .debug_str:000000000000026c .LASF19
     /tmp/ccROyhCL.s:2746   .debug_str:00000000000001eb .LASF20
     /tmp/ccROyhCL.s:2776   .debug_str:0000000000000276 .LASF21
GAS LISTING /tmp/ccROyhCL.s 			page 26


     /tmp/ccROyhCL.s:2748   .debug_str:00000000000001f1 .LASF22
     /tmp/ccROyhCL.s:2778   .debug_str:0000000000000280 .LASF23
     /tmp/ccROyhCL.s:2750   .debug_str:00000000000001f7 .LASF24
     /tmp/ccROyhCL.s:2780   .debug_str:000000000000028a .LASF25
     /tmp/ccROyhCL.s:2782   .debug_str:0000000000000294 .LASF26
     /tmp/ccROyhCL.s:2742   .debug_str:00000000000001d8 .LASF27
     /tmp/ccROyhCL.s:2684   .debug_str:0000000000000051 .LASF70
     /tmp/ccROyhCL.s:2752   .debug_str:00000000000001fd .LASF28
     /tmp/ccROyhCL.s:2734   .debug_str:00000000000001ae .LASF29
     /tmp/ccROyhCL.s:2740   .debug_str:00000000000001cf .LASF30
     /tmp/ccROyhCL.s:2726   .debug_str:0000000000000180 .LASF35
     /tmp/ccROyhCL.s:2702   .debug_str:00000000000000d9 .LASF31
     /tmp/ccROyhCL.s:2756   .debug_str:0000000000000219 .LASF32
     /tmp/ccROyhCL.s:2800   .debug_str:000000000000036e .LASF33
     /tmp/ccROyhCL.s:2712   .debug_str:0000000000000143 .LASF34
     /tmp/ccROyhCL.s:2730   .debug_str:000000000000019c .LASF36
     /tmp/ccROyhCL.s:2792   .debug_str:00000000000002cc .LASF37
     /tmp/ccROyhCL.s:2794   .debug_str:00000000000002d7 .LASF38
     /tmp/ccROyhCL.s:2768   .debug_str:0000000000000253 .LASF50
     /tmp/ccROyhCL.s:2806   .debug_str:000000000000038b .LASF39
     /tmp/ccROyhCL.s:2762   .debug_str:0000000000000233 .LASF40
     /tmp/ccROyhCL.s:2732   .debug_str:00000000000001a6 .LASF41
     /tmp/ccROyhCL.s:2722   .debug_str:0000000000000171 .LASF42
     /tmp/ccROyhCL.s:2720   .debug_str:0000000000000169 .LASF43
     /tmp/ccROyhCL.s:2714   .debug_str:000000000000014e .LASF44
     /tmp/ccROyhCL.s:2716   .debug_str:0000000000000156 .LASF45
     /tmp/ccROyhCL.s:2710   .debug_str:0000000000000111 .LASF52
     /tmp/ccROyhCL.s:2758   .debug_str:0000000000000224 .LASF46
     /tmp/ccROyhCL.s:2674   .debug_str:0000000000000000 .LASF48
     /tmp/ccROyhCL.s:2686   .debug_str:000000000000005d .LASF47
     /tmp/ccROyhCL.s:2700   .debug_str:00000000000000c6 .LASF49
     /tmp/ccROyhCL.s:2816   .debug_str:00000000000003c3 .LASF51
     /tmp/ccROyhCL.s:2788   .debug_str:00000000000002ae .LASF53
     /tmp/ccROyhCL.s:2786   .debug_str:00000000000002a4 .LASF54
     /tmp/ccROyhCL.s:2754   .debug_str:0000000000000204 .LASF55
     /tmp/ccROyhCL.s:2680   .debug_str:000000000000002b .LASF71
     /tmp/ccROyhCL.s:2808   .debug_str:0000000000000394 .LASF72
     /tmp/ccROyhCL.s:2704   .debug_str:00000000000000e6 .LASF73
     /tmp/ccROyhCL.s:2744   .debug_str:00000000000001e6 .LASF56
     /tmp/ccROyhCL.s:2802   .debug_str:000000000000037b .LASF57
     /tmp/ccROyhCL.s:442    .text._ZN4uart16interruptHandlerEv:0000000000000000 .LFB23
     /tmp/ccROyhCL.s:781    .text._ZN4uart16interruptHandlerEv:00000000000001cc .LFE23
     /tmp/ccROyhCL.s:2708   .debug_str:000000000000010c .LASF58
     /tmp/ccROyhCL.s:2162   .debug_loclists:000000000000000c .LLST17
     /tmp/ccROyhCL.s:2636   .debug_rnglists:000000000000000c .LLRL18
     /tmp/ccROyhCL.s:2209   .debug_loclists:0000000000000064 .LLST19
     /tmp/ccROyhCL.s:386    .text._ZN4uart3getEv:0000000000000000 .LFB22
     /tmp/ccROyhCL.s:435    .text._ZN4uart3getEv:000000000000003c .LFE22
     /tmp/ccROyhCL.s:2239   .debug_loclists:000000000000009f .LLST15
     /tmp/ccROyhCL.s:2261   .debug_loclists:00000000000000cc .LLST16
     /tmp/ccROyhCL.s:345    .text._ZN4uart9availableEv:0000000000000000 .LFB21
     /tmp/ccROyhCL.s:379    .text._ZN4uart9availableEv:000000000000002a .LFE21
     /tmp/ccROyhCL.s:2268   .debug_loclists:00000000000000d8 .LLST14
     /tmp/ccROyhCL.s:311    .text._ZN4uart4syncEv:0000000000000000 .LFB20
     /tmp/ccROyhCL.s:338    .text._ZN4uart4syncEv:000000000000001e .LFE20
     /tmp/ccROyhCL.s:238    .text._ZN4uart5printEPKc:0000000000000000 .LFB19
     /tmp/ccROyhCL.s:304    .text._ZN4uart5printEPKc:0000000000000042 .LFE19
GAS LISTING /tmp/ccROyhCL.s 			page 27


     /tmp/ccROyhCL.s:2296   .debug_loclists:000000000000010b .LLST11
     /tmp/ccROyhCL.s:2326   .debug_loclists:0000000000000146 .LLST12
     /tmp/ccROyhCL.s:2356   .debug_loclists:0000000000000181 .LLST13
     /tmp/ccROyhCL.s:265    .text._ZN4uart5printEPKc:000000000000001e .LVL20
     /tmp/ccROyhCL.s:297    .text._ZN4uart5printEPKc:000000000000003e .LVL23
     /tmp/ccROyhCL.s:125    .text._ZN4uart4sendEPhtPFvvEh:0000000000000000 .LFB18
     /tmp/ccROyhCL.s:231    .text._ZN4uart4sendEPhtPFvvEh:000000000000008e .LFE18
     /tmp/ccROyhCL.s:2370   .debug_loclists:000000000000019a .LLST6
     /tmp/ccROyhCL.s:2395   .debug_loclists:00000000000001ca .LLST7
     /tmp/ccROyhCL.s:2421   .debug_loclists:00000000000001fb .LLST8
     /tmp/ccROyhCL.s:2447   .debug_loclists:000000000000022c .LLST9
     /tmp/ccROyhCL.s:2696   .debug_str:00000000000000b8 .LASF59
     /tmp/ccROyhCL.s:2473   .debug_loclists:000000000000025d .LLST10
     /tmp/ccROyhCL.s:2760   .debug_str:0000000000000229 .LASF60
     /tmp/ccROyhCL.s:2694   .debug_str:00000000000000af .LASF61
     /tmp/ccROyhCL.s:2784   .debug_str:000000000000029e .LASF62
     /tmp/ccROyhCL.s:2818   .debug_str:00000000000003c8 .LASF63
     /tmp/ccROyhCL.s:2738   .debug_str:00000000000001c6 .LASF64
     /tmp/ccROyhCL.s:2688   .debug_str:0000000000000063 .LASF74
     /tmp/ccROyhCL.s:15     .text._ZN4uartC2EP13USART_TypeDefii9u_stopbit9u_wordlen:0000000000000000 .LFB16
     /tmp/ccROyhCL.s:116    .text._ZN4uartC2EP13USART_TypeDefii9u_stopbit9u_wordlen:0000000000000078 .LFE16
     /tmp/ccROyhCL.s:2499   .debug_loclists:000000000000028e .LLST0
     /tmp/ccROyhCL.s:2514   .debug_loclists:00000000000002a8 .LLST1
     /tmp/ccROyhCL.s:2534   .debug_loclists:00000000000002cd .LLST2
     /tmp/ccROyhCL.s:2549   .debug_loclists:00000000000002e7 .LLST3
     /tmp/ccROyhCL.s:2564   .debug_loclists:0000000000000301 .LLST4
     /tmp/ccROyhCL.s:2584   .debug_loclists:0000000000000326 .LLST5
     /tmp/ccROyhCL.s:55     .text._ZN4uartC2EP13USART_TypeDefii9u_stopbit9u_wordlen:000000000000002e .LVL3
     /tmp/ccROyhCL.s:2724   .debug_str:0000000000000179 .LASF65
     /tmp/ccROyhCL.s:2766   .debug_str:0000000000000242 .LASF67
     /tmp/ccROyhCL.s:2678   .debug_str:0000000000000022 .LASF66
     /tmp/ccROyhCL.s:445    .text._ZN4uart16interruptHandlerEv:0000000000000000 .LVL33
     /tmp/ccROyhCL.s:467    .text._ZN4uart16interruptHandlerEv:000000000000001c .LVL34
     /tmp/ccROyhCL.s:585    .text._ZN4uart16interruptHandlerEv:00000000000000d2 .LVL35
     /tmp/ccROyhCL.s:685    .text._ZN4uart16interruptHandlerEv:0000000000000156 .LVL41
     /tmp/ccROyhCL.s:687    .text._ZN4uart16interruptHandlerEv:0000000000000158 .LVL42
     /tmp/ccROyhCL.s:725    .text._ZN4uart16interruptHandlerEv:0000000000000188 .LVL44
     /tmp/ccROyhCL.s:772    .text._ZN4uart16interruptHandlerEv:00000000000001c6 .LVL47
     /tmp/ccROyhCL.s:599    .text._ZN4uart16interruptHandlerEv:00000000000000de .LVL36
     /tmp/ccROyhCL.s:638    .text._ZN4uart16interruptHandlerEv:0000000000000118 .LVL37
     /tmp/ccROyhCL.s:650    .text._ZN4uart16interruptHandlerEv:0000000000000124 .LVL39
     /tmp/ccROyhCL.s:668    .text._ZN4uart16interruptHandlerEv:0000000000000140 .LVL40
     /tmp/ccROyhCL.s:740    .text._ZN4uart16interruptHandlerEv:000000000000019e .LVL45
     /tmp/ccROyhCL.s:767    .text._ZN4uart16interruptHandlerEv:00000000000001c0 .LVL46
     /tmp/ccROyhCL.s:389    .text._ZN4uart3getEv:0000000000000000 .LVL29
     /tmp/ccROyhCL.s:413    .text._ZN4uart3getEv:0000000000000026 .LVL30
     /tmp/ccROyhCL.s:426    .text._ZN4uart3getEv:0000000000000038 .LVL31
     /tmp/ccROyhCL.s:430    .text._ZN4uart3getEv:000000000000003a .LVL32
     /tmp/ccROyhCL.s:348    .text._ZN4uart9availableEv:0000000000000000 .LVL25
     /tmp/ccROyhCL.s:362    .text._ZN4uart9availableEv:0000000000000018 .LVL26
     /tmp/ccROyhCL.s:364    .text._ZN4uart9availableEv:000000000000001a .LVL27
     /tmp/ccROyhCL.s:371    .text._ZN4uart9availableEv:0000000000000022 .LVL28
     /tmp/ccROyhCL.s:241    .text._ZN4uart5printEPKc:0000000000000000 .LVL18
     /tmp/ccROyhCL.s:263    .text._ZN4uart5printEPKc:0000000000000016 .LVL19
     /tmp/ccROyhCL.s:286    .text._ZN4uart5printEPKc:0000000000000030 .LVL22
     /tmp/ccROyhCL.s:278    .text._ZN4uart5printEPKc:000000000000002a .LVL21
     /tmp/ccROyhCL.s:128    .text._ZN4uart4sendEPhtPFvvEh:0000000000000000 .LVL7
GAS LISTING /tmp/ccROyhCL.s 			page 28


     /tmp/ccROyhCL.s:134    .text._ZN4uart4sendEPhtPFvvEh:0000000000000006 .LVL8
     /tmp/ccROyhCL.s:216    .text._ZN4uart4sendEPhtPFvvEh:0000000000000080 .LVL16
     /tmp/ccROyhCL.s:223    .text._ZN4uart4sendEPhtPFvvEh:000000000000008a .LVL17
     /tmp/ccROyhCL.s:163    .text._ZN4uart4sendEPhtPFvvEh:0000000000000032 .LVL9
     /tmp/ccROyhCL.s:192    .text._ZN4uart4sendEPhtPFvvEh:000000000000005c .LVL13
     /tmp/ccROyhCL.s:171    .text._ZN4uart4sendEPhtPFvvEh:000000000000003e .LVL10
     /tmp/ccROyhCL.s:176    .text._ZN4uart4sendEPhtPFvvEh:0000000000000046 .LVL11
     /tmp/ccROyhCL.s:187    .text._ZN4uart4sendEPhtPFvvEh:0000000000000054 .LVL12
     /tmp/ccROyhCL.s:195    .text._ZN4uart4sendEPhtPFvvEh:0000000000000060 .LVL14
     /tmp/ccROyhCL.s:200    .text._ZN4uart4sendEPhtPFvvEh:000000000000006a .LVL15
     /tmp/ccROyhCL.s:19     .text._ZN4uartC2EP13USART_TypeDefii9u_stopbit9u_wordlen:0000000000000000 .LVL0
     /tmp/ccROyhCL.s:47     .text._ZN4uartC2EP13USART_TypeDefii9u_stopbit9u_wordlen:0000000000000022 .LVL2
     /tmp/ccROyhCL.s:45     .text._ZN4uartC2EP13USART_TypeDefii9u_stopbit9u_wordlen:0000000000000020 .LVL1
     /tmp/ccROyhCL.s:107    .text._ZN4uartC2EP13USART_TypeDefii9u_stopbit9u_wordlen:0000000000000072 .LVL4
     /tmp/ccROyhCL.s:110    .text._ZN4uartC2EP13USART_TypeDefii9u_stopbit9u_wordlen:0000000000000074 .LVL5
     /tmp/ccROyhCL.s:113    .text._ZN4uartC2EP13USART_TypeDefii9u_stopbit9u_wordlen:0000000000000076 .LVL6
     /tmp/ccROyhCL.s:790    .debug_info:0000000000000000 .Ldebug_info0
     /tmp/ccROyhCL.s:597    .text._ZN4uart16interruptHandlerEv:00000000000000de .LBB8
     /tmp/ccROyhCL.s:703    .text._ZN4uart16interruptHandlerEv:0000000000000170 .LBE8
     /tmp/ccROyhCL.s:710    .text._ZN4uart16interruptHandlerEv:0000000000000174 .LBB9
     /tmp/ccROyhCL.s:716    .text._ZN4uart16interruptHandlerEv:000000000000017a .LBE9
     /tmp/ccROyhCL.s:742    .text._ZN4uart16interruptHandlerEv:000000000000019e .LBB10
     /tmp/ccROyhCL.s:774    .text._ZN4uart16interruptHandlerEv:00000000000001c6 .LBE10

UNDEFINED SYMBOLS
__divsi3
strlen
